
kernel8.elf:     file format elf64-littleaarch64


Disassembly of section .text.boot:

0000000000080000 <_start>:
   80000:	d53800a1 	mrs	x1, mpidr_el1
   80004:	92400421 	and	x1, x1, #0x3
   80008:	b5000161 	cbnz	x1, 80034 <halt>
   8000c:	9400000c 	bl	8003c <from_el2_to_el1>
   80010:	58000241 	ldr	x1, 80058 <from_el2_to_el1+0x1c>
   80014:	9100003f 	mov	sp, x1
   80018:	58000241 	ldr	x1, 80060 <from_el2_to_el1+0x24>
   8001c:	180001c2 	ldr	w2, 80054 <from_el2_to_el1+0x18>

0000000000080020 <bss_init>:
   80020:	34000082 	cbz	w2, 80030 <run_main>
   80024:	f800843f 	str	xzr, [x1], #8
   80028:	51000442 	sub	w2, w2, #0x1
   8002c:	35ffffa2 	cbnz	w2, 80020 <bss_init>

0000000000080030 <run_main>:
   80030:	94000c05 	bl	83044 <main>

0000000000080034 <halt>:
   80034:	d503205f 	wfe
   80038:	17ffffff 	b	80034 <halt>

000000000008003c <from_el2_to_el1>:
   8003c:	d2b00004 	mov	x4, #0x80000000            	// #2147483648
   80040:	d51c1104 	msr	hcr_el2, x4
   80044:	d28078a4 	mov	x4, #0x3c5                 	// #965
   80048:	d51c4004 	msr	spsr_el2, x4
   8004c:	d51c403e 	msr	elr_el2, x30
   80050:	d69f03e0 	eret
   80054:	00000061 	udf	#97
   80058:	00080000 	.inst	0x00080000 ; undefined
   8005c:	00000000 	udf	#0
   80060:	00088aa8 	.inst	0x00088aa8 ; undefined
   80064:	00000000 	udf	#0

Disassembly of section .text:

0000000000080800 <leftRotate>:
   80800:	d10083ff 	sub	sp, sp, #0x20
   80804:	f90007e0 	str	x0, [sp, #8]
   80808:	f94007e0 	ldr	x0, [sp, #8]
   8080c:	f9400800 	ldr	x0, [x0, #16]
   80810:	f9000fe0 	str	x0, [sp, #24]
   80814:	f9400fe0 	ldr	x0, [sp, #24]
   80818:	f9400400 	ldr	x0, [x0, #8]
   8081c:	f9000be0 	str	x0, [sp, #16]
   80820:	f9400fe0 	ldr	x0, [sp, #24]
   80824:	f94007e1 	ldr	x1, [sp, #8]
   80828:	f9000401 	str	x1, [x0, #8]
   8082c:	f94007e0 	ldr	x0, [sp, #8]
   80830:	f9400be1 	ldr	x1, [sp, #16]
   80834:	f9000801 	str	x1, [x0, #16]
   80838:	f94007e0 	ldr	x0, [sp, #8]
   8083c:	f9400400 	ldr	x0, [x0, #8]
   80840:	f100001f 	cmp	x0, #0x0
   80844:	54000121 	b.ne	80868 <leftRotate+0x68>  // b.any
   80848:	f94007e0 	ldr	x0, [sp, #8]
   8084c:	f9400800 	ldr	x0, [x0, #16]
   80850:	f100001f 	cmp	x0, #0x0
   80854:	540000a1 	b.ne	80868 <leftRotate+0x68>  // b.any
   80858:	f94007e0 	ldr	x0, [sp, #8]
   8085c:	52800021 	mov	w1, #0x1                   	// #1
   80860:	b9000401 	str	w1, [x0, #4]
   80864:	14000022 	b	808ec <leftRotate+0xec>
   80868:	f94007e0 	ldr	x0, [sp, #8]
   8086c:	f9400400 	ldr	x0, [x0, #8]
   80870:	f100001f 	cmp	x0, #0x0
   80874:	54000101 	b.ne	80894 <leftRotate+0x94>  // b.any
   80878:	f94007e0 	ldr	x0, [sp, #8]
   8087c:	f9400800 	ldr	x0, [x0, #16]
   80880:	b9400400 	ldr	w0, [x0, #4]
   80884:	11000401 	add	w1, w0, #0x1
   80888:	f94007e0 	ldr	x0, [sp, #8]
   8088c:	b9000401 	str	w1, [x0, #4]
   80890:	14000017 	b	808ec <leftRotate+0xec>
   80894:	f94007e0 	ldr	x0, [sp, #8]
   80898:	f9400800 	ldr	x0, [x0, #16]
   8089c:	f100001f 	cmp	x0, #0x0
   808a0:	54000101 	b.ne	808c0 <leftRotate+0xc0>  // b.any
   808a4:	f94007e0 	ldr	x0, [sp, #8]
   808a8:	f9400400 	ldr	x0, [x0, #8]
   808ac:	b9400400 	ldr	w0, [x0, #4]
   808b0:	11000401 	add	w1, w0, #0x1
   808b4:	f94007e0 	ldr	x0, [sp, #8]
   808b8:	b9000401 	str	w1, [x0, #4]
   808bc:	1400000c 	b	808ec <leftRotate+0xec>
   808c0:	f94007e0 	ldr	x0, [sp, #8]
   808c4:	f9400800 	ldr	x0, [x0, #16]
   808c8:	b9400401 	ldr	w1, [x0, #4]
   808cc:	f94007e0 	ldr	x0, [sp, #8]
   808d0:	f9400400 	ldr	x0, [x0, #8]
   808d4:	b9400400 	ldr	w0, [x0, #4]
   808d8:	6b00003f 	cmp	w1, w0
   808dc:	1a80a020 	csel	w0, w1, w0, ge  // ge = tcont
   808e0:	11000401 	add	w1, w0, #0x1
   808e4:	f94007e0 	ldr	x0, [sp, #8]
   808e8:	b9000401 	str	w1, [x0, #4]
   808ec:	f9400fe0 	ldr	x0, [sp, #24]
   808f0:	f9400800 	ldr	x0, [x0, #16]
   808f4:	f100001f 	cmp	x0, #0x0
   808f8:	54000101 	b.ne	80918 <leftRotate+0x118>  // b.any
   808fc:	f9400fe0 	ldr	x0, [sp, #24]
   80900:	f9400400 	ldr	x0, [x0, #8]
   80904:	b9400400 	ldr	w0, [x0, #4]
   80908:	11000401 	add	w1, w0, #0x1
   8090c:	f9400fe0 	ldr	x0, [sp, #24]
   80910:	b9000401 	str	w1, [x0, #4]
   80914:	1400000c 	b	80944 <leftRotate+0x144>
   80918:	f9400fe0 	ldr	x0, [sp, #24]
   8091c:	f9400800 	ldr	x0, [x0, #16]
   80920:	b9400401 	ldr	w1, [x0, #4]
   80924:	f9400fe0 	ldr	x0, [sp, #24]
   80928:	f9400400 	ldr	x0, [x0, #8]
   8092c:	b9400400 	ldr	w0, [x0, #4]
   80930:	6b00003f 	cmp	w1, w0
   80934:	1a80a020 	csel	w0, w1, w0, ge  // ge = tcont
   80938:	11000401 	add	w1, w0, #0x1
   8093c:	f9400fe0 	ldr	x0, [sp, #24]
   80940:	b9000401 	str	w1, [x0, #4]
   80944:	f9400fe0 	ldr	x0, [sp, #24]
   80948:	910083ff 	add	sp, sp, #0x20
   8094c:	d65f03c0 	ret

0000000000080950 <rightRotate>:
   80950:	d10083ff 	sub	sp, sp, #0x20
   80954:	f90007e0 	str	x0, [sp, #8]
   80958:	f94007e0 	ldr	x0, [sp, #8]
   8095c:	f9400400 	ldr	x0, [x0, #8]
   80960:	f9000fe0 	str	x0, [sp, #24]
   80964:	f9400fe0 	ldr	x0, [sp, #24]
   80968:	f9400800 	ldr	x0, [x0, #16]
   8096c:	f9000be0 	str	x0, [sp, #16]
   80970:	f9400fe0 	ldr	x0, [sp, #24]
   80974:	f94007e1 	ldr	x1, [sp, #8]
   80978:	f9000801 	str	x1, [x0, #16]
   8097c:	f94007e0 	ldr	x0, [sp, #8]
   80980:	f9400be1 	ldr	x1, [sp, #16]
   80984:	f9000401 	str	x1, [x0, #8]
   80988:	f94007e0 	ldr	x0, [sp, #8]
   8098c:	f9400800 	ldr	x0, [x0, #16]
   80990:	f100001f 	cmp	x0, #0x0
   80994:	54000121 	b.ne	809b8 <rightRotate+0x68>  // b.any
   80998:	f94007e0 	ldr	x0, [sp, #8]
   8099c:	f9400400 	ldr	x0, [x0, #8]
   809a0:	f100001f 	cmp	x0, #0x0
   809a4:	540000a1 	b.ne	809b8 <rightRotate+0x68>  // b.any
   809a8:	f94007e0 	ldr	x0, [sp, #8]
   809ac:	52800021 	mov	w1, #0x1                   	// #1
   809b0:	b9000401 	str	w1, [x0, #4]
   809b4:	14000022 	b	80a3c <rightRotate+0xec>
   809b8:	f94007e0 	ldr	x0, [sp, #8]
   809bc:	f9400800 	ldr	x0, [x0, #16]
   809c0:	f100001f 	cmp	x0, #0x0
   809c4:	54000101 	b.ne	809e4 <rightRotate+0x94>  // b.any
   809c8:	f94007e0 	ldr	x0, [sp, #8]
   809cc:	f9400400 	ldr	x0, [x0, #8]
   809d0:	b9400400 	ldr	w0, [x0, #4]
   809d4:	11000401 	add	w1, w0, #0x1
   809d8:	f94007e0 	ldr	x0, [sp, #8]
   809dc:	b9000401 	str	w1, [x0, #4]
   809e0:	14000017 	b	80a3c <rightRotate+0xec>
   809e4:	f94007e0 	ldr	x0, [sp, #8]
   809e8:	f9400400 	ldr	x0, [x0, #8]
   809ec:	f100001f 	cmp	x0, #0x0
   809f0:	54000101 	b.ne	80a10 <rightRotate+0xc0>  // b.any
   809f4:	f94007e0 	ldr	x0, [sp, #8]
   809f8:	f9400800 	ldr	x0, [x0, #16]
   809fc:	b9400400 	ldr	w0, [x0, #4]
   80a00:	11000401 	add	w1, w0, #0x1
   80a04:	f94007e0 	ldr	x0, [sp, #8]
   80a08:	b9000401 	str	w1, [x0, #4]
   80a0c:	1400000c 	b	80a3c <rightRotate+0xec>
   80a10:	f94007e0 	ldr	x0, [sp, #8]
   80a14:	f9400800 	ldr	x0, [x0, #16]
   80a18:	b9400401 	ldr	w1, [x0, #4]
   80a1c:	f94007e0 	ldr	x0, [sp, #8]
   80a20:	f9400400 	ldr	x0, [x0, #8]
   80a24:	b9400400 	ldr	w0, [x0, #4]
   80a28:	6b00003f 	cmp	w1, w0
   80a2c:	1a80a020 	csel	w0, w1, w0, ge  // ge = tcont
   80a30:	11000401 	add	w1, w0, #0x1
   80a34:	f94007e0 	ldr	x0, [sp, #8]
   80a38:	b9000401 	str	w1, [x0, #4]
   80a3c:	f9400fe0 	ldr	x0, [sp, #24]
   80a40:	f9400400 	ldr	x0, [x0, #8]
   80a44:	f100001f 	cmp	x0, #0x0
   80a48:	54000101 	b.ne	80a68 <rightRotate+0x118>  // b.any
   80a4c:	f9400fe0 	ldr	x0, [sp, #24]
   80a50:	f9400800 	ldr	x0, [x0, #16]
   80a54:	b9400400 	ldr	w0, [x0, #4]
   80a58:	11000401 	add	w1, w0, #0x1
   80a5c:	f9400fe0 	ldr	x0, [sp, #24]
   80a60:	b9000401 	str	w1, [x0, #4]
   80a64:	1400000c 	b	80a94 <rightRotate+0x144>
   80a68:	f9400fe0 	ldr	x0, [sp, #24]
   80a6c:	f9400800 	ldr	x0, [x0, #16]
   80a70:	b9400401 	ldr	w1, [x0, #4]
   80a74:	f9400fe0 	ldr	x0, [sp, #24]
   80a78:	f9400400 	ldr	x0, [x0, #8]
   80a7c:	b9400400 	ldr	w0, [x0, #4]
   80a80:	6b00003f 	cmp	w1, w0
   80a84:	1a80a020 	csel	w0, w1, w0, ge  // ge = tcont
   80a88:	11000401 	add	w1, w0, #0x1
   80a8c:	f9400fe0 	ldr	x0, [sp, #24]
   80a90:	b9000401 	str	w1, [x0, #4]
   80a94:	f9400fe0 	ldr	x0, [sp, #24]
   80a98:	910083ff 	add	sp, sp, #0x20
   80a9c:	d65f03c0 	ret

0000000000080aa0 <getBalance>:
   80aa0:	d10043ff 	sub	sp, sp, #0x10
   80aa4:	f90007e0 	str	x0, [sp, #8]
   80aa8:	f94007e0 	ldr	x0, [sp, #8]
   80aac:	f100001f 	cmp	x0, #0x0
   80ab0:	54000061 	b.ne	80abc <getBalance+0x1c>  // b.any
   80ab4:	52800000 	mov	w0, #0x0                   	// #0
   80ab8:	14000023 	b	80b44 <getBalance+0xa4>
   80abc:	f94007e0 	ldr	x0, [sp, #8]
   80ac0:	f9400400 	ldr	x0, [x0, #8]
   80ac4:	f100001f 	cmp	x0, #0x0
   80ac8:	540000e1 	b.ne	80ae4 <getBalance+0x44>  // b.any
   80acc:	f94007e0 	ldr	x0, [sp, #8]
   80ad0:	f9400800 	ldr	x0, [x0, #16]
   80ad4:	f100001f 	cmp	x0, #0x0
   80ad8:	54000061 	b.ne	80ae4 <getBalance+0x44>  // b.any
   80adc:	52800000 	mov	w0, #0x0                   	// #0
   80ae0:	14000019 	b	80b44 <getBalance+0xa4>
   80ae4:	f94007e0 	ldr	x0, [sp, #8]
   80ae8:	f9400400 	ldr	x0, [x0, #8]
   80aec:	f100001f 	cmp	x0, #0x0
   80af0:	540000c1 	b.ne	80b08 <getBalance+0x68>  // b.any
   80af4:	f94007e0 	ldr	x0, [sp, #8]
   80af8:	f9400800 	ldr	x0, [x0, #16]
   80afc:	b9400400 	ldr	w0, [x0, #4]
   80b00:	4b0003e0 	neg	w0, w0
   80b04:	14000010 	b	80b44 <getBalance+0xa4>
   80b08:	f94007e0 	ldr	x0, [sp, #8]
   80b0c:	f9400800 	ldr	x0, [x0, #16]
   80b10:	f100001f 	cmp	x0, #0x0
   80b14:	540000a1 	b.ne	80b28 <getBalance+0x88>  // b.any
   80b18:	f94007e0 	ldr	x0, [sp, #8]
   80b1c:	f9400400 	ldr	x0, [x0, #8]
   80b20:	b9400400 	ldr	w0, [x0, #4]
   80b24:	14000008 	b	80b44 <getBalance+0xa4>
   80b28:	f94007e0 	ldr	x0, [sp, #8]
   80b2c:	f9400400 	ldr	x0, [x0, #8]
   80b30:	b9400401 	ldr	w1, [x0, #4]
   80b34:	f94007e0 	ldr	x0, [sp, #8]
   80b38:	f9400800 	ldr	x0, [x0, #16]
   80b3c:	b9400400 	ldr	w0, [x0, #4]
   80b40:	4b000020 	sub	w0, w1, w0
   80b44:	910043ff 	add	sp, sp, #0x10
   80b48:	d65f03c0 	ret

0000000000080b4c <minimum>:
   80b4c:	d10083ff 	sub	sp, sp, #0x20
   80b50:	f90007e0 	str	x0, [sp, #8]
   80b54:	f94007e0 	ldr	x0, [sp, #8]
   80b58:	f9000fe0 	str	x0, [sp, #24]
   80b5c:	14000004 	b	80b6c <minimum+0x20>
   80b60:	f9400fe0 	ldr	x0, [sp, #24]
   80b64:	f9400400 	ldr	x0, [x0, #8]
   80b68:	f9000fe0 	str	x0, [sp, #24]
   80b6c:	f9400fe0 	ldr	x0, [sp, #24]
   80b70:	f9400400 	ldr	x0, [x0, #8]
   80b74:	f100001f 	cmp	x0, #0x0
   80b78:	54ffff41 	b.ne	80b60 <minimum+0x14>  // b.any
   80b7c:	f9400fe0 	ldr	x0, [sp, #24]
   80b80:	b9400000 	ldr	w0, [x0]
   80b84:	910083ff 	add	sp, sp, #0x20
   80b88:	d65f03c0 	ret

0000000000080b8c <insert>:
   80b8c:	a9bc7bfd 	stp	x29, x30, [sp, #-64]!
   80b90:	910003fd 	mov	x29, sp
   80b94:	f9000bf3 	str	x19, [sp, #16]
   80b98:	f90017e0 	str	x0, [sp, #40]
   80b9c:	b90027e1 	str	w1, [sp, #36]
   80ba0:	f94017e0 	ldr	x0, [sp, #40]
   80ba4:	f9400000 	ldr	x0, [x0]
   80ba8:	f100001f 	cmp	x0, #0x0
   80bac:	54000341 	b.ne	80c14 <insert+0x88>  // b.any
   80bb0:	d2800300 	mov	x0, #0x18                  	// #24
   80bb4:	94000559 	bl	82118 <simple_malloc>
   80bb8:	93407c00 	sxtw	x0, w0
   80bbc:	f9001be0 	str	x0, [sp, #48]
   80bc0:	f9401be0 	ldr	x0, [sp, #48]
   80bc4:	f100001f 	cmp	x0, #0x0
   80bc8:	540000a1 	b.ne	80bdc <insert+0x50>  // b.any
   80bcc:	f0000020 	adrp	x0, 87000 <set_exception_vector_table>
   80bd0:	910c8000 	add	x0, x0, #0x320
   80bd4:	94000ddc 	bl	84344 <uart_sends>
   80bd8:	140000ca 	b	80f00 <insert+0x374>
   80bdc:	f9401be0 	ldr	x0, [sp, #48]
   80be0:	b94027e1 	ldr	w1, [sp, #36]
   80be4:	b9000001 	str	w1, [x0]
   80be8:	f9401be0 	ldr	x0, [sp, #48]
   80bec:	f900041f 	str	xzr, [x0, #8]
   80bf0:	f9401be0 	ldr	x0, [sp, #48]
   80bf4:	f900081f 	str	xzr, [x0, #16]
   80bf8:	f9401be0 	ldr	x0, [sp, #48]
   80bfc:	52800021 	mov	w1, #0x1                   	// #1
   80c00:	b9000401 	str	w1, [x0, #4]
   80c04:	f94017e0 	ldr	x0, [sp, #40]
   80c08:	f9401be1 	ldr	x1, [sp, #48]
   80c0c:	f9000001 	str	x1, [x0]
   80c10:	140000bc 	b	80f00 <insert+0x374>
   80c14:	f94017e0 	ldr	x0, [sp, #40]
   80c18:	f9400000 	ldr	x0, [x0]
   80c1c:	b9400000 	ldr	w0, [x0]
   80c20:	b94027e1 	ldr	w1, [sp, #36]
   80c24:	6b00003f 	cmp	w1, w0
   80c28:	540000ea 	b.ge	80c44 <insert+0xb8>  // b.tcont
   80c2c:	f94017e0 	ldr	x0, [sp, #40]
   80c30:	f9400000 	ldr	x0, [x0]
   80c34:	91002000 	add	x0, x0, #0x8
   80c38:	b94027e1 	ldr	w1, [sp, #36]
   80c3c:	97ffffd4 	bl	80b8c <insert>
   80c40:	1400000c 	b	80c70 <insert+0xe4>
   80c44:	f94017e0 	ldr	x0, [sp, #40]
   80c48:	f9400000 	ldr	x0, [x0]
   80c4c:	b9400000 	ldr	w0, [x0]
   80c50:	b94027e1 	ldr	w1, [sp, #36]
   80c54:	6b00003f 	cmp	w1, w0
   80c58:	5400152d 	b.le	80efc <insert+0x370>
   80c5c:	f94017e0 	ldr	x0, [sp, #40]
   80c60:	f9400000 	ldr	x0, [x0]
   80c64:	91004000 	add	x0, x0, #0x10
   80c68:	b94027e1 	ldr	w1, [sp, #36]
   80c6c:	97ffffc8 	bl	80b8c <insert>
   80c70:	b9003fff 	str	wzr, [sp, #60]
   80c74:	f94017e0 	ldr	x0, [sp, #40]
   80c78:	f9400000 	ldr	x0, [x0]
   80c7c:	f9400400 	ldr	x0, [x0, #8]
   80c80:	f100001f 	cmp	x0, #0x0
   80c84:	54000161 	b.ne	80cb0 <insert+0x124>  // b.any
   80c88:	f94017e0 	ldr	x0, [sp, #40]
   80c8c:	f9400000 	ldr	x0, [x0]
   80c90:	f9400800 	ldr	x0, [x0, #16]
   80c94:	f100001f 	cmp	x0, #0x0
   80c98:	540000c1 	b.ne	80cb0 <insert+0x124>  // b.any
   80c9c:	f94017e0 	ldr	x0, [sp, #40]
   80ca0:	f9400000 	ldr	x0, [x0]
   80ca4:	52800021 	mov	w1, #0x1                   	// #1
   80ca8:	b9000401 	str	w1, [x0, #4]
   80cac:	14000040 	b	80dac <insert+0x220>
   80cb0:	f94017e0 	ldr	x0, [sp, #40]
   80cb4:	f9400000 	ldr	x0, [x0]
   80cb8:	f9400400 	ldr	x0, [x0, #8]
   80cbc:	f100001f 	cmp	x0, #0x0
   80cc0:	54000201 	b.ne	80d00 <insert+0x174>  // b.any
   80cc4:	f94017e0 	ldr	x0, [sp, #40]
   80cc8:	f9400000 	ldr	x0, [x0]
   80ccc:	f9400800 	ldr	x0, [x0, #16]
   80cd0:	b9400401 	ldr	w1, [x0, #4]
   80cd4:	f94017e0 	ldr	x0, [sp, #40]
   80cd8:	f9400000 	ldr	x0, [x0]
   80cdc:	11000421 	add	w1, w1, #0x1
   80ce0:	b9000401 	str	w1, [x0, #4]
   80ce4:	f94017e0 	ldr	x0, [sp, #40]
   80ce8:	f9400000 	ldr	x0, [x0]
   80cec:	f9400800 	ldr	x0, [x0, #16]
   80cf0:	b9400400 	ldr	w0, [x0, #4]
   80cf4:	4b0003e0 	neg	w0, w0
   80cf8:	b9003fe0 	str	w0, [sp, #60]
   80cfc:	1400002c 	b	80dac <insert+0x220>
   80d00:	f94017e0 	ldr	x0, [sp, #40]
   80d04:	f9400000 	ldr	x0, [x0]
   80d08:	f9400800 	ldr	x0, [x0, #16]
   80d0c:	f100001f 	cmp	x0, #0x0
   80d10:	540001e1 	b.ne	80d4c <insert+0x1c0>  // b.any
   80d14:	f94017e0 	ldr	x0, [sp, #40]
   80d18:	f9400000 	ldr	x0, [x0]
   80d1c:	f9400400 	ldr	x0, [x0, #8]
   80d20:	b9400401 	ldr	w1, [x0, #4]
   80d24:	f94017e0 	ldr	x0, [sp, #40]
   80d28:	f9400000 	ldr	x0, [x0]
   80d2c:	11000421 	add	w1, w1, #0x1
   80d30:	b9000401 	str	w1, [x0, #4]
   80d34:	f94017e0 	ldr	x0, [sp, #40]
   80d38:	f9400000 	ldr	x0, [x0]
   80d3c:	f9400400 	ldr	x0, [x0, #8]
   80d40:	b9400400 	ldr	w0, [x0, #4]
   80d44:	b9003fe0 	str	w0, [sp, #60]
   80d48:	14000019 	b	80dac <insert+0x220>
   80d4c:	f94017e0 	ldr	x0, [sp, #40]
   80d50:	f9400000 	ldr	x0, [x0]
   80d54:	f9400800 	ldr	x0, [x0, #16]
   80d58:	b9400401 	ldr	w1, [x0, #4]
   80d5c:	f94017e0 	ldr	x0, [sp, #40]
   80d60:	f9400000 	ldr	x0, [x0]
   80d64:	f9400400 	ldr	x0, [x0, #8]
   80d68:	b9400400 	ldr	w0, [x0, #4]
   80d6c:	6b00003f 	cmp	w1, w0
   80d70:	1a80a021 	csel	w1, w1, w0, ge  // ge = tcont
   80d74:	f94017e0 	ldr	x0, [sp, #40]
   80d78:	f9400000 	ldr	x0, [x0]
   80d7c:	11000421 	add	w1, w1, #0x1
   80d80:	b9000401 	str	w1, [x0, #4]
   80d84:	f94017e0 	ldr	x0, [sp, #40]
   80d88:	f9400000 	ldr	x0, [x0]
   80d8c:	f9400400 	ldr	x0, [x0, #8]
   80d90:	b9400401 	ldr	w1, [x0, #4]
   80d94:	f94017e0 	ldr	x0, [sp, #40]
   80d98:	f9400000 	ldr	x0, [x0]
   80d9c:	f9400800 	ldr	x0, [x0, #16]
   80da0:	b9400400 	ldr	w0, [x0, #4]
   80da4:	4b000020 	sub	w0, w1, w0
   80da8:	b9003fe0 	str	w0, [sp, #60]
   80dac:	b9403fe0 	ldr	w0, [sp, #60]
   80db0:	7100041f 	cmp	w0, #0x1
   80db4:	540001ed 	b.le	80df0 <insert+0x264>
   80db8:	f94017e0 	ldr	x0, [sp, #40]
   80dbc:	f9400000 	ldr	x0, [x0]
   80dc0:	f9400400 	ldr	x0, [x0, #8]
   80dc4:	b9400000 	ldr	w0, [x0]
   80dc8:	b94027e1 	ldr	w1, [sp, #36]
   80dcc:	6b00003f 	cmp	w1, w0
   80dd0:	5400010a 	b.ge	80df0 <insert+0x264>  // b.tcont
   80dd4:	f94017e0 	ldr	x0, [sp, #40]
   80dd8:	f9400000 	ldr	x0, [x0]
   80ddc:	97fffedd 	bl	80950 <rightRotate>
   80de0:	aa0003e1 	mov	x1, x0
   80de4:	f94017e0 	ldr	x0, [sp, #40]
   80de8:	f9000001 	str	x1, [x0]
   80dec:	14000045 	b	80f00 <insert+0x374>
   80df0:	b9403fe0 	ldr	w0, [sp, #60]
   80df4:	7100041f 	cmp	w0, #0x1
   80df8:	540002ed 	b.le	80e54 <insert+0x2c8>
   80dfc:	f94017e0 	ldr	x0, [sp, #40]
   80e00:	f9400000 	ldr	x0, [x0]
   80e04:	f9400400 	ldr	x0, [x0, #8]
   80e08:	b9400000 	ldr	w0, [x0]
   80e0c:	b94027e1 	ldr	w1, [sp, #36]
   80e10:	6b00003f 	cmp	w1, w0
   80e14:	5400020d 	b.le	80e54 <insert+0x2c8>
   80e18:	f94017e0 	ldr	x0, [sp, #40]
   80e1c:	f9400000 	ldr	x0, [x0]
   80e20:	f9400401 	ldr	x1, [x0, #8]
   80e24:	f94017e0 	ldr	x0, [sp, #40]
   80e28:	f9400013 	ldr	x19, [x0]
   80e2c:	aa0103e0 	mov	x0, x1
   80e30:	97fffe74 	bl	80800 <leftRotate>
   80e34:	f9000660 	str	x0, [x19, #8]
   80e38:	f94017e0 	ldr	x0, [sp, #40]
   80e3c:	f9400000 	ldr	x0, [x0]
   80e40:	97fffec4 	bl	80950 <rightRotate>
   80e44:	aa0003e1 	mov	x1, x0
   80e48:	f94017e0 	ldr	x0, [sp, #40]
   80e4c:	f9000001 	str	x1, [x0]
   80e50:	1400002c 	b	80f00 <insert+0x374>
   80e54:	b9403fe0 	ldr	w0, [sp, #60]
   80e58:	3100041f 	cmn	w0, #0x1
   80e5c:	540001ea 	b.ge	80e98 <insert+0x30c>  // b.tcont
   80e60:	f94017e0 	ldr	x0, [sp, #40]
   80e64:	f9400000 	ldr	x0, [x0]
   80e68:	f9400800 	ldr	x0, [x0, #16]
   80e6c:	b9400000 	ldr	w0, [x0]
   80e70:	b94027e1 	ldr	w1, [sp, #36]
   80e74:	6b00003f 	cmp	w1, w0
   80e78:	5400010d 	b.le	80e98 <insert+0x30c>
   80e7c:	f94017e0 	ldr	x0, [sp, #40]
   80e80:	f9400000 	ldr	x0, [x0]
   80e84:	97fffe5f 	bl	80800 <leftRotate>
   80e88:	aa0003e1 	mov	x1, x0
   80e8c:	f94017e0 	ldr	x0, [sp, #40]
   80e90:	f9000001 	str	x1, [x0]
   80e94:	1400001b 	b	80f00 <insert+0x374>
   80e98:	b9403fe0 	ldr	w0, [sp, #60]
   80e9c:	3100041f 	cmn	w0, #0x1
   80ea0:	5400030a 	b.ge	80f00 <insert+0x374>  // b.tcont
   80ea4:	f94017e0 	ldr	x0, [sp, #40]
   80ea8:	f9400000 	ldr	x0, [x0]
   80eac:	f9400800 	ldr	x0, [x0, #16]
   80eb0:	b9400000 	ldr	w0, [x0]
   80eb4:	b94027e1 	ldr	w1, [sp, #36]
   80eb8:	6b00003f 	cmp	w1, w0
   80ebc:	5400022a 	b.ge	80f00 <insert+0x374>  // b.tcont
   80ec0:	f94017e0 	ldr	x0, [sp, #40]
   80ec4:	f9400000 	ldr	x0, [x0]
   80ec8:	f9400801 	ldr	x1, [x0, #16]
   80ecc:	f94017e0 	ldr	x0, [sp, #40]
   80ed0:	f9400013 	ldr	x19, [x0]
   80ed4:	aa0103e0 	mov	x0, x1
   80ed8:	97fffe9e 	bl	80950 <rightRotate>
   80edc:	f9000a60 	str	x0, [x19, #16]
   80ee0:	f94017e0 	ldr	x0, [sp, #40]
   80ee4:	f9400000 	ldr	x0, [x0]
   80ee8:	97fffe46 	bl	80800 <leftRotate>
   80eec:	aa0003e1 	mov	x1, x0
   80ef0:	f94017e0 	ldr	x0, [sp, #40]
   80ef4:	f9000001 	str	x1, [x0]
   80ef8:	14000002 	b	80f00 <insert+0x374>
   80efc:	d503201f 	nop
   80f00:	f9400bf3 	ldr	x19, [sp, #16]
   80f04:	a8c47bfd 	ldp	x29, x30, [sp], #64
   80f08:	d65f03c0 	ret

0000000000080f0c <delete>:
   80f0c:	a9bb7bfd 	stp	x29, x30, [sp, #-80]!
   80f10:	910003fd 	mov	x29, sp
   80f14:	f9000bf3 	str	x19, [sp, #16]
   80f18:	f90017e0 	str	x0, [sp, #40]
   80f1c:	b90027e1 	str	w1, [sp, #36]
   80f20:	f94017e0 	ldr	x0, [sp, #40]
   80f24:	f9400000 	ldr	x0, [x0]
   80f28:	f100001f 	cmp	x0, #0x0
   80f2c:	54000061 	b.ne	80f38 <delete+0x2c>  // b.any
   80f30:	d2800000 	mov	x0, #0x0                   	// #0
   80f34:	14000106 	b	8134c <delete+0x440>
   80f38:	f94017e0 	ldr	x0, [sp, #40]
   80f3c:	f9400000 	ldr	x0, [x0]
   80f40:	b9400000 	ldr	w0, [x0]
   80f44:	b94027e1 	ldr	w1, [sp, #36]
   80f48:	6b00003f 	cmp	w1, w0
   80f4c:	5400016a 	b.ge	80f78 <delete+0x6c>  // b.tcont
   80f50:	f94017e0 	ldr	x0, [sp, #40]
   80f54:	f9400000 	ldr	x0, [x0]
   80f58:	91002002 	add	x2, x0, #0x8
   80f5c:	f94017e0 	ldr	x0, [sp, #40]
   80f60:	f9400013 	ldr	x19, [x0]
   80f64:	b94027e1 	ldr	w1, [sp, #36]
   80f68:	aa0203e0 	mov	x0, x2
   80f6c:	97ffffe8 	bl	80f0c <delete>
   80f70:	f9000660 	str	x0, [x19, #8]
   80f74:	14000050 	b	810b4 <delete+0x1a8>
   80f78:	f94017e0 	ldr	x0, [sp, #40]
   80f7c:	f9400000 	ldr	x0, [x0]
   80f80:	b9400000 	ldr	w0, [x0]
   80f84:	b94027e1 	ldr	w1, [sp, #36]
   80f88:	6b00003f 	cmp	w1, w0
   80f8c:	5400016d 	b.le	80fb8 <delete+0xac>
   80f90:	f94017e0 	ldr	x0, [sp, #40]
   80f94:	f9400000 	ldr	x0, [x0]
   80f98:	91004002 	add	x2, x0, #0x10
   80f9c:	f94017e0 	ldr	x0, [sp, #40]
   80fa0:	f9400013 	ldr	x19, [x0]
   80fa4:	b94027e1 	ldr	w1, [sp, #36]
   80fa8:	aa0203e0 	mov	x0, x2
   80fac:	97ffffd8 	bl	80f0c <delete>
   80fb0:	f9000a60 	str	x0, [x19, #16]
   80fb4:	14000040 	b	810b4 <delete+0x1a8>
   80fb8:	f94017e0 	ldr	x0, [sp, #40]
   80fbc:	f9400000 	ldr	x0, [x0]
   80fc0:	f9400400 	ldr	x0, [x0, #8]
   80fc4:	f100001f 	cmp	x0, #0x0
   80fc8:	540000c0 	b.eq	80fe0 <delete+0xd4>  // b.none
   80fcc:	f94017e0 	ldr	x0, [sp, #40]
   80fd0:	f9400000 	ldr	x0, [x0]
   80fd4:	f9400800 	ldr	x0, [x0, #16]
   80fd8:	f100001f 	cmp	x0, #0x0
   80fdc:	54000361 	b.ne	81048 <delete+0x13c>  // b.any
   80fe0:	f94017e0 	ldr	x0, [sp, #40]
   80fe4:	f9400000 	ldr	x0, [x0]
   80fe8:	f9400400 	ldr	x0, [x0, #8]
   80fec:	f100001f 	cmp	x0, #0x0
   80ff0:	540000a0 	b.eq	81004 <delete+0xf8>  // b.none
   80ff4:	f94017e0 	ldr	x0, [sp, #40]
   80ff8:	f9400000 	ldr	x0, [x0]
   80ffc:	f9400400 	ldr	x0, [x0, #8]
   81000:	14000004 	b	81010 <delete+0x104>
   81004:	f94017e0 	ldr	x0, [sp, #40]
   81008:	f9400000 	ldr	x0, [x0]
   8100c:	f9400800 	ldr	x0, [x0, #16]
   81010:	f9001fe0 	str	x0, [sp, #56]
   81014:	f9401fe0 	ldr	x0, [sp, #56]
   81018:	f100001f 	cmp	x0, #0x0
   8101c:	540000e1 	b.ne	81038 <delete+0x12c>  // b.any
   81020:	f94017e0 	ldr	x0, [sp, #40]
   81024:	f9400000 	ldr	x0, [x0]
   81028:	f9001fe0 	str	x0, [sp, #56]
   8102c:	f94017e0 	ldr	x0, [sp, #40]
   81030:	f900001f 	str	xzr, [x0]
   81034:	14000020 	b	810b4 <delete+0x1a8>
   81038:	f94017e0 	ldr	x0, [sp, #40]
   8103c:	f9401fe1 	ldr	x1, [sp, #56]
   81040:	f9000001 	str	x1, [x0]
   81044:	1400001c 	b	810b4 <delete+0x1a8>
   81048:	f94017e0 	ldr	x0, [sp, #40]
   8104c:	f9400000 	ldr	x0, [x0]
   81050:	f9400800 	ldr	x0, [x0, #16]
   81054:	f90027e0 	str	x0, [sp, #72]
   81058:	14000004 	b	81068 <delete+0x15c>
   8105c:	f94027e0 	ldr	x0, [sp, #72]
   81060:	f9400400 	ldr	x0, [x0, #8]
   81064:	f90027e0 	str	x0, [sp, #72]
   81068:	f94027e0 	ldr	x0, [sp, #72]
   8106c:	f9400400 	ldr	x0, [x0, #8]
   81070:	f100001f 	cmp	x0, #0x0
   81074:	54ffff41 	b.ne	8105c <delete+0x150>  // b.any
   81078:	f94017e0 	ldr	x0, [sp, #40]
   8107c:	f9400000 	ldr	x0, [x0]
   81080:	f94027e1 	ldr	x1, [sp, #72]
   81084:	b9400021 	ldr	w1, [x1]
   81088:	b9000001 	str	w1, [x0]
   8108c:	f94017e0 	ldr	x0, [sp, #40]
   81090:	f9400000 	ldr	x0, [x0]
   81094:	91004002 	add	x2, x0, #0x10
   81098:	f94027e0 	ldr	x0, [sp, #72]
   8109c:	b9400001 	ldr	w1, [x0]
   810a0:	f94017e0 	ldr	x0, [sp, #40]
   810a4:	f9400013 	ldr	x19, [x0]
   810a8:	aa0203e0 	mov	x0, x2
   810ac:	97ffff98 	bl	80f0c <delete>
   810b0:	f9000a60 	str	x0, [x19, #16]
   810b4:	f94017e0 	ldr	x0, [sp, #40]
   810b8:	f9400000 	ldr	x0, [x0]
   810bc:	f100001f 	cmp	x0, #0x0
   810c0:	54000061 	b.ne	810cc <delete+0x1c0>  // b.any
   810c4:	d2800000 	mov	x0, #0x0                   	// #0
   810c8:	140000a1 	b	8134c <delete+0x440>
   810cc:	b90047ff 	str	wzr, [sp, #68]
   810d0:	f94017e0 	ldr	x0, [sp, #40]
   810d4:	f9400000 	ldr	x0, [x0]
   810d8:	f9400400 	ldr	x0, [x0, #8]
   810dc:	f100001f 	cmp	x0, #0x0
   810e0:	54000161 	b.ne	8110c <delete+0x200>  // b.any
   810e4:	f94017e0 	ldr	x0, [sp, #40]
   810e8:	f9400000 	ldr	x0, [x0]
   810ec:	f9400800 	ldr	x0, [x0, #16]
   810f0:	f100001f 	cmp	x0, #0x0
   810f4:	540000c1 	b.ne	8110c <delete+0x200>  // b.any
   810f8:	f94017e0 	ldr	x0, [sp, #40]
   810fc:	f9400000 	ldr	x0, [x0]
   81100:	52800021 	mov	w1, #0x1                   	// #1
   81104:	b9000401 	str	w1, [x0, #4]
   81108:	14000040 	b	81208 <delete+0x2fc>
   8110c:	f94017e0 	ldr	x0, [sp, #40]
   81110:	f9400000 	ldr	x0, [x0]
   81114:	f9400400 	ldr	x0, [x0, #8]
   81118:	f100001f 	cmp	x0, #0x0
   8111c:	54000201 	b.ne	8115c <delete+0x250>  // b.any
   81120:	f94017e0 	ldr	x0, [sp, #40]
   81124:	f9400000 	ldr	x0, [x0]
   81128:	f9400800 	ldr	x0, [x0, #16]
   8112c:	b9400401 	ldr	w1, [x0, #4]
   81130:	f94017e0 	ldr	x0, [sp, #40]
   81134:	f9400000 	ldr	x0, [x0]
   81138:	11000421 	add	w1, w1, #0x1
   8113c:	b9000401 	str	w1, [x0, #4]
   81140:	f94017e0 	ldr	x0, [sp, #40]
   81144:	f9400000 	ldr	x0, [x0]
   81148:	f9400800 	ldr	x0, [x0, #16]
   8114c:	b9400400 	ldr	w0, [x0, #4]
   81150:	4b0003e0 	neg	w0, w0
   81154:	b90047e0 	str	w0, [sp, #68]
   81158:	1400002c 	b	81208 <delete+0x2fc>
   8115c:	f94017e0 	ldr	x0, [sp, #40]
   81160:	f9400000 	ldr	x0, [x0]
   81164:	f9400800 	ldr	x0, [x0, #16]
   81168:	f100001f 	cmp	x0, #0x0
   8116c:	540001e1 	b.ne	811a8 <delete+0x29c>  // b.any
   81170:	f94017e0 	ldr	x0, [sp, #40]
   81174:	f9400000 	ldr	x0, [x0]
   81178:	f9400400 	ldr	x0, [x0, #8]
   8117c:	b9400401 	ldr	w1, [x0, #4]
   81180:	f94017e0 	ldr	x0, [sp, #40]
   81184:	f9400000 	ldr	x0, [x0]
   81188:	11000421 	add	w1, w1, #0x1
   8118c:	b9000401 	str	w1, [x0, #4]
   81190:	f94017e0 	ldr	x0, [sp, #40]
   81194:	f9400000 	ldr	x0, [x0]
   81198:	f9400400 	ldr	x0, [x0, #8]
   8119c:	b9400400 	ldr	w0, [x0, #4]
   811a0:	b90047e0 	str	w0, [sp, #68]
   811a4:	14000019 	b	81208 <delete+0x2fc>
   811a8:	f94017e0 	ldr	x0, [sp, #40]
   811ac:	f9400000 	ldr	x0, [x0]
   811b0:	f9400800 	ldr	x0, [x0, #16]
   811b4:	b9400401 	ldr	w1, [x0, #4]
   811b8:	f94017e0 	ldr	x0, [sp, #40]
   811bc:	f9400000 	ldr	x0, [x0]
   811c0:	f9400400 	ldr	x0, [x0, #8]
   811c4:	b9400400 	ldr	w0, [x0, #4]
   811c8:	6b00003f 	cmp	w1, w0
   811cc:	1a80a021 	csel	w1, w1, w0, ge  // ge = tcont
   811d0:	f94017e0 	ldr	x0, [sp, #40]
   811d4:	f9400000 	ldr	x0, [x0]
   811d8:	11000421 	add	w1, w1, #0x1
   811dc:	b9000401 	str	w1, [x0, #4]
   811e0:	f94017e0 	ldr	x0, [sp, #40]
   811e4:	f9400000 	ldr	x0, [x0]
   811e8:	f9400400 	ldr	x0, [x0, #8]
   811ec:	b9400401 	ldr	w1, [x0, #4]
   811f0:	f94017e0 	ldr	x0, [sp, #40]
   811f4:	f9400000 	ldr	x0, [x0]
   811f8:	f9400800 	ldr	x0, [x0, #16]
   811fc:	b9400400 	ldr	w0, [x0, #4]
   81200:	4b000020 	sub	w0, w1, w0
   81204:	b90047e0 	str	w0, [sp, #68]
   81208:	b94047e0 	ldr	w0, [sp, #68]
   8120c:	7100041f 	cmp	w0, #0x1
   81210:	540001cd 	b.le	81248 <delete+0x33c>
   81214:	f94017e0 	ldr	x0, [sp, #40]
   81218:	f9400000 	ldr	x0, [x0]
   8121c:	f9400400 	ldr	x0, [x0, #8]
   81220:	97fffe20 	bl	80aa0 <getBalance>
   81224:	7100001f 	cmp	w0, #0x0
   81228:	5400010b 	b.lt	81248 <delete+0x33c>  // b.tstop
   8122c:	f94017e0 	ldr	x0, [sp, #40]
   81230:	f9400000 	ldr	x0, [x0]
   81234:	97fffdc7 	bl	80950 <rightRotate>
   81238:	aa0003e1 	mov	x1, x0
   8123c:	f94017e0 	ldr	x0, [sp, #40]
   81240:	f9000001 	str	x1, [x0]
   81244:	14000040 	b	81344 <delete+0x438>
   81248:	b94047e0 	ldr	w0, [sp, #68]
   8124c:	7100041f 	cmp	w0, #0x1
   81250:	540002cd 	b.le	812a8 <delete+0x39c>
   81254:	f94017e0 	ldr	x0, [sp, #40]
   81258:	f9400000 	ldr	x0, [x0]
   8125c:	f9400400 	ldr	x0, [x0, #8]
   81260:	97fffe10 	bl	80aa0 <getBalance>
   81264:	7100001f 	cmp	w0, #0x0
   81268:	5400020a 	b.ge	812a8 <delete+0x39c>  // b.tcont
   8126c:	f94017e0 	ldr	x0, [sp, #40]
   81270:	f9400000 	ldr	x0, [x0]
   81274:	f9400401 	ldr	x1, [x0, #8]
   81278:	f94017e0 	ldr	x0, [sp, #40]
   8127c:	f9400013 	ldr	x19, [x0]
   81280:	aa0103e0 	mov	x0, x1
   81284:	97fffd5f 	bl	80800 <leftRotate>
   81288:	f9000660 	str	x0, [x19, #8]
   8128c:	f94017e0 	ldr	x0, [sp, #40]
   81290:	f9400000 	ldr	x0, [x0]
   81294:	97fffdaf 	bl	80950 <rightRotate>
   81298:	aa0003e1 	mov	x1, x0
   8129c:	f94017e0 	ldr	x0, [sp, #40]
   812a0:	f9000001 	str	x1, [x0]
   812a4:	14000028 	b	81344 <delete+0x438>
   812a8:	b94047e0 	ldr	w0, [sp, #68]
   812ac:	3100041f 	cmn	w0, #0x1
   812b0:	540001ca 	b.ge	812e8 <delete+0x3dc>  // b.tcont
   812b4:	f94017e0 	ldr	x0, [sp, #40]
   812b8:	f9400000 	ldr	x0, [x0]
   812bc:	f9400800 	ldr	x0, [x0, #16]
   812c0:	97fffdf8 	bl	80aa0 <getBalance>
   812c4:	7100001f 	cmp	w0, #0x0
   812c8:	5400010c 	b.gt	812e8 <delete+0x3dc>
   812cc:	f94017e0 	ldr	x0, [sp, #40]
   812d0:	f9400000 	ldr	x0, [x0]
   812d4:	97fffd4b 	bl	80800 <leftRotate>
   812d8:	aa0003e1 	mov	x1, x0
   812dc:	f94017e0 	ldr	x0, [sp, #40]
   812e0:	f9000001 	str	x1, [x0]
   812e4:	14000018 	b	81344 <delete+0x438>
   812e8:	b94047e0 	ldr	w0, [sp, #68]
   812ec:	3100041f 	cmn	w0, #0x1
   812f0:	540002aa 	b.ge	81344 <delete+0x438>  // b.tcont
   812f4:	f94017e0 	ldr	x0, [sp, #40]
   812f8:	f9400000 	ldr	x0, [x0]
   812fc:	f9400800 	ldr	x0, [x0, #16]
   81300:	97fffde8 	bl	80aa0 <getBalance>
   81304:	7100001f 	cmp	w0, #0x0
   81308:	540001ed 	b.le	81344 <delete+0x438>
   8130c:	f94017e0 	ldr	x0, [sp, #40]
   81310:	f9400000 	ldr	x0, [x0]
   81314:	f9400801 	ldr	x1, [x0, #16]
   81318:	f94017e0 	ldr	x0, [sp, #40]
   8131c:	f9400013 	ldr	x19, [x0]
   81320:	aa0103e0 	mov	x0, x1
   81324:	97fffd8b 	bl	80950 <rightRotate>
   81328:	f9000a60 	str	x0, [x19, #16]
   8132c:	f94017e0 	ldr	x0, [sp, #40]
   81330:	f9400000 	ldr	x0, [x0]
   81334:	97fffd33 	bl	80800 <leftRotate>
   81338:	aa0003e1 	mov	x1, x0
   8133c:	f94017e0 	ldr	x0, [sp, #40]
   81340:	f9000001 	str	x1, [x0]
   81344:	f94017e0 	ldr	x0, [sp, #40]
   81348:	f9400000 	ldr	x0, [x0]
   8134c:	f9400bf3 	ldr	x19, [sp, #16]
   81350:	a8c57bfd 	ldp	x29, x30, [sp], #80
   81354:	d65f03c0 	ret

0000000000081358 <inOrder>:
   81358:	a9be7bfd 	stp	x29, x30, [sp, #-32]!
   8135c:	910003fd 	mov	x29, sp
   81360:	f9000fe0 	str	x0, [sp, #24]
   81364:	f9400fe0 	ldr	x0, [sp, #24]
   81368:	f100001f 	cmp	x0, #0x0
   8136c:	540001a0 	b.eq	813a0 <inOrder+0x48>  // b.none
   81370:	f9400fe0 	ldr	x0, [sp, #24]
   81374:	f9400400 	ldr	x0, [x0, #8]
   81378:	97fffff8 	bl	81358 <inOrder>
   8137c:	f9400fe0 	ldr	x0, [sp, #24]
   81380:	b9400000 	ldr	w0, [x0]
   81384:	94000c52 	bl	844cc <uart_sendi>
   81388:	d0000020 	adrp	x0, 87000 <set_exception_vector_table>
   8138c:	910ce000 	add	x0, x0, #0x338
   81390:	94000bed 	bl	84344 <uart_sends>
   81394:	f9400fe0 	ldr	x0, [sp, #24]
   81398:	f9400800 	ldr	x0, [x0, #16]
   8139c:	97ffffef 	bl	81358 <inOrder>
   813a0:	d503201f 	nop
   813a4:	a8c27bfd 	ldp	x29, x30, [sp], #32
   813a8:	d65f03c0 	ret

00000000000813ac <preOrder>:
   813ac:	a9be7bfd 	stp	x29, x30, [sp, #-32]!
   813b0:	910003fd 	mov	x29, sp
   813b4:	f9000fe0 	str	x0, [sp, #24]
   813b8:	f9400fe0 	ldr	x0, [sp, #24]
   813bc:	f100001f 	cmp	x0, #0x0
   813c0:	540001a0 	b.eq	813f4 <preOrder+0x48>  // b.none
   813c4:	f9400fe0 	ldr	x0, [sp, #24]
   813c8:	b9400000 	ldr	w0, [x0]
   813cc:	94000c40 	bl	844cc <uart_sendi>
   813d0:	d0000020 	adrp	x0, 87000 <set_exception_vector_table>
   813d4:	910ce000 	add	x0, x0, #0x338
   813d8:	94000bdb 	bl	84344 <uart_sends>
   813dc:	f9400fe0 	ldr	x0, [sp, #24]
   813e0:	f9400400 	ldr	x0, [x0, #8]
   813e4:	97fffff2 	bl	813ac <preOrder>
   813e8:	f9400fe0 	ldr	x0, [sp, #24]
   813ec:	f9400800 	ldr	x0, [x0, #16]
   813f0:	97ffffef 	bl	813ac <preOrder>
   813f4:	d503201f 	nop
   813f8:	a8c27bfd 	ldp	x29, x30, [sp], #32
   813fc:	d65f03c0 	ret

0000000000081400 <help>:
   81400:	a9bd7bfd 	stp	x29, x30, [sp, #-48]!
   81404:	910003fd 	mov	x29, sp
   81408:	f9000fe0 	str	x0, [sp, #24]
   8140c:	b9002fff 	str	wzr, [sp, #44]
   81410:	1400001d 	b	81484 <help+0x84>
   81414:	f0000020 	adrp	x0, 88000 <get_current+0xce8>
   81418:	91274002 	add	x2, x0, #0x9d0
   8141c:	b9802fe1 	ldrsw	x1, [sp, #44]
   81420:	aa0103e0 	mov	x0, x1
   81424:	d37ff800 	lsl	x0, x0, #1
   81428:	8b010000 	add	x0, x0, x1
   8142c:	d37df000 	lsl	x0, x0, #3
   81430:	8b000040 	add	x0, x2, x0
   81434:	f9400000 	ldr	x0, [x0]
   81438:	94000bc3 	bl	84344 <uart_sends>
   8143c:	d0000020 	adrp	x0, 87000 <set_exception_vector_table>
   81440:	9112e000 	add	x0, x0, #0x4b8
   81444:	94000bc0 	bl	84344 <uart_sends>
   81448:	f0000020 	adrp	x0, 88000 <get_current+0xce8>
   8144c:	91274002 	add	x2, x0, #0x9d0
   81450:	b9802fe1 	ldrsw	x1, [sp, #44]
   81454:	aa0103e0 	mov	x0, x1
   81458:	d37ff800 	lsl	x0, x0, #1
   8145c:	8b010000 	add	x0, x0, x1
   81460:	d37df000 	lsl	x0, x0, #3
   81464:	8b000040 	add	x0, x2, x0
   81468:	f9400400 	ldr	x0, [x0, #8]
   8146c:	94000bb6 	bl	84344 <uart_sends>
   81470:	52800140 	mov	w0, #0xa                   	// #10
   81474:	94000bcb 	bl	843a0 <uart_sendc>
   81478:	b9402fe0 	ldr	w0, [sp, #44]
   8147c:	11000400 	add	w0, w0, #0x1
   81480:	b9002fe0 	str	w0, [sp, #44]
   81484:	b9402fe0 	ldr	w0, [sp, #44]
   81488:	7100201f 	cmp	w0, #0x8
   8148c:	54fffc4d 	b.le	81414 <help+0x14>
   81490:	52800000 	mov	w0, #0x0                   	// #0
   81494:	a8c37bfd 	ldp	x29, x30, [sp], #48
   81498:	d65f03c0 	ret

000000000008149c <hello>:
   8149c:	a9be7bfd 	stp	x29, x30, [sp, #-32]!
   814a0:	910003fd 	mov	x29, sp
   814a4:	f9000fe0 	str	x0, [sp, #24]
   814a8:	d0000020 	adrp	x0, 87000 <set_exception_vector_table>
   814ac:	91130000 	add	x0, x0, #0x4c0
   814b0:	94000ba5 	bl	84344 <uart_sends>
   814b4:	52800000 	mov	w0, #0x0                   	// #0
   814b8:	a8c27bfd 	ldp	x29, x30, [sp], #32
   814bc:	d65f03c0 	ret

00000000000814c0 <lshw>:
   814c0:	a9be7bfd 	stp	x29, x30, [sp, #-32]!
   814c4:	910003fd 	mov	x29, sp
   814c8:	f9000fe0 	str	x0, [sp, #24]
   814cc:	9400069e 	bl	82f44 <get_board_revision>
   814d0:	940006ba 	bl	82fb8 <get_arm_memory>
   814d4:	52800000 	mov	w0, #0x0                   	// #0
   814d8:	a8c27bfd 	ldp	x29, x30, [sp], #32
   814dc:	d65f03c0 	ret

00000000000814e0 <reboot>:
   814e0:	d10043ff 	sub	sp, sp, #0x10
   814e4:	f90007e0 	str	x0, [sp, #8]
   814e8:	d2800380 	mov	x0, #0x1c                  	// #28
   814ec:	f2a7e200 	movk	x0, #0x3f10, lsl #16
   814f0:	52800401 	mov	w1, #0x20                  	// #32
   814f4:	72ab4001 	movk	w1, #0x5a00, lsl #16
   814f8:	b9000001 	str	w1, [x0]
   814fc:	d2800480 	mov	x0, #0x24                  	// #36
   81500:	f2a7e200 	movk	x0, #0x3f10, lsl #16
   81504:	52800281 	mov	w1, #0x14                  	// #20
   81508:	72ab4001 	movk	w1, #0x5a00, lsl #16
   8150c:	b9000001 	str	w1, [x0]
   81510:	52800000 	mov	w0, #0x0                   	// #0
   81514:	910043ff 	add	sp, sp, #0x10
   81518:	d65f03c0 	ret

000000000008151c <ls>:
   8151c:	a9be7bfd 	stp	x29, x30, [sp, #-32]!
   81520:	910003fd 	mov	x29, sp
   81524:	f9000fe0 	str	x0, [sp, #24]
   81528:	94000323 	bl	821b4 <initrd_list>
   8152c:	52800000 	mov	w0, #0x0                   	// #0
   81530:	a8c27bfd 	ldp	x29, x30, [sp], #32
   81534:	d65f03c0 	ret

0000000000081538 <cat>:
   81538:	a9ad7bfd 	stp	x29, x30, [sp, #-304]!
   8153c:	910003fd 	mov	x29, sp
   81540:	f9000fe0 	str	x0, [sp, #24]
   81544:	f9400fe0 	ldr	x0, [sp, #24]
   81548:	f100001f 	cmp	x0, #0x0
   8154c:	54000061 	b.ne	81558 <cat+0x20>  // b.any
   81550:	12800000 	mov	w0, #0xffffffff            	// #-1
   81554:	14000009 	b	81578 <cat+0x40>
   81558:	f9400fe0 	ldr	x0, [sp, #24]
   8155c:	91002000 	add	x0, x0, #0x8
   81560:	f9400001 	ldr	x1, [x0]
   81564:	9100a3e0 	add	x0, sp, #0x28
   81568:	94000dfc 	bl	84d58 <strcpy>
   8156c:	9100a3e0 	add	x0, sp, #0x28
   81570:	94000361 	bl	822f4 <initrd_cat>
   81574:	52800000 	mov	w0, #0x0                   	// #0
   81578:	a8d37bfd 	ldp	x29, x30, [sp], #304
   8157c:	d65f03c0 	ret

0000000000081580 <exec>:
   81580:	a9ab7bfd 	stp	x29, x30, [sp, #-336]!
   81584:	910003fd 	mov	x29, sp
   81588:	f9000fe0 	str	x0, [sp, #24]
   8158c:	f9400fe0 	ldr	x0, [sp, #24]
   81590:	f100001f 	cmp	x0, #0x0
   81594:	54000061 	b.ne	815a0 <exec+0x20>  // b.any
   81598:	12800000 	mov	w0, #0xffffffff            	// #-1
   8159c:	1400003f 	b	81698 <exec+0x118>
   815a0:	f9400fe0 	ldr	x0, [sp, #24]
   815a4:	91002000 	add	x0, x0, #0x8
   815a8:	f9400001 	ldr	x1, [x0]
   815ac:	9100a3e0 	add	x0, sp, #0x28
   815b0:	94000dea 	bl	84d58 <strcpy>
   815b4:	9100a3e0 	add	x0, sp, #0x28
   815b8:	940003de 	bl	82530 <fetch_exec>
   815bc:	f900a3e0 	str	x0, [sp, #320]
   815c0:	f940a3e0 	ldr	x0, [sp, #320]
   815c4:	f100001f 	cmp	x0, #0x0
   815c8:	54000560 	b.eq	81674 <exec+0xf4>  // b.none
   815cc:	94000437 	bl	826a8 <get_exec_size>
   815d0:	94000aa3 	bl	8405c <kmalloc>
   815d4:	93407c00 	sxtw	x0, w0
   815d8:	f9009fe0 	str	x0, [sp, #312]
   815dc:	b9014fff 	str	wzr, [sp, #332]
   815e0:	1400000c 	b	81610 <exec+0x90>
   815e4:	b9814fe0 	ldrsw	x0, [sp, #332]
   815e8:	f940a3e1 	ldr	x1, [sp, #320]
   815ec:	8b000021 	add	x1, x1, x0
   815f0:	b9814fe0 	ldrsw	x0, [sp, #332]
   815f4:	f9409fe2 	ldr	x2, [sp, #312]
   815f8:	8b000040 	add	x0, x2, x0
   815fc:	39400021 	ldrb	w1, [x1]
   81600:	39000001 	strb	w1, [x0]
   81604:	b9414fe0 	ldr	w0, [sp, #332]
   81608:	11000400 	add	w0, w0, #0x1
   8160c:	b9014fe0 	str	w0, [sp, #332]
   81610:	94000426 	bl	826a8 <get_exec_size>
   81614:	2a0003e1 	mov	w1, w0
   81618:	b9414fe0 	ldr	w0, [sp, #332]
   8161c:	6b01001f 	cmp	w0, w1
   81620:	54fffe2b 	b.lt	815e4 <exec+0x64>  // b.tstop
   81624:	f9409fe0 	ldr	x0, [sp, #312]
   81628:	94001188 	bl	85c48 <thread_create>
   8162c:	f9009be0 	str	x0, [sp, #304]
   81630:	9400122e 	bl	85ee8 <add_scheduler>
   81634:	f9409be0 	ldr	x0, [sp, #304]
   81638:	f9402c01 	ldr	x1, [x0, #88]
   8163c:	f9409be0 	ldr	x0, [sp, #304]
   81640:	f9403002 	ldr	x2, [x0, #96]
   81644:	f9409be0 	ldr	x0, [sp, #304]
   81648:	f9404000 	ldr	x0, [x0, #128]
   8164c:	91400403 	add	x3, x0, #0x1, lsl #12
   81650:	f9409be0 	ldr	x0, [sp, #304]
   81654:	d518d080 	msr	tpidr_el1, x0
   81658:	d2800004 	mov	x4, #0x0                   	// #0
   8165c:	d5184004 	msr	spsr_el1, x4
   81660:	d5184021 	msr	elr_el1, x1
   81664:	d5184102 	msr	sp_el0, x2
   81668:	9100007f 	mov	sp, x3
   8166c:	d69f03e0 	eret
   81670:	14000009 	b	81694 <exec+0x114>
   81674:	d0000020 	adrp	x0, 87000 <set_exception_vector_table>
   81678:	91134000 	add	x0, x0, #0x4d0
   8167c:	94000b32 	bl	84344 <uart_sends>
   81680:	9100a3e0 	add	x0, sp, #0x28
   81684:	94000b30 	bl	84344 <uart_sends>
   81688:	d0000020 	adrp	x0, 87000 <set_exception_vector_table>
   8168c:	91136000 	add	x0, x0, #0x4d8
   81690:	94000b2d 	bl	84344 <uart_sends>
   81694:	52800000 	mov	w0, #0x0                   	// #0
   81698:	a8d57bfd 	ldp	x29, x30, [sp], #336
   8169c:	d65f03c0 	ret

00000000000816a0 <setTimeout>:
   816a0:	a9bd7bfd 	stp	x29, x30, [sp, #-48]!
   816a4:	910003fd 	mov	x29, sp
   816a8:	f9000bf3 	str	x19, [sp, #16]
   816ac:	f90017e0 	str	x0, [sp, #40]
   816b0:	f94017e0 	ldr	x0, [sp, #40]
   816b4:	f100001f 	cmp	x0, #0x0
   816b8:	54000061 	b.ne	816c4 <setTimeout+0x24>  // b.any
   816bc:	12800000 	mov	w0, #0xffffffff            	// #-1
   816c0:	1400000d 	b	816f4 <setTimeout+0x54>
   816c4:	f94017e0 	ldr	x0, [sp, #40]
   816c8:	91002000 	add	x0, x0, #0x8
   816cc:	f9400013 	ldr	x19, [x0]
   816d0:	f94017e0 	ldr	x0, [sp, #40]
   816d4:	91004000 	add	x0, x0, #0x10
   816d8:	f9400000 	ldr	x0, [x0]
   816dc:	94000ed9 	bl	85240 <atoi>
   816e0:	93407c00 	sxtw	x0, w0
   816e4:	aa0003e1 	mov	x1, x0
   816e8:	aa1303e0 	mov	x0, x19
   816ec:	9400125e 	bl	86064 <set_timeout>
   816f0:	52800000 	mov	w0, #0x0                   	// #0
   816f4:	f9400bf3 	ldr	x19, [sp, #16]
   816f8:	a8c37bfd 	ldp	x29, x30, [sp], #48
   816fc:	d65f03c0 	ret

0000000000081700 <test>:
   81700:	a9ae7bfd 	stp	x29, x30, [sp, #-288]!
   81704:	910003fd 	mov	x29, sp
   81708:	f9000fe0 	str	x0, [sp, #24]
   8170c:	d0000020 	adrp	x0, 87000 <set_exception_vector_table>
   81710:	9113e000 	add	x0, x0, #0x4f8
   81714:	94000b0c 	bl	84344 <uart_sends>
   81718:	d0000020 	adrp	x0, 87000 <set_exception_vector_table>
   8171c:	91142000 	add	x0, x0, #0x508
   81720:	94000b09 	bl	84344 <uart_sends>
   81724:	d0000020 	adrp	x0, 87000 <set_exception_vector_table>
   81728:	91148000 	add	x0, x0, #0x520
   8172c:	94000b06 	bl	84344 <uart_sends>
   81730:	d0000020 	adrp	x0, 87000 <set_exception_vector_table>
   81734:	9114c000 	add	x0, x0, #0x530
   81738:	94000b03 	bl	84344 <uart_sends>
   8173c:	d0000020 	adrp	x0, 87000 <set_exception_vector_table>
   81740:	91150000 	add	x0, x0, #0x540
   81744:	94000b00 	bl	84344 <uart_sends>
   81748:	910083e0 	add	x0, sp, #0x20
   8174c:	94000e83 	bl	85158 <gets>
   81750:	910083e0 	add	x0, sp, #0x20
   81754:	94000ebb 	bl	85240 <atoi>
   81758:	71000c1f 	cmp	w0, #0x3
   8175c:	54000180 	b.eq	8178c <test+0x8c>  // b.none
   81760:	71000c1f 	cmp	w0, #0x3
   81764:	5400018c 	b.gt	81794 <test+0x94>
   81768:	7100041f 	cmp	w0, #0x1
   8176c:	54000080 	b.eq	8177c <test+0x7c>  // b.none
   81770:	7100081f 	cmp	w0, #0x2
   81774:	54000080 	b.eq	81784 <test+0x84>  // b.none
   81778:	14000007 	b	81794 <test+0x94>
   8177c:	94000c92 	bl	849c4 <uart_async_test>
   81780:	14000005 	b	81794 <test+0x94>
   81784:	94001211 	bl	85fc8 <thread_test>
   81788:	14000003 	b	81794 <test+0x94>
   8178c:	94001088 	bl	859ac <sys_fork_test>
   81790:	d503201f 	nop
   81794:	52800000 	mov	w0, #0x0                   	// #0
   81798:	a8d27bfd 	ldp	x29, x30, [sp], #288
   8179c:	d65f03c0 	ret

00000000000817a0 <swap32>:
   817a0:	d10043ff 	sub	sp, sp, #0x10
   817a4:	b9000fe0 	str	w0, [sp, #12]
   817a8:	b9400fe0 	ldr	w0, [sp, #12]
   817ac:	53187c01 	lsr	w1, w0, #24
   817b0:	b9400fe0 	ldr	w0, [sp, #12]
   817b4:	53087c00 	lsr	w0, w0, #8
   817b8:	12181c00 	and	w0, w0, #0xff00
   817bc:	2a000021 	orr	w1, w1, w0
   817c0:	b9400fe0 	ldr	w0, [sp, #12]
   817c4:	53185c00 	lsl	w0, w0, #8
   817c8:	12101c00 	and	w0, w0, #0xff0000
   817cc:	2a000021 	orr	w1, w1, w0
   817d0:	b9400fe0 	ldr	w0, [sp, #12]
   817d4:	53081c00 	lsl	w0, w0, #24
   817d8:	2a000020 	orr	w0, w1, w0
   817dc:	910043ff 	add	sp, sp, #0x10
   817e0:	d65f03c0 	ret

00000000000817e4 <fdt_header_b2l>:
   817e4:	a9be7bfd 	stp	x29, x30, [sp, #-32]!
   817e8:	910003fd 	mov	x29, sp
   817ec:	f9000fe0 	str	x0, [sp, #24]
   817f0:	f9400fe0 	ldr	x0, [sp, #24]
   817f4:	b9400001 	ldr	w1, [x0]
   817f8:	529fdda0 	mov	w0, #0xfeed                	// #65261
   817fc:	72ba01a0 	movk	w0, #0xd00d, lsl #16
   81800:	6b00003f 	cmp	w1, w0
   81804:	540007c0 	b.eq	818fc <fdt_header_b2l+0x118>  // b.none
   81808:	f9400fe0 	ldr	x0, [sp, #24]
   8180c:	b9400000 	ldr	w0, [x0]
   81810:	97ffffe4 	bl	817a0 <swap32>
   81814:	2a0003e1 	mov	w1, w0
   81818:	f9400fe0 	ldr	x0, [sp, #24]
   8181c:	b9000001 	str	w1, [x0]
   81820:	f9400fe0 	ldr	x0, [sp, #24]
   81824:	b9400400 	ldr	w0, [x0, #4]
   81828:	97ffffde 	bl	817a0 <swap32>
   8182c:	2a0003e1 	mov	w1, w0
   81830:	f9400fe0 	ldr	x0, [sp, #24]
   81834:	b9000401 	str	w1, [x0, #4]
   81838:	f9400fe0 	ldr	x0, [sp, #24]
   8183c:	b9400800 	ldr	w0, [x0, #8]
   81840:	97ffffd8 	bl	817a0 <swap32>
   81844:	2a0003e1 	mov	w1, w0
   81848:	f9400fe0 	ldr	x0, [sp, #24]
   8184c:	b9000801 	str	w1, [x0, #8]
   81850:	f9400fe0 	ldr	x0, [sp, #24]
   81854:	b9400c00 	ldr	w0, [x0, #12]
   81858:	97ffffd2 	bl	817a0 <swap32>
   8185c:	2a0003e1 	mov	w1, w0
   81860:	f9400fe0 	ldr	x0, [sp, #24]
   81864:	b9000c01 	str	w1, [x0, #12]
   81868:	f9400fe0 	ldr	x0, [sp, #24]
   8186c:	b9401000 	ldr	w0, [x0, #16]
   81870:	97ffffcc 	bl	817a0 <swap32>
   81874:	2a0003e1 	mov	w1, w0
   81878:	f9400fe0 	ldr	x0, [sp, #24]
   8187c:	b9001001 	str	w1, [x0, #16]
   81880:	f9400fe0 	ldr	x0, [sp, #24]
   81884:	b9401400 	ldr	w0, [x0, #20]
   81888:	97ffffc6 	bl	817a0 <swap32>
   8188c:	2a0003e1 	mov	w1, w0
   81890:	f9400fe0 	ldr	x0, [sp, #24]
   81894:	b9001401 	str	w1, [x0, #20]
   81898:	f9400fe0 	ldr	x0, [sp, #24]
   8189c:	b9401800 	ldr	w0, [x0, #24]
   818a0:	97ffffc0 	bl	817a0 <swap32>
   818a4:	2a0003e1 	mov	w1, w0
   818a8:	f9400fe0 	ldr	x0, [sp, #24]
   818ac:	b9001801 	str	w1, [x0, #24]
   818b0:	f9400fe0 	ldr	x0, [sp, #24]
   818b4:	b9401c00 	ldr	w0, [x0, #28]
   818b8:	97ffffba 	bl	817a0 <swap32>
   818bc:	2a0003e1 	mov	w1, w0
   818c0:	f9400fe0 	ldr	x0, [sp, #24]
   818c4:	b9001c01 	str	w1, [x0, #28]
   818c8:	f9400fe0 	ldr	x0, [sp, #24]
   818cc:	b9402000 	ldr	w0, [x0, #32]
   818d0:	97ffffb4 	bl	817a0 <swap32>
   818d4:	2a0003e1 	mov	w1, w0
   818d8:	f9400fe0 	ldr	x0, [sp, #24]
   818dc:	b9002001 	str	w1, [x0, #32]
   818e0:	f9400fe0 	ldr	x0, [sp, #24]
   818e4:	b9402400 	ldr	w0, [x0, #36]
   818e8:	97ffffae 	bl	817a0 <swap32>
   818ec:	2a0003e1 	mov	w1, w0
   818f0:	f9400fe0 	ldr	x0, [sp, #24]
   818f4:	b9002401 	str	w1, [x0, #36]
   818f8:	14000002 	b	81900 <fdt_header_b2l+0x11c>
   818fc:	d503201f 	nop
   81900:	a8c27bfd 	ldp	x29, x30, [sp], #32
   81904:	d65f03c0 	ret

0000000000081908 <parse_dtb>:
   81908:	a9b87bfd 	stp	x29, x30, [sp, #-128]!
   8190c:	910003fd 	mov	x29, sp
   81910:	f9000fe0 	str	x0, [sp, #24]
   81914:	d0000020 	adrp	x0, 87000 <set_exception_vector_table>
   81918:	91152000 	add	x0, x0, #0x548
   8191c:	94000a8a 	bl	84344 <uart_sends>
   81920:	f9400fe0 	ldr	x0, [sp, #24]
   81924:	f9002fe0 	str	x0, [sp, #88]
   81928:	f9402fe0 	ldr	x0, [sp, #88]
   8192c:	97ffffae 	bl	817e4 <fdt_header_b2l>
   81930:	f9402fe0 	ldr	x0, [sp, #88]
   81934:	b9400800 	ldr	w0, [x0, #8]
   81938:	2a0003e1 	mov	w1, w0
   8193c:	f9402fe0 	ldr	x0, [sp, #88]
   81940:	8b000020 	add	x0, x1, x0
   81944:	f9003fe0 	str	x0, [sp, #120]
   81948:	f9402fe0 	ldr	x0, [sp, #88]
   8194c:	b9400c00 	ldr	w0, [x0, #12]
   81950:	2a0003e1 	mov	w1, w0
   81954:	f9402fe0 	ldr	x0, [sp, #88]
   81958:	8b000020 	add	x0, x1, x0
   8195c:	f9002be0 	str	x0, [sp, #80]
   81960:	f9402fe0 	ldr	x0, [sp, #88]
   81964:	b9400800 	ldr	w0, [x0, #8]
   81968:	2a0003e1 	mov	w1, w0
   8196c:	f9402fe0 	ldr	x0, [sp, #88]
   81970:	8b000021 	add	x1, x1, x0
   81974:	f9402fe0 	ldr	x0, [sp, #88]
   81978:	b9402400 	ldr	w0, [x0, #36]
   8197c:	2a0003e0 	mov	w0, w0
   81980:	8b000020 	add	x0, x1, x0
   81984:	f90027e0 	str	x0, [sp, #72]
   81988:	f9403fe0 	ldr	x0, [sp, #120]
   8198c:	f9003be0 	str	x0, [sp, #112]
   81990:	b90047ff 	str	wzr, [sp, #68]
   81994:	14000099 	b	81bf8 <parse_dtb+0x2f0>
   81998:	f9403be0 	ldr	x0, [sp, #112]
   8199c:	b9400000 	ldr	w0, [x0]
   819a0:	97ffff80 	bl	817a0 <swap32>
   819a4:	7100101f 	cmp	w0, #0x4
   819a8:	540011c0 	b.eq	81be0 <parse_dtb+0x2d8>  // b.none
   819ac:	7100101f 	cmp	w0, #0x4
   819b0:	54001208 	b.hi	81bf0 <parse_dtb+0x2e8>  // b.pmore
   819b4:	71000c1f 	cmp	w0, #0x3
   819b8:	54000680 	b.eq	81a88 <parse_dtb+0x180>  // b.none
   819bc:	71000c1f 	cmp	w0, #0x3
   819c0:	54001188 	b.hi	81bf0 <parse_dtb+0x2e8>  // b.pmore
   819c4:	7100041f 	cmp	w0, #0x1
   819c8:	54000080 	b.eq	819d8 <parse_dtb+0xd0>  // b.none
   819cc:	7100081f 	cmp	w0, #0x2
   819d0:	540004e0 	b.eq	81a6c <parse_dtb+0x164>  // b.none
   819d4:	14000087 	b	81bf0 <parse_dtb+0x2e8>
   819d8:	d0000020 	adrp	x0, 87000 <set_exception_vector_table>
   819dc:	91156000 	add	x0, x0, #0x558
   819e0:	94000a59 	bl	84344 <uart_sends>
   819e4:	f9403fe0 	ldr	x0, [sp, #120]
   819e8:	91001000 	add	x0, x0, #0x4
   819ec:	f9003fe0 	str	x0, [sp, #120]
   819f0:	f9403fe0 	ldr	x0, [sp, #120]
   819f4:	94000a54 	bl	84344 <uart_sends>
   819f8:	52800140 	mov	w0, #0xa                   	// #10
   819fc:	94000a69 	bl	843a0 <uart_sendc>
   81a00:	b90047ff 	str	wzr, [sp, #68]
   81a04:	f9403fe0 	ldr	x0, [sp, #120]
   81a08:	94000c9f 	bl	84c84 <strlen>
   81a0c:	b90037e0 	str	w0, [sp, #52]
   81a10:	b94037e0 	ldr	w0, [sp, #52]
   81a14:	11000400 	add	w0, w0, #0x1
   81a18:	b90037e0 	str	w0, [sp, #52]
   81a1c:	b94037e0 	ldr	w0, [sp, #52]
   81a20:	6b0003e1 	negs	w1, w0
   81a24:	12000400 	and	w0, w0, #0x3
   81a28:	12000421 	and	w1, w1, #0x3
   81a2c:	5a814400 	csneg	w0, w0, w1, mi  // mi = first
   81a30:	52800081 	mov	w1, #0x4                   	// #4
   81a34:	4b000020 	sub	w0, w1, w0
   81a38:	6b0003e1 	negs	w1, w0
   81a3c:	12000400 	and	w0, w0, #0x3
   81a40:	12000421 	and	w1, w1, #0x3
   81a44:	5a814400 	csneg	w0, w0, w1, mi  // mi = first
   81a48:	b90047e0 	str	w0, [sp, #68]
   81a4c:	b94037e1 	ldr	w1, [sp, #52]
   81a50:	b94047e0 	ldr	w0, [sp, #68]
   81a54:	0b000020 	add	w0, w1, w0
   81a58:	93407c00 	sxtw	x0, w0
   81a5c:	f9403fe1 	ldr	x1, [sp, #120]
   81a60:	8b000020 	add	x0, x1, x0
   81a64:	f9003fe0 	str	x0, [sp, #120]
   81a68:	14000062 	b	81bf0 <parse_dtb+0x2e8>
   81a6c:	d0000020 	adrp	x0, 87000 <set_exception_vector_table>
   81a70:	9115a000 	add	x0, x0, #0x568
   81a74:	94000a34 	bl	84344 <uart_sends>
   81a78:	f9403fe0 	ldr	x0, [sp, #120]
   81a7c:	91001000 	add	x0, x0, #0x4
   81a80:	f9003fe0 	str	x0, [sp, #120]
   81a84:	1400005b 	b	81bf0 <parse_dtb+0x2e8>
   81a88:	f9403fe0 	ldr	x0, [sp, #120]
   81a8c:	91001000 	add	x0, x0, #0x4
   81a90:	f9003fe0 	str	x0, [sp, #120]
   81a94:	f9403fe0 	ldr	x0, [sp, #120]
   81a98:	f9001fe0 	str	x0, [sp, #56]
   81a9c:	f9401fe0 	ldr	x0, [sp, #56]
   81aa0:	b9400000 	ldr	w0, [x0]
   81aa4:	97ffff3f 	bl	817a0 <swap32>
   81aa8:	b9002be0 	str	w0, [sp, #40]
   81aac:	f9401fe0 	ldr	x0, [sp, #56]
   81ab0:	b9400400 	ldr	w0, [x0, #4]
   81ab4:	97ffff3b 	bl	817a0 <swap32>
   81ab8:	b9002fe0 	str	w0, [sp, #44]
   81abc:	d0000020 	adrp	x0, 87000 <set_exception_vector_table>
   81ac0:	9115e000 	add	x0, x0, #0x578
   81ac4:	94000a20 	bl	84344 <uart_sends>
   81ac8:	b9402fe0 	ldr	w0, [sp, #44]
   81acc:	2a0003e0 	mov	w0, w0
   81ad0:	f9402be1 	ldr	x1, [sp, #80]
   81ad4:	8b000020 	add	x0, x1, x0
   81ad8:	94000a1b 	bl	84344 <uart_sends>
   81adc:	b9402fe0 	ldr	w0, [sp, #44]
   81ae0:	2a0003e0 	mov	w0, w0
   81ae4:	f9402be1 	ldr	x1, [sp, #80]
   81ae8:	8b000023 	add	x3, x1, x0
   81aec:	52800082 	mov	w2, #0x4                   	// #4
   81af0:	d0000020 	adrp	x0, 87000 <set_exception_vector_table>
   81af4:	91162001 	add	x1, x0, #0x588
   81af8:	aa0303e0 	mov	x0, x3
   81afc:	94000d11 	bl	84f40 <memcmp>
   81b00:	7100001f 	cmp	w0, #0x0
   81b04:	540001e1 	b.ne	81b40 <parse_dtb+0x238>  // b.any
   81b08:	d0000020 	adrp	x0, 87000 <set_exception_vector_table>
   81b0c:	91164000 	add	x0, x0, #0x590
   81b10:	94000a0d 	bl	84344 <uart_sends>
   81b14:	f90037ff 	str	xzr, [sp, #104]
   81b18:	14000004 	b	81b28 <parse_dtb+0x220>
   81b1c:	f94037e0 	ldr	x0, [sp, #104]
   81b20:	91000400 	add	x0, x0, #0x1
   81b24:	f90037e0 	str	x0, [sp, #104]
   81b28:	f94037e1 	ldr	x1, [sp, #104]
   81b2c:	d29c7fe0 	mov	x0, #0xe3ff                	// #58367
   81b30:	f2aa8160 	movk	x0, #0x540b, lsl #16
   81b34:	f2c00040 	movk	x0, #0x2, lsl #32
   81b38:	eb00003f 	cmp	x1, x0
   81b3c:	54ffff0d 	b.le	81b1c <parse_dtb+0x214>
   81b40:	52800140 	mov	w0, #0xa                   	// #10
   81b44:	94000a17 	bl	843a0 <uart_sendc>
   81b48:	f9403fe0 	ldr	x0, [sp, #120]
   81b4c:	91002000 	add	x0, x0, #0x8
   81b50:	f9003fe0 	str	x0, [sp, #120]
   81b54:	d0000020 	adrp	x0, 87000 <set_exception_vector_table>
   81b58:	91168000 	add	x0, x0, #0x5a0
   81b5c:	940009fa 	bl	84344 <uart_sends>
   81b60:	b9402be0 	ldr	w0, [sp, #40]
   81b64:	7100001f 	cmp	w0, #0x0
   81b68:	540000a1 	b.ne	81b7c <parse_dtb+0x274>  // b.any
   81b6c:	d0000020 	adrp	x0, 87000 <set_exception_vector_table>
   81b70:	9116e000 	add	x0, x0, #0x5b8
   81b74:	940009f4 	bl	84344 <uart_sends>
   81b78:	1400001e 	b	81bf0 <parse_dtb+0x2e8>
   81b7c:	b90067ff 	str	wzr, [sp, #100]
   81b80:	14000009 	b	81ba4 <parse_dtb+0x29c>
   81b84:	f9403fe0 	ldr	x0, [sp, #120]
   81b88:	91000401 	add	x1, x0, #0x1
   81b8c:	f9003fe1 	str	x1, [sp, #120]
   81b90:	39400000 	ldrb	w0, [x0]
   81b94:	94000a03 	bl	843a0 <uart_sendc>
   81b98:	b94067e0 	ldr	w0, [sp, #100]
   81b9c:	11000400 	add	w0, w0, #0x1
   81ba0:	b90067e0 	str	w0, [sp, #100]
   81ba4:	b9402be1 	ldr	w1, [sp, #40]
   81ba8:	b94067e0 	ldr	w0, [sp, #100]
   81bac:	6b00003f 	cmp	w1, w0
   81bb0:	54fffea8 	b.hi	81b84 <parse_dtb+0x27c>  // b.pmore
   81bb4:	52800140 	mov	w0, #0xa                   	// #10
   81bb8:	940009fa 	bl	843a0 <uart_sendc>
   81bbc:	b9402be0 	ldr	w0, [sp, #40]
   81bc0:	4b0003e0 	neg	w0, w0
   81bc4:	12000400 	and	w0, w0, #0x3
   81bc8:	b90047e0 	str	w0, [sp, #68]
   81bcc:	b98047e0 	ldrsw	x0, [sp, #68]
   81bd0:	f9403fe1 	ldr	x1, [sp, #120]
   81bd4:	8b000020 	add	x0, x1, x0
   81bd8:	f9003fe0 	str	x0, [sp, #120]
   81bdc:	14000005 	b	81bf0 <parse_dtb+0x2e8>
   81be0:	f9403fe0 	ldr	x0, [sp, #120]
   81be4:	91001000 	add	x0, x0, #0x4
   81be8:	f9003fe0 	str	x0, [sp, #120]
   81bec:	d503201f 	nop
   81bf0:	f9403fe0 	ldr	x0, [sp, #120]
   81bf4:	f9003be0 	str	x0, [sp, #112]
   81bf8:	f9403be0 	ldr	x0, [sp, #112]
   81bfc:	b9400000 	ldr	w0, [x0]
   81c00:	97fffee8 	bl	817a0 <swap32>
   81c04:	7100241f 	cmp	w0, #0x9
   81c08:	54ffec81 	b.ne	81998 <parse_dtb+0x90>  // b.any
   81c0c:	f9403fe1 	ldr	x1, [sp, #120]
   81c10:	f94027e0 	ldr	x0, [sp, #72]
   81c14:	eb00003f 	cmp	x1, x0
   81c18:	540000a1 	b.ne	81c2c <parse_dtb+0x324>  // b.any
   81c1c:	d0000020 	adrp	x0, 87000 <set_exception_vector_table>
   81c20:	91170000 	add	x0, x0, #0x5c0
   81c24:	940009c8 	bl	84344 <uart_sends>
   81c28:	14000004 	b	81c38 <parse_dtb+0x330>
   81c2c:	d0000020 	adrp	x0, 87000 <set_exception_vector_table>
   81c30:	91172000 	add	x0, x0, #0x5c8
   81c34:	940009c4 	bl	84344 <uart_sends>
   81c38:	d503201f 	nop
   81c3c:	a8c87bfd 	ldp	x29, x30, [sp], #128
   81c40:	d65f03c0 	ret

0000000000081c44 <fdt_traverse>:
   81c44:	a9ba7bfd 	stp	x29, x30, [sp, #-96]!
   81c48:	910003fd 	mov	x29, sp
   81c4c:	f9000fe0 	str	x0, [sp, #24]
   81c50:	f9000be1 	str	x1, [sp, #16]
   81c54:	f9400fe0 	ldr	x0, [sp, #24]
   81c58:	f90027e0 	str	x0, [sp, #72]
   81c5c:	f94027e0 	ldr	x0, [sp, #72]
   81c60:	97fffee1 	bl	817e4 <fdt_header_b2l>
   81c64:	f94027e0 	ldr	x0, [sp, #72]
   81c68:	b9400800 	ldr	w0, [x0, #8]
   81c6c:	2a0003e1 	mov	w1, w0
   81c70:	f94027e0 	ldr	x0, [sp, #72]
   81c74:	8b000020 	add	x0, x1, x0
   81c78:	f9002fe0 	str	x0, [sp, #88]
   81c7c:	f94027e0 	ldr	x0, [sp, #72]
   81c80:	b9400c00 	ldr	w0, [x0, #12]
   81c84:	2a0003e1 	mov	w1, w0
   81c88:	f94027e0 	ldr	x0, [sp, #72]
   81c8c:	8b000020 	add	x0, x1, x0
   81c90:	f90023e0 	str	x0, [sp, #64]
   81c94:	f94027e0 	ldr	x0, [sp, #72]
   81c98:	b9400800 	ldr	w0, [x0, #8]
   81c9c:	2a0003e1 	mov	w1, w0
   81ca0:	f94027e0 	ldr	x0, [sp, #72]
   81ca4:	8b000021 	add	x1, x1, x0
   81ca8:	f94027e0 	ldr	x0, [sp, #72]
   81cac:	b9402400 	ldr	w0, [x0, #36]
   81cb0:	2a0003e0 	mov	w0, w0
   81cb4:	8b000020 	add	x0, x1, x0
   81cb8:	aa0003e1 	mov	x1, x0
   81cbc:	f0000020 	adrp	x0, 88000 <get_current+0xce8>
   81cc0:	912aa000 	add	x0, x0, #0xaa8
   81cc4:	f9000001 	str	x1, [x0]
   81cc8:	f9402fe0 	ldr	x0, [sp, #88]
   81ccc:	f9002be0 	str	x0, [sp, #80]
   81cd0:	b9003fff 	str	wzr, [sp, #60]
   81cd4:	14000060 	b	81e54 <fdt_traverse+0x210>
   81cd8:	f9402be0 	ldr	x0, [sp, #80]
   81cdc:	b9400000 	ldr	w0, [x0]
   81ce0:	97fffeb0 	bl	817a0 <swap32>
   81ce4:	7100101f 	cmp	w0, #0x4
   81ce8:	54000a80 	b.eq	81e38 <fdt_traverse+0x1f4>  // b.none
   81cec:	7100101f 	cmp	w0, #0x4
   81cf0:	54000ae8 	b.hi	81e4c <fdt_traverse+0x208>  // b.pmore
   81cf4:	71000c1f 	cmp	w0, #0x3
   81cf8:	54000520 	b.eq	81d9c <fdt_traverse+0x158>  // b.none
   81cfc:	71000c1f 	cmp	w0, #0x3
   81d00:	54000a68 	b.hi	81e4c <fdt_traverse+0x208>  // b.pmore
   81d04:	7100041f 	cmp	w0, #0x1
   81d08:	54000080 	b.eq	81d18 <fdt_traverse+0xd4>  // b.none
   81d0c:	7100081f 	cmp	w0, #0x2
   81d10:	540003e0 	b.eq	81d8c <fdt_traverse+0x148>  // b.none
   81d14:	1400004e 	b	81e4c <fdt_traverse+0x208>
   81d18:	f9402fe0 	ldr	x0, [sp, #88]
   81d1c:	91001000 	add	x0, x0, #0x4
   81d20:	f9002fe0 	str	x0, [sp, #88]
   81d24:	f9402fe0 	ldr	x0, [sp, #88]
   81d28:	94000bd7 	bl	84c84 <strlen>
   81d2c:	b9002fe0 	str	w0, [sp, #44]
   81d30:	b9402fe0 	ldr	w0, [sp, #44]
   81d34:	11000400 	add	w0, w0, #0x1
   81d38:	b9002fe0 	str	w0, [sp, #44]
   81d3c:	b9402fe0 	ldr	w0, [sp, #44]
   81d40:	6b0003e1 	negs	w1, w0
   81d44:	12000400 	and	w0, w0, #0x3
   81d48:	12000421 	and	w1, w1, #0x3
   81d4c:	5a814400 	csneg	w0, w0, w1, mi  // mi = first
   81d50:	52800081 	mov	w1, #0x4                   	// #4
   81d54:	4b000020 	sub	w0, w1, w0
   81d58:	6b0003e1 	negs	w1, w0
   81d5c:	12000400 	and	w0, w0, #0x3
   81d60:	12000421 	and	w1, w1, #0x3
   81d64:	5a814400 	csneg	w0, w0, w1, mi  // mi = first
   81d68:	b9003fe0 	str	w0, [sp, #60]
   81d6c:	b9402fe1 	ldr	w1, [sp, #44]
   81d70:	b9403fe0 	ldr	w0, [sp, #60]
   81d74:	0b000020 	add	w0, w1, w0
   81d78:	93407c00 	sxtw	x0, w0
   81d7c:	f9402fe1 	ldr	x1, [sp, #88]
   81d80:	8b000020 	add	x0, x1, x0
   81d84:	f9002fe0 	str	x0, [sp, #88]
   81d88:	14000031 	b	81e4c <fdt_traverse+0x208>
   81d8c:	f9402fe0 	ldr	x0, [sp, #88]
   81d90:	91001000 	add	x0, x0, #0x4
   81d94:	f9002fe0 	str	x0, [sp, #88]
   81d98:	1400002d 	b	81e4c <fdt_traverse+0x208>
   81d9c:	f9402fe0 	ldr	x0, [sp, #88]
   81da0:	91001000 	add	x0, x0, #0x4
   81da4:	f9002fe0 	str	x0, [sp, #88]
   81da8:	f9402fe0 	ldr	x0, [sp, #88]
   81dac:	f9001be0 	str	x0, [sp, #48]
   81db0:	f9401be0 	ldr	x0, [sp, #48]
   81db4:	b9400000 	ldr	w0, [x0]
   81db8:	97fffe7a 	bl	817a0 <swap32>
   81dbc:	b90023e0 	str	w0, [sp, #32]
   81dc0:	f9401be0 	ldr	x0, [sp, #48]
   81dc4:	b9400400 	ldr	w0, [x0, #4]
   81dc8:	97fffe76 	bl	817a0 <swap32>
   81dcc:	b90027e0 	str	w0, [sp, #36]
   81dd0:	f9402fe0 	ldr	x0, [sp, #88]
   81dd4:	91002000 	add	x0, x0, #0x8
   81dd8:	f9002fe0 	str	x0, [sp, #88]
   81ddc:	b94027e0 	ldr	w0, [sp, #36]
   81de0:	2a0003e0 	mov	w0, w0
   81de4:	f94023e1 	ldr	x1, [sp, #64]
   81de8:	8b000020 	add	x0, x1, x0
   81dec:	f9400be2 	ldr	x2, [sp, #16]
   81df0:	aa0003e1 	mov	x1, x0
   81df4:	f9402fe0 	ldr	x0, [sp, #88]
   81df8:	d63f0040 	blr	x2
   81dfc:	b94023e0 	ldr	w0, [sp, #32]
   81e00:	7100001f 	cmp	w0, #0x0
   81e04:	54000220 	b.eq	81e48 <fdt_traverse+0x204>  // b.none
   81e08:	b94023e0 	ldr	w0, [sp, #32]
   81e0c:	4b0003e0 	neg	w0, w0
   81e10:	12000400 	and	w0, w0, #0x3
   81e14:	b9003fe0 	str	w0, [sp, #60]
   81e18:	b94023e1 	ldr	w1, [sp, #32]
   81e1c:	b9403fe0 	ldr	w0, [sp, #60]
   81e20:	0b000020 	add	w0, w1, w0
   81e24:	2a0003e0 	mov	w0, w0
   81e28:	f9402fe1 	ldr	x1, [sp, #88]
   81e2c:	8b000020 	add	x0, x1, x0
   81e30:	f9002fe0 	str	x0, [sp, #88]
   81e34:	14000006 	b	81e4c <fdt_traverse+0x208>
   81e38:	f9402fe0 	ldr	x0, [sp, #88]
   81e3c:	91001000 	add	x0, x0, #0x4
   81e40:	f9002fe0 	str	x0, [sp, #88]
   81e44:	14000002 	b	81e4c <fdt_traverse+0x208>
   81e48:	d503201f 	nop
   81e4c:	f9402fe0 	ldr	x0, [sp, #88]
   81e50:	f9002be0 	str	x0, [sp, #80]
   81e54:	f9402be0 	ldr	x0, [sp, #80]
   81e58:	b9400000 	ldr	w0, [x0]
   81e5c:	97fffe51 	bl	817a0 <swap32>
   81e60:	7100241f 	cmp	w0, #0x9
   81e64:	54fff3a1 	b.ne	81cd8 <fdt_traverse+0x94>  // b.any
   81e68:	d503201f 	nop
   81e6c:	d503201f 	nop
   81e70:	a8c67bfd 	ldp	x29, x30, [sp], #96
   81e74:	d65f03c0 	ret

0000000000081e78 <get_dtb_end>:
   81e78:	f0000020 	adrp	x0, 88000 <get_current+0xce8>
   81e7c:	912aa000 	add	x0, x0, #0xaa8
   81e80:	f9400000 	ldr	x0, [x0]
   81e84:	d65f03c0 	ret

0000000000081e88 <exception_entry>:
   81e88:	a9bd7bfd 	stp	x29, x30, [sp, #-48]!
   81e8c:	910003fd 	mov	x29, sp
   81e90:	d0000020 	adrp	x0, 87000 <set_exception_vector_table>
   81e94:	91174000 	add	x0, x0, #0x5d0
   81e98:	9400092b 	bl	84344 <uart_sends>
   81e9c:	d5384002 	mrs	x2, spsr_el1
   81ea0:	d5384021 	mrs	x1, elr_el1
   81ea4:	d5385200 	mrs	x0, esr_el1
   81ea8:	f90017e2 	str	x2, [sp, #40]
   81eac:	f90013e1 	str	x1, [sp, #32]
   81eb0:	f9000fe0 	str	x0, [sp, #24]
   81eb4:	d0000020 	adrp	x0, 87000 <set_exception_vector_table>
   81eb8:	9117a000 	add	x0, x0, #0x5e8
   81ebc:	94000922 	bl	84344 <uart_sends>
   81ec0:	f94017e0 	ldr	x0, [sp, #40]
   81ec4:	94000944 	bl	843d4 <uart_sendh>
   81ec8:	52800140 	mov	w0, #0xa                   	// #10
   81ecc:	94000935 	bl	843a0 <uart_sendc>
   81ed0:	d0000020 	adrp	x0, 87000 <set_exception_vector_table>
   81ed4:	9117e000 	add	x0, x0, #0x5f8
   81ed8:	9400091b 	bl	84344 <uart_sends>
   81edc:	f94013e0 	ldr	x0, [sp, #32]
   81ee0:	9400093d 	bl	843d4 <uart_sendh>
   81ee4:	52800140 	mov	w0, #0xa                   	// #10
   81ee8:	9400092e 	bl	843a0 <uart_sendc>
   81eec:	d0000020 	adrp	x0, 87000 <set_exception_vector_table>
   81ef0:	91182000 	add	x0, x0, #0x608
   81ef4:	94000914 	bl	84344 <uart_sends>
   81ef8:	f9400fe0 	ldr	x0, [sp, #24]
   81efc:	94000936 	bl	843d4 <uart_sendh>
   81f00:	52800140 	mov	w0, #0xa                   	// #10
   81f04:	94000927 	bl	843a0 <uart_sendc>
   81f08:	52800000 	mov	w0, #0x0                   	// #0
   81f0c:	a8c37bfd 	ldp	x29, x30, [sp], #48
   81f10:	d65f03c0 	ret

0000000000081f14 <lower_exception_entry>:
   81f14:	a9be7bfd 	stp	x29, x30, [sp, #-32]!
   81f18:	910003fd 	mov	x29, sp
   81f1c:	f9000fe0 	str	x0, [sp, #24]
   81f20:	f9400fe0 	ldr	x0, [sp, #24]
   81f24:	f9402000 	ldr	x0, [x0, #64]
   81f28:	f100201f 	cmp	x0, #0x8
   81f2c:	54000c40 	b.eq	820b4 <lower_exception_entry+0x1a0>  // b.none
   81f30:	f100201f 	cmp	x0, #0x8
   81f34:	54000b88 	b.hi	820a4 <lower_exception_entry+0x190>  // b.pmore
   81f38:	f1001c1f 	cmp	x0, #0x7
   81f3c:	54000ac0 	b.eq	82094 <lower_exception_entry+0x180>  // b.none
   81f40:	f1001c1f 	cmp	x0, #0x7
   81f44:	54000b08 	b.hi	820a4 <lower_exception_entry+0x190>  // b.pmore
   81f48:	f100181f 	cmp	x0, #0x6
   81f4c:	540008c0 	b.eq	82064 <lower_exception_entry+0x150>  // b.none
   81f50:	f100181f 	cmp	x0, #0x6
   81f54:	54000a88 	b.hi	820a4 <lower_exception_entry+0x190>  // b.pmore
   81f58:	f100141f 	cmp	x0, #0x5
   81f5c:	54000800 	b.eq	8205c <lower_exception_entry+0x148>  // b.none
   81f60:	f100141f 	cmp	x0, #0x5
   81f64:	54000a08 	b.hi	820a4 <lower_exception_entry+0x190>  // b.pmore
   81f68:	f100101f 	cmp	x0, #0x4
   81f6c:	54000720 	b.eq	82050 <lower_exception_entry+0x13c>  // b.none
   81f70:	f100101f 	cmp	x0, #0x4
   81f74:	54000988 	b.hi	820a4 <lower_exception_entry+0x190>  // b.pmore
   81f78:	f1000c1f 	cmp	x0, #0x3
   81f7c:	54000520 	b.eq	82020 <lower_exception_entry+0x10c>  // b.none
   81f80:	f1000c1f 	cmp	x0, #0x3
   81f84:	54000908 	b.hi	820a4 <lower_exception_entry+0x190>  // b.pmore
   81f88:	f100081f 	cmp	x0, #0x2
   81f8c:	54000320 	b.eq	81ff0 <lower_exception_entry+0xdc>  // b.none
   81f90:	f100081f 	cmp	x0, #0x2
   81f94:	54000888 	b.hi	820a4 <lower_exception_entry+0x190>  // b.pmore
   81f98:	f100001f 	cmp	x0, #0x0
   81f9c:	54000080 	b.eq	81fac <lower_exception_entry+0x98>  // b.none
   81fa0:	f100041f 	cmp	x0, #0x1
   81fa4:	540000e0 	b.eq	81fc0 <lower_exception_entry+0xac>  // b.none
   81fa8:	1400003f 	b	820a4 <lower_exception_entry+0x190>
   81fac:	94000cbe 	bl	852a4 <sys_getpid>
   81fb0:	93407c01 	sxtw	x1, w0
   81fb4:	f9400fe0 	ldr	x0, [sp, #24]
   81fb8:	f9000001 	str	x1, [x0]
   81fbc:	1400003f 	b	820b8 <lower_exception_entry+0x1a4>
   81fc0:	f9400fe0 	ldr	x0, [sp, #24]
   81fc4:	f9400000 	ldr	x0, [x0]
   81fc8:	aa0003e2 	mov	x2, x0
   81fcc:	f9400fe0 	ldr	x0, [sp, #24]
   81fd0:	f9400400 	ldr	x0, [x0, #8]
   81fd4:	aa0003e1 	mov	x1, x0
   81fd8:	aa0203e0 	mov	x0, x2
   81fdc:	94000cba 	bl	852c4 <sys_uartread>
   81fe0:	aa0003e1 	mov	x1, x0
   81fe4:	f9400fe0 	ldr	x0, [sp, #24]
   81fe8:	f9000001 	str	x1, [x0]
   81fec:	14000033 	b	820b8 <lower_exception_entry+0x1a4>
   81ff0:	f9400fe0 	ldr	x0, [sp, #24]
   81ff4:	f9400000 	ldr	x0, [x0]
   81ff8:	aa0003e2 	mov	x2, x0
   81ffc:	f9400fe0 	ldr	x0, [sp, #24]
   82000:	f9400400 	ldr	x0, [x0, #8]
   82004:	aa0003e1 	mov	x1, x0
   82008:	aa0203e0 	mov	x0, x2
   8200c:	94000cc6 	bl	85324 <sys_uartwrite>
   82010:	aa0003e1 	mov	x1, x0
   82014:	f9400fe0 	ldr	x0, [sp, #24]
   82018:	f9000001 	str	x1, [x0]
   8201c:	14000027 	b	820b8 <lower_exception_entry+0x1a4>
   82020:	f9400fe0 	ldr	x0, [sp, #24]
   82024:	f9400000 	ldr	x0, [x0]
   82028:	aa0003e2 	mov	x2, x0
   8202c:	f9400fe0 	ldr	x0, [sp, #24]
   82030:	f9400400 	ldr	x0, [x0, #8]
   82034:	aa0003e1 	mov	x1, x0
   82038:	aa0203e0 	mov	x0, x2
   8203c:	94000ccf 	bl	85378 <sys_exec>
   82040:	93407c01 	sxtw	x1, w0
   82044:	f9400fe0 	ldr	x0, [sp, #24]
   82048:	f9000001 	str	x1, [x0]
   8204c:	1400001b 	b	820b8 <lower_exception_entry+0x1a4>
   82050:	f9400fe0 	ldr	x0, [sp, #24]
   82054:	94000d09 	bl	85478 <sys_fork>
   82058:	14000018 	b	820b8 <lower_exception_entry+0x1a4>
   8205c:	94000d82 	bl	85664 <sys_exit>
   82060:	14000016 	b	820b8 <lower_exception_entry+0x1a4>
   82064:	f9400fe0 	ldr	x0, [sp, #24]
   82068:	f9400000 	ldr	x0, [x0]
   8206c:	12001c02 	and	w2, w0, #0xff
   82070:	f9400fe0 	ldr	x0, [sp, #24]
   82074:	f9400400 	ldr	x0, [x0, #8]
   82078:	aa0003e1 	mov	x1, x0
   8207c:	2a0203e0 	mov	w0, w2
   82080:	94000d70 	bl	85640 <sys_mbox_call>
   82084:	93407c01 	sxtw	x1, w0
   82088:	f9400fe0 	ldr	x0, [sp, #24]
   8208c:	f9000001 	str	x1, [x0]
   82090:	1400000a 	b	820b8 <lower_exception_entry+0x1a4>
   82094:	f9400fe0 	ldr	x0, [sp, #24]
   82098:	f9400000 	ldr	x0, [x0]
   8209c:	94000d79 	bl	85680 <sys_kill>
   820a0:	14000006 	b	820b8 <lower_exception_entry+0x1a4>
   820a4:	b0000020 	adrp	x0, 87000 <set_exception_vector_table>
   820a8:	91186000 	add	x0, x0, #0x618
   820ac:	940008a6 	bl	84344 <uart_sends>
   820b0:	14000002 	b	820b8 <lower_exception_entry+0x1a4>
   820b4:	d503201f 	nop
   820b8:	52800000 	mov	w0, #0x0                   	// #0
   820bc:	a8c27bfd 	ldp	x29, x30, [sp], #32
   820c0:	d65f03c0 	ret

00000000000820c4 <heap_init>:
   820c4:	d10043ff 	sub	sp, sp, #0x10
   820c8:	d0000020 	adrp	x0, 88000 <get_current+0xce8>
   820cc:	f944bc00 	ldr	x0, [x0, #2424]
   820d0:	91080000 	add	x0, x0, #0x200
   820d4:	915e8400 	add	x0, x0, #0x7a1, lsl #12
   820d8:	92402c00 	and	x0, x0, #0xfff
   820dc:	d2844001 	mov	x1, #0x2200                	// #8704
   820e0:	f2a00f41 	movk	x1, #0x7a, lsl #16
   820e4:	cb000020 	sub	x0, x1, x0
   820e8:	f90007e0 	str	x0, [sp, #8]
   820ec:	f94007e0 	ldr	x0, [sp, #8]
   820f0:	d1000401 	sub	x1, x0, #0x1
   820f4:	d0000020 	adrp	x0, 88000 <get_current+0xce8>
   820f8:	f944bc00 	ldr	x0, [x0, #2424]
   820fc:	8b000021 	add	x1, x1, x0
   82100:	d0000020 	adrp	x0, 88000 <get_current+0xce8>
   82104:	912ac000 	add	x0, x0, #0xab0
   82108:	f9000001 	str	x1, [x0]
   8210c:	d503201f 	nop
   82110:	910043ff 	add	sp, sp, #0x10
   82114:	d65f03c0 	ret

0000000000082118 <simple_malloc>:
   82118:	d10083ff 	sub	sp, sp, #0x20
   8211c:	b9000fe0 	str	w0, [sp, #12]
   82120:	d0000020 	adrp	x0, 88000 <get_current+0xce8>
   82124:	912ae000 	add	x0, x0, #0xab8
   82128:	f9400000 	ldr	x0, [x0]
   8212c:	f100001f 	cmp	x0, #0x0
   82130:	540000c1 	b.ne	82148 <simple_malloc+0x30>  // b.any
   82134:	d0000020 	adrp	x0, 88000 <get_current+0xce8>
   82138:	912ae000 	add	x0, x0, #0xab8
   8213c:	d0000021 	adrp	x1, 88000 <get_current+0xce8>
   82140:	f944bc21 	ldr	x1, [x1, #2424]
   82144:	f9000001 	str	x1, [x0]
   82148:	d0000020 	adrp	x0, 88000 <get_current+0xce8>
   8214c:	912ae000 	add	x0, x0, #0xab8
   82150:	f9400000 	ldr	x0, [x0]
   82154:	f9000fe0 	str	x0, [sp, #24]
   82158:	d0000020 	adrp	x0, 88000 <get_current+0xce8>
   8215c:	912ae000 	add	x0, x0, #0xab8
   82160:	f9400001 	ldr	x1, [x0]
   82164:	b9800fe0 	ldrsw	x0, [sp, #12]
   82168:	8b000021 	add	x1, x1, x0
   8216c:	d0000020 	adrp	x0, 88000 <get_current+0xce8>
   82170:	912ac000 	add	x0, x0, #0xab0
   82174:	f9400000 	ldr	x0, [x0]
   82178:	eb00003f 	cmp	x1, x0
   8217c:	54000069 	b.ls	82188 <simple_malloc+0x70>  // b.plast
   82180:	d2800000 	mov	x0, #0x0                   	// #0
   82184:	1400000a 	b	821ac <simple_malloc+0x94>
   82188:	d0000020 	adrp	x0, 88000 <get_current+0xce8>
   8218c:	912ae000 	add	x0, x0, #0xab8
   82190:	f9400001 	ldr	x1, [x0]
   82194:	b9800fe0 	ldrsw	x0, [sp, #12]
   82198:	8b000021 	add	x1, x1, x0
   8219c:	d0000020 	adrp	x0, 88000 <get_current+0xce8>
   821a0:	912ae000 	add	x0, x0, #0xab8
   821a4:	f9000001 	str	x1, [x0]
   821a8:	f9400fe0 	ldr	x0, [sp, #24]
   821ac:	910083ff 	add	sp, sp, #0x20
   821b0:	d65f03c0 	ret

00000000000821b4 <initrd_list>:
   821b4:	a9ac7bfd 	stp	x29, x30, [sp, #-320]!
   821b8:	910003fd 	mov	x29, sp
   821bc:	d0000020 	adrp	x0, 88000 <get_current+0xce8>
   821c0:	912b0000 	add	x0, x0, #0xac0
   821c4:	f9400000 	ldr	x0, [x0]
   821c8:	f9009fe0 	str	x0, [sp, #312]
   821cc:	14000037 	b	822a8 <initrd_list+0xf4>
   821d0:	f9409fe0 	ldr	x0, [sp, #312]
   821d4:	f90097e0 	str	x0, [sp, #296]
   821d8:	f94097e0 	ldr	x0, [sp, #296]
   821dc:	9100d800 	add	x0, x0, #0x36
   821e0:	52800101 	mov	w1, #0x8                   	// #8
   821e4:	94000b9b 	bl	85050 <hstr2int>
   821e8:	b90127e0 	str	w0, [sp, #292]
   821ec:	f94097e0 	ldr	x0, [sp, #296]
   821f0:	91017800 	add	x0, x0, #0x5e
   821f4:	52800101 	mov	w1, #0x8                   	// #8
   821f8:	94000b96 	bl	85050 <hstr2int>
   821fc:	b90123e0 	str	w0, [sp, #288]
   82200:	b94127e1 	ldr	w1, [sp, #292]
   82204:	b94123e0 	ldr	w0, [sp, #288]
   82208:	0b000020 	add	w0, w1, w0
   8220c:	2a0003e1 	mov	w1, w0
   82210:	12800da0 	mov	w0, #0xffffff92            	// #-110
   82214:	4b010000 	sub	w0, w0, w1
   82218:	12000400 	and	w0, w0, #0x3
   8221c:	b9011fe0 	str	w0, [sp, #284]
   82220:	b90137ff 	str	wzr, [sp, #308]
   82224:	1400000c 	b	82254 <initrd_list+0xa0>
   82228:	b98137e0 	ldrsw	x0, [sp, #308]
   8222c:	9101b800 	add	x0, x0, #0x6e
   82230:	f9409fe1 	ldr	x1, [sp, #312]
   82234:	8b000020 	add	x0, x1, x0
   82238:	39400002 	ldrb	w2, [x0]
   8223c:	b98137e0 	ldrsw	x0, [sp, #308]
   82240:	910063e1 	add	x1, sp, #0x18
   82244:	38206822 	strb	w2, [x1, x0]
   82248:	b94137e0 	ldr	w0, [sp, #308]
   8224c:	11000400 	add	w0, w0, #0x1
   82250:	b90137e0 	str	w0, [sp, #308]
   82254:	b94137e1 	ldr	w1, [sp, #308]
   82258:	b94123e0 	ldr	w0, [sp, #288]
   8225c:	6b00003f 	cmp	w1, w0
   82260:	54fffe4b 	b.lt	82228 <initrd_list+0x74>  // b.tstop
   82264:	b98123e0 	ldrsw	x0, [sp, #288]
   82268:	910063e1 	add	x1, sp, #0x18
   8226c:	3820683f 	strb	wzr, [x1, x0]
   82270:	910063e0 	add	x0, sp, #0x18
   82274:	94000834 	bl	84344 <uart_sends>
   82278:	52800140 	mov	w0, #0xa                   	// #10
   8227c:	94000849 	bl	843a0 <uart_sendc>
   82280:	b94127e1 	ldr	w1, [sp, #292]
   82284:	b94123e0 	ldr	w0, [sp, #288]
   82288:	0b000020 	add	w0, w1, w0
   8228c:	93407c01 	sxtw	x1, w0
   82290:	b9811fe0 	ldrsw	x0, [sp, #284]
   82294:	8b000020 	add	x0, x1, x0
   82298:	9101b800 	add	x0, x0, #0x6e
   8229c:	f9409fe1 	ldr	x1, [sp, #312]
   822a0:	8b000020 	add	x0, x1, x0
   822a4:	f9009fe0 	str	x0, [sp, #312]
   822a8:	528000c2 	mov	w2, #0x6                   	// #6
   822ac:	b0000020 	adrp	x0, 87000 <set_exception_vector_table>
   822b0:	9118c001 	add	x1, x0, #0x630
   822b4:	f9409fe0 	ldr	x0, [sp, #312]
   822b8:	94000b22 	bl	84f40 <memcmp>
   822bc:	7100001f 	cmp	w0, #0x0
   822c0:	54000141 	b.ne	822e8 <initrd_list+0x134>  // b.any
   822c4:	f9409fe0 	ldr	x0, [sp, #312]
   822c8:	9101b803 	add	x3, x0, #0x6e
   822cc:	52800142 	mov	w2, #0xa                   	// #10
   822d0:	b0000020 	adrp	x0, 87000 <set_exception_vector_table>
   822d4:	9118e001 	add	x1, x0, #0x638
   822d8:	aa0303e0 	mov	x0, x3
   822dc:	94000b19 	bl	84f40 <memcmp>
   822e0:	7100001f 	cmp	w0, #0x0
   822e4:	54fff761 	b.ne	821d0 <initrd_list+0x1c>  // b.any
   822e8:	d503201f 	nop
   822ec:	a8d47bfd 	ldp	x29, x30, [sp], #320
   822f0:	d65f03c0 	ret

00000000000822f4 <initrd_cat>:
   822f4:	a9bb7bfd 	stp	x29, x30, [sp, #-80]!
   822f8:	910003fd 	mov	x29, sp
   822fc:	f9000fe0 	str	x0, [sp, #24]
   82300:	d0000020 	adrp	x0, 88000 <get_current+0xce8>
   82304:	912b0000 	add	x0, x0, #0xac0
   82308:	f9400000 	ldr	x0, [x0]
   8230c:	f90027e0 	str	x0, [sp, #72]
   82310:	14000047 	b	8242c <initrd_cat+0x138>
   82314:	f94027e0 	ldr	x0, [sp, #72]
   82318:	f9001fe0 	str	x0, [sp, #56]
   8231c:	f9401fe0 	ldr	x0, [sp, #56]
   82320:	9100d800 	add	x0, x0, #0x36
   82324:	52800101 	mov	w1, #0x8                   	// #8
   82328:	94000b4a 	bl	85050 <hstr2int>
   8232c:	b90037e0 	str	w0, [sp, #52]
   82330:	f9401fe0 	ldr	x0, [sp, #56]
   82334:	91017800 	add	x0, x0, #0x5e
   82338:	52800101 	mov	w1, #0x8                   	// #8
   8233c:	94000b45 	bl	85050 <hstr2int>
   82340:	b90033e0 	str	w0, [sp, #48]
   82344:	b94033e0 	ldr	w0, [sp, #48]
   82348:	12800da1 	mov	w1, #0xffffff92            	// #-110
   8234c:	4b000020 	sub	w0, w1, w0
   82350:	12000400 	and	w0, w0, #0x3
   82354:	b9002fe0 	str	w0, [sp, #44]
   82358:	b94037e0 	ldr	w0, [sp, #52]
   8235c:	6b0003e1 	negs	w1, w0
   82360:	12000400 	and	w0, w0, #0x3
   82364:	12000421 	and	w1, w1, #0x3
   82368:	5a814400 	csneg	w0, w0, w1, mi  // mi = first
   8236c:	52800081 	mov	w1, #0x4                   	// #4
   82370:	4b000020 	sub	w0, w1, w0
   82374:	6b0003e1 	negs	w1, w0
   82378:	12000400 	and	w0, w0, #0x3
   8237c:	12000421 	and	w1, w1, #0x3
   82380:	5a814400 	csneg	w0, w0, w1, mi  // mi = first
   82384:	b9002be0 	str	w0, [sp, #40]
   82388:	f94027e0 	ldr	x0, [sp, #72]
   8238c:	9101b800 	add	x0, x0, #0x6e
   82390:	aa0003e1 	mov	x1, x0
   82394:	f9400fe0 	ldr	x0, [sp, #24]
   82398:	94000a4b 	bl	84cc4 <strcmp>
   8239c:	7100001f 	cmp	w0, #0x0
   823a0:	540002e1 	b.ne	823fc <initrd_cat+0x108>  // b.any
   823a4:	b90047ff 	str	wzr, [sp, #68]
   823a8:	1400000e 	b	823e0 <initrd_cat+0xec>
   823ac:	b98033e1 	ldrsw	x1, [sp, #48]
   823b0:	b9802fe0 	ldrsw	x0, [sp, #44]
   823b4:	8b000021 	add	x1, x1, x0
   823b8:	b98047e0 	ldrsw	x0, [sp, #68]
   823bc:	8b000020 	add	x0, x1, x0
   823c0:	9101b800 	add	x0, x0, #0x6e
   823c4:	f94027e1 	ldr	x1, [sp, #72]
   823c8:	8b000020 	add	x0, x1, x0
   823cc:	39400000 	ldrb	w0, [x0]
   823d0:	940007f4 	bl	843a0 <uart_sendc>
   823d4:	b94047e0 	ldr	w0, [sp, #68]
   823d8:	11000400 	add	w0, w0, #0x1
   823dc:	b90047e0 	str	w0, [sp, #68]
   823e0:	b94047e1 	ldr	w1, [sp, #68]
   823e4:	b94037e0 	ldr	w0, [sp, #52]
   823e8:	6b00003f 	cmp	w1, w0
   823ec:	54fffe0b 	b.lt	823ac <initrd_cat+0xb8>  // b.tstop
   823f0:	52800140 	mov	w0, #0xa                   	// #10
   823f4:	940007eb 	bl	843a0 <uart_sendc>
   823f8:	14000025 	b	8248c <initrd_cat+0x198>
   823fc:	b94037e1 	ldr	w1, [sp, #52]
   82400:	b94033e0 	ldr	w0, [sp, #48]
   82404:	0b000020 	add	w0, w1, w0
   82408:	93407c01 	sxtw	x1, w0
   8240c:	b9802fe0 	ldrsw	x0, [sp, #44]
   82410:	8b000021 	add	x1, x1, x0
   82414:	b9802be0 	ldrsw	x0, [sp, #40]
   82418:	8b000020 	add	x0, x1, x0
   8241c:	9101b800 	add	x0, x0, #0x6e
   82420:	f94027e1 	ldr	x1, [sp, #72]
   82424:	8b000020 	add	x0, x1, x0
   82428:	f90027e0 	str	x0, [sp, #72]
   8242c:	528000c2 	mov	w2, #0x6                   	// #6
   82430:	b0000020 	adrp	x0, 87000 <set_exception_vector_table>
   82434:	9118c001 	add	x1, x0, #0x630
   82438:	f94027e0 	ldr	x0, [sp, #72]
   8243c:	94000ac1 	bl	84f40 <memcmp>
   82440:	7100001f 	cmp	w0, #0x0
   82444:	54000141 	b.ne	8246c <initrd_cat+0x178>  // b.any
   82448:	f94027e0 	ldr	x0, [sp, #72]
   8244c:	9101b803 	add	x3, x0, #0x6e
   82450:	52800142 	mov	w2, #0xa                   	// #10
   82454:	b0000020 	adrp	x0, 87000 <set_exception_vector_table>
   82458:	9118e001 	add	x1, x0, #0x638
   8245c:	aa0303e0 	mov	x0, x3
   82460:	94000ab8 	bl	84f40 <memcmp>
   82464:	7100001f 	cmp	w0, #0x0
   82468:	54fff561 	b.ne	82314 <initrd_cat+0x20>  // b.any
   8246c:	b0000020 	adrp	x0, 87000 <set_exception_vector_table>
   82470:	91192000 	add	x0, x0, #0x648
   82474:	940007b4 	bl	84344 <uart_sends>
   82478:	f9400fe0 	ldr	x0, [sp, #24]
   8247c:	940007b2 	bl	84344 <uart_sends>
   82480:	b0000020 	adrp	x0, 87000 <set_exception_vector_table>
   82484:	91194000 	add	x0, x0, #0x650
   82488:	940007af 	bl	84344 <uart_sends>
   8248c:	a8c57bfd 	ldp	x29, x30, [sp], #80
   82490:	d65f03c0 	ret

0000000000082494 <initramfs_callback>:
   82494:	a9bd7bfd 	stp	x29, x30, [sp, #-48]!
   82498:	910003fd 	mov	x29, sp
   8249c:	f9000fe0 	str	x0, [sp, #24]
   824a0:	f9000be1 	str	x1, [sp, #16]
   824a4:	b0000020 	adrp	x0, 87000 <set_exception_vector_table>
   824a8:	9119c001 	add	x1, x0, #0x670
   824ac:	f9400be0 	ldr	x0, [sp, #16]
   824b0:	94000a05 	bl	84cc4 <strcmp>
   824b4:	7100001f 	cmp	w0, #0x0
   824b8:	54000161 	b.ne	824e4 <initramfs_callback+0x50>  // b.any
   824bc:	f9400fe0 	ldr	x0, [sp, #24]
   824c0:	b9400000 	ldr	w0, [x0]
   824c4:	b9002fe0 	str	w0, [sp, #44]
   824c8:	b9402fe0 	ldr	w0, [sp, #44]
   824cc:	97fffcb5 	bl	817a0 <swap32>
   824d0:	2a0003e0 	mov	w0, w0
   824d4:	aa0003e1 	mov	x1, x0
   824d8:	d0000020 	adrp	x0, 88000 <get_current+0xce8>
   824dc:	912b0000 	add	x0, x0, #0xac0
   824e0:	f9000001 	str	x1, [x0]
   824e4:	b0000020 	adrp	x0, 87000 <set_exception_vector_table>
   824e8:	911a2001 	add	x1, x0, #0x688
   824ec:	f9400be0 	ldr	x0, [sp, #16]
   824f0:	940009f5 	bl	84cc4 <strcmp>
   824f4:	7100001f 	cmp	w0, #0x0
   824f8:	54000161 	b.ne	82524 <initramfs_callback+0x90>  // b.any
   824fc:	f9400fe0 	ldr	x0, [sp, #24]
   82500:	b9400000 	ldr	w0, [x0]
   82504:	b9002be0 	str	w0, [sp, #40]
   82508:	b9402be0 	ldr	w0, [sp, #40]
   8250c:	97fffca5 	bl	817a0 <swap32>
   82510:	2a0003e0 	mov	w0, w0
   82514:	aa0003e1 	mov	x1, x0
   82518:	d0000020 	adrp	x0, 88000 <get_current+0xce8>
   8251c:	912b2000 	add	x0, x0, #0xac8
   82520:	f9000001 	str	x1, [x0]
   82524:	d503201f 	nop
   82528:	a8c37bfd 	ldp	x29, x30, [sp], #48
   8252c:	d65f03c0 	ret

0000000000082530 <fetch_exec>:
   82530:	a9bc7bfd 	stp	x29, x30, [sp, #-64]!
   82534:	910003fd 	mov	x29, sp
   82538:	f9000fe0 	str	x0, [sp, #24]
   8253c:	d0000020 	adrp	x0, 88000 <get_current+0xce8>
   82540:	912b0000 	add	x0, x0, #0xac0
   82544:	f9400000 	ldr	x0, [x0]
   82548:	f9001fe0 	str	x0, [sp, #56]
   8254c:	1400003c 	b	8263c <fetch_exec+0x10c>
   82550:	f9401fe0 	ldr	x0, [sp, #56]
   82554:	f9001be0 	str	x0, [sp, #48]
   82558:	f9401be0 	ldr	x0, [sp, #48]
   8255c:	9100d800 	add	x0, x0, #0x36
   82560:	52800101 	mov	w1, #0x8                   	// #8
   82564:	94000abb 	bl	85050 <hstr2int>
   82568:	b9002fe0 	str	w0, [sp, #44]
   8256c:	f9401be0 	ldr	x0, [sp, #48]
   82570:	91017800 	add	x0, x0, #0x5e
   82574:	52800101 	mov	w1, #0x8                   	// #8
   82578:	94000ab6 	bl	85050 <hstr2int>
   8257c:	b9002be0 	str	w0, [sp, #40]
   82580:	b9402be0 	ldr	w0, [sp, #40]
   82584:	12800da1 	mov	w1, #0xffffff92            	// #-110
   82588:	4b000020 	sub	w0, w1, w0
   8258c:	12000400 	and	w0, w0, #0x3
   82590:	b90027e0 	str	w0, [sp, #36]
   82594:	b9402fe0 	ldr	w0, [sp, #44]
   82598:	6b0003e1 	negs	w1, w0
   8259c:	12000400 	and	w0, w0, #0x3
   825a0:	12000421 	and	w1, w1, #0x3
   825a4:	5a814400 	csneg	w0, w0, w1, mi  // mi = first
   825a8:	52800081 	mov	w1, #0x4                   	// #4
   825ac:	4b000020 	sub	w0, w1, w0
   825b0:	6b0003e1 	negs	w1, w0
   825b4:	12000400 	and	w0, w0, #0x3
   825b8:	12000421 	and	w1, w1, #0x3
   825bc:	5a814400 	csneg	w0, w0, w1, mi  // mi = first
   825c0:	b90023e0 	str	w0, [sp, #32]
   825c4:	f9401fe0 	ldr	x0, [sp, #56]
   825c8:	9101b800 	add	x0, x0, #0x6e
   825cc:	aa0003e1 	mov	x1, x0
   825d0:	f9400fe0 	ldr	x0, [sp, #24]
   825d4:	940009bc 	bl	84cc4 <strcmp>
   825d8:	7100001f 	cmp	w0, #0x0
   825dc:	54000181 	b.ne	8260c <fetch_exec+0xdc>  // b.any
   825e0:	d0000020 	adrp	x0, 88000 <get_current+0xce8>
   825e4:	912b4000 	add	x0, x0, #0xad0
   825e8:	b9402fe1 	ldr	w1, [sp, #44]
   825ec:	b9000001 	str	w1, [x0]
   825f0:	b9802be1 	ldrsw	x1, [sp, #40]
   825f4:	b98027e0 	ldrsw	x0, [sp, #36]
   825f8:	8b000020 	add	x0, x1, x0
   825fc:	9101b800 	add	x0, x0, #0x6e
   82600:	f9401fe1 	ldr	x1, [sp, #56]
   82604:	8b000020 	add	x0, x1, x0
   82608:	1400001e 	b	82680 <fetch_exec+0x150>
   8260c:	b9402fe1 	ldr	w1, [sp, #44]
   82610:	b9402be0 	ldr	w0, [sp, #40]
   82614:	0b000020 	add	w0, w1, w0
   82618:	93407c01 	sxtw	x1, w0
   8261c:	b98027e0 	ldrsw	x0, [sp, #36]
   82620:	8b000021 	add	x1, x1, x0
   82624:	b98023e0 	ldrsw	x0, [sp, #32]
   82628:	8b000020 	add	x0, x1, x0
   8262c:	9101b800 	add	x0, x0, #0x6e
   82630:	f9401fe1 	ldr	x1, [sp, #56]
   82634:	8b000020 	add	x0, x1, x0
   82638:	f9001fe0 	str	x0, [sp, #56]
   8263c:	528000c2 	mov	w2, #0x6                   	// #6
   82640:	b0000020 	adrp	x0, 87000 <set_exception_vector_table>
   82644:	9118c001 	add	x1, x0, #0x630
   82648:	f9401fe0 	ldr	x0, [sp, #56]
   8264c:	94000a3d 	bl	84f40 <memcmp>
   82650:	7100001f 	cmp	w0, #0x0
   82654:	54000141 	b.ne	8267c <fetch_exec+0x14c>  // b.any
   82658:	f9401fe0 	ldr	x0, [sp, #56]
   8265c:	9101b803 	add	x3, x0, #0x6e
   82660:	52800142 	mov	w2, #0xa                   	// #10
   82664:	b0000020 	adrp	x0, 87000 <set_exception_vector_table>
   82668:	9118e001 	add	x1, x0, #0x638
   8266c:	aa0303e0 	mov	x0, x3
   82670:	94000a34 	bl	84f40 <memcmp>
   82674:	7100001f 	cmp	w0, #0x0
   82678:	54fff6c1 	b.ne	82550 <fetch_exec+0x20>  // b.any
   8267c:	d2800000 	mov	x0, #0x0                   	// #0
   82680:	a8c47bfd 	ldp	x29, x30, [sp], #64
   82684:	d65f03c0 	ret

0000000000082688 <get_initrd_start>:
   82688:	d0000020 	adrp	x0, 88000 <get_current+0xce8>
   8268c:	912b0000 	add	x0, x0, #0xac0
   82690:	f9400000 	ldr	x0, [x0]
   82694:	d65f03c0 	ret

0000000000082698 <get_initrd_end>:
   82698:	d0000020 	adrp	x0, 88000 <get_current+0xce8>
   8269c:	912b2000 	add	x0, x0, #0xac8
   826a0:	f9400000 	ldr	x0, [x0]
   826a4:	d65f03c0 	ret

00000000000826a8 <get_exec_size>:
   826a8:	d0000020 	adrp	x0, 88000 <get_current+0xce8>
   826ac:	912b4000 	add	x0, x0, #0xad0
   826b0:	b9400000 	ldr	w0, [x0]
   826b4:	d65f03c0 	ret

00000000000826b8 <add_irq_task>:
   826b8:	a9bc7bfd 	stp	x29, x30, [sp, #-64]!
   826bc:	910003fd 	mov	x29, sp
   826c0:	f9000fe0 	str	x0, [sp, #24]
   826c4:	f9000be1 	str	x1, [sp, #16]
   826c8:	52800300 	mov	w0, #0x18                  	// #24
   826cc:	94000664 	bl	8405c <kmalloc>
   826d0:	f90017e0 	str	x0, [sp, #40]
   826d4:	f94017e0 	ldr	x0, [sp, #40]
   826d8:	f100001f 	cmp	x0, #0x0
   826dc:	540000c1 	b.ne	826f4 <add_irq_task+0x3c>  // b.any
   826e0:	b0000020 	adrp	x0, 87000 <set_exception_vector_table>
   826e4:	911a8000 	add	x0, x0, #0x6a0
   826e8:	94000717 	bl	84344 <uart_sends>
   826ec:	12800000 	mov	w0, #0xffffffff            	// #-1
   826f0:	14000032 	b	827b8 <add_irq_task+0x100>
   826f4:	f9400be0 	ldr	x0, [sp, #16]
   826f8:	2a0003e1 	mov	w1, w0
   826fc:	f94017e0 	ldr	x0, [sp, #40]
   82700:	b9000001 	str	w1, [x0]
   82704:	f94017e0 	ldr	x0, [sp, #40]
   82708:	f9400fe1 	ldr	x1, [sp, #24]
   8270c:	f9000401 	str	x1, [x0, #8]
   82710:	f94017e0 	ldr	x0, [sp, #40]
   82714:	f900081f 	str	xzr, [x0, #16]
   82718:	d0000020 	adrp	x0, 88000 <get_current+0xce8>
   8271c:	912b6000 	add	x0, x0, #0xad8
   82720:	f9400000 	ldr	x0, [x0]
   82724:	f9001fe0 	str	x0, [sp, #56]
   82728:	f9001bff 	str	xzr, [sp, #48]
   8272c:	14000006 	b	82744 <add_irq_task+0x8c>
   82730:	f9401fe0 	ldr	x0, [sp, #56]
   82734:	f9001be0 	str	x0, [sp, #48]
   82738:	f9401fe0 	ldr	x0, [sp, #56]
   8273c:	f9400800 	ldr	x0, [x0, #16]
   82740:	f9001fe0 	str	x0, [sp, #56]
   82744:	f9401fe0 	ldr	x0, [sp, #56]
   82748:	f100001f 	cmp	x0, #0x0
   8274c:	540000e0 	b.eq	82768 <add_irq_task+0xb0>  // b.none
   82750:	f94017e0 	ldr	x0, [sp, #40]
   82754:	b9400001 	ldr	w1, [x0]
   82758:	f9401fe0 	ldr	x0, [sp, #56]
   8275c:	b9400000 	ldr	w0, [x0]
   82760:	6b00003f 	cmp	w1, w0
   82764:	54fffe69 	b.ls	82730 <add_irq_task+0x78>  // b.plast
   82768:	f9401be0 	ldr	x0, [sp, #48]
   8276c:	f100001f 	cmp	x0, #0x0
   82770:	54000161 	b.ne	8279c <add_irq_task+0xe4>  // b.any
   82774:	d0000020 	adrp	x0, 88000 <get_current+0xce8>
   82778:	912b6000 	add	x0, x0, #0xad8
   8277c:	f9400001 	ldr	x1, [x0]
   82780:	f94017e0 	ldr	x0, [sp, #40]
   82784:	f9000801 	str	x1, [x0, #16]
   82788:	d0000020 	adrp	x0, 88000 <get_current+0xce8>
   8278c:	912b6000 	add	x0, x0, #0xad8
   82790:	f94017e1 	ldr	x1, [sp, #40]
   82794:	f9000001 	str	x1, [x0]
   82798:	14000007 	b	827b4 <add_irq_task+0xfc>
   8279c:	f9401be0 	ldr	x0, [sp, #48]
   827a0:	f94017e1 	ldr	x1, [sp, #40]
   827a4:	f9000801 	str	x1, [x0, #16]
   827a8:	f94017e0 	ldr	x0, [sp, #40]
   827ac:	f9401fe1 	ldr	x1, [sp, #56]
   827b0:	f9000801 	str	x1, [x0, #16]
   827b4:	52800000 	mov	w0, #0x0                   	// #0
   827b8:	a8c47bfd 	ldp	x29, x30, [sp], #64
   827bc:	d65f03c0 	ret

00000000000827c0 <irq_test>:
   827c0:	a9bf7bfd 	stp	x29, x30, [sp, #-16]!
   827c4:	910003fd 	mov	x29, sp
   827c8:	d0000020 	adrp	x0, 88000 <get_current+0xce8>
   827cc:	912b8000 	add	x0, x0, #0xae0
   827d0:	b9400000 	ldr	w0, [x0]
   827d4:	7100081f 	cmp	w0, #0x2
   827d8:	540001ac 	b.gt	8280c <irq_test+0x4c>
   827dc:	92800001 	mov	x1, #0xffffffffffffffff    	// #-1
   827e0:	b0000020 	adrp	x0, 87000 <set_exception_vector_table>
   827e4:	911ac000 	add	x0, x0, #0x6b0
   827e8:	94000e1f 	bl	86064 <set_timeout>
   827ec:	d0000020 	adrp	x0, 88000 <get_current+0xce8>
   827f0:	912b8000 	add	x0, x0, #0xae0
   827f4:	b9400000 	ldr	w0, [x0]
   827f8:	11000401 	add	w1, w0, #0x1
   827fc:	d0000020 	adrp	x0, 88000 <get_current+0xce8>
   82800:	912b8000 	add	x0, x0, #0xae0
   82804:	b9000001 	str	w1, [x0]
   82808:	d503201f 	nop
   8280c:	d503201f 	nop
   82810:	a8c17bfd 	ldp	x29, x30, [sp], #16
   82814:	d65f03c0 	ret

0000000000082818 <exec_task>:
   82818:	a9bc7bfd 	stp	x29, x30, [sp, #-64]!
   8281c:	910003fd 	mov	x29, sp
   82820:	b9001fe0 	str	w0, [sp, #28]
   82824:	d0000020 	adrp	x0, 88000 <get_current+0xce8>
   82828:	912b9000 	add	x0, x0, #0xae4
   8282c:	b9400000 	ldr	w0, [x0]
   82830:	b9003fe0 	str	w0, [sp, #60]
   82834:	d0000020 	adrp	x0, 88000 <get_current+0xce8>
   82838:	912b9000 	add	x0, x0, #0xae4
   8283c:	b9400000 	ldr	w0, [x0]
   82840:	7100001f 	cmp	w0, #0x0
   82844:	54000760 	b.eq	82930 <exec_task+0x118>  // b.none
   82848:	d0000020 	adrp	x0, 88000 <get_current+0xce8>
   8284c:	912b9000 	add	x0, x0, #0xae4
   82850:	b9400000 	ldr	w0, [x0]
   82854:	b9401fe1 	ldr	w1, [sp, #28]
   82858:	6b00003f 	cmp	w1, w0
   8285c:	5400036d 	b.le	828c8 <exec_task+0xb0>
   82860:	9400009f 	bl	82adc <disable_irq>
   82864:	d0000020 	adrp	x0, 88000 <get_current+0xce8>
   82868:	912b6000 	add	x0, x0, #0xad8
   8286c:	f9400000 	ldr	x0, [x0]
   82870:	f90017e0 	str	x0, [sp, #40]
   82874:	f94017e0 	ldr	x0, [sp, #40]
   82878:	b9400000 	ldr	w0, [x0]
   8287c:	2a0003e1 	mov	w1, w0
   82880:	d0000020 	adrp	x0, 88000 <get_current+0xce8>
   82884:	912b9000 	add	x0, x0, #0xae4
   82888:	b9000001 	str	w1, [x0]
   8288c:	d0000020 	adrp	x0, 88000 <get_current+0xce8>
   82890:	912b6000 	add	x0, x0, #0xad8
   82894:	f9400000 	ldr	x0, [x0]
   82898:	f9400801 	ldr	x1, [x0, #16]
   8289c:	d0000020 	adrp	x0, 88000 <get_current+0xce8>
   828a0:	912b6000 	add	x0, x0, #0xad8
   828a4:	f9000001 	str	x1, [x0]
   828a8:	94000086 	bl	82ac0 <enable_irq>
   828ac:	f94017e0 	ldr	x0, [sp, #40]
   828b0:	f9400400 	ldr	x0, [x0, #8]
   828b4:	d63f0000 	blr	x0
   828b8:	d0000020 	adrp	x0, 88000 <get_current+0xce8>
   828bc:	912b9000 	add	x0, x0, #0xae4
   828c0:	b9403fe1 	ldr	w1, [sp, #60]
   828c4:	b9000001 	str	w1, [x0]
   828c8:	52800000 	mov	w0, #0x0                   	// #0
   828cc:	14000022 	b	82954 <exec_task+0x13c>
   828d0:	94000083 	bl	82adc <disable_irq>
   828d4:	d0000020 	adrp	x0, 88000 <get_current+0xce8>
   828d8:	912b6000 	add	x0, x0, #0xad8
   828dc:	f9400000 	ldr	x0, [x0]
   828e0:	f9001be0 	str	x0, [sp, #48]
   828e4:	f9401be0 	ldr	x0, [sp, #48]
   828e8:	b9400000 	ldr	w0, [x0]
   828ec:	2a0003e1 	mov	w1, w0
   828f0:	d0000020 	adrp	x0, 88000 <get_current+0xce8>
   828f4:	912b9000 	add	x0, x0, #0xae4
   828f8:	b9000001 	str	w1, [x0]
   828fc:	d0000020 	adrp	x0, 88000 <get_current+0xce8>
   82900:	912b6000 	add	x0, x0, #0xad8
   82904:	f9400000 	ldr	x0, [x0]
   82908:	f9400801 	ldr	x1, [x0, #16]
   8290c:	d0000020 	adrp	x0, 88000 <get_current+0xce8>
   82910:	912b6000 	add	x0, x0, #0xad8
   82914:	f9000001 	str	x1, [x0]
   82918:	9400006a 	bl	82ac0 <enable_irq>
   8291c:	f9401be0 	ldr	x0, [sp, #48]
   82920:	f9400400 	ldr	x0, [x0, #8]
   82924:	d63f0000 	blr	x0
   82928:	f9401be0 	ldr	x0, [sp, #48]
   8292c:	940005ea 	bl	840d4 <kfree>
   82930:	d0000020 	adrp	x0, 88000 <get_current+0xce8>
   82934:	912b6000 	add	x0, x0, #0xad8
   82938:	f9400000 	ldr	x0, [x0]
   8293c:	f100001f 	cmp	x0, #0x0
   82940:	54fffc81 	b.ne	828d0 <exec_task+0xb8>  // b.any
   82944:	d0000020 	adrp	x0, 88000 <get_current+0xce8>
   82948:	912b9000 	add	x0, x0, #0xae4
   8294c:	b900001f 	str	wzr, [x0]
   82950:	52800000 	mov	w0, #0x0                   	// #0
   82954:	a8c47bfd 	ldp	x29, x30, [sp], #64
   82958:	d65f03c0 	ret

000000000008295c <irq_entry>:
   8295c:	a9be7bfd 	stp	x29, x30, [sp, #-32]!
   82960:	910003fd 	mov	x29, sp
   82964:	9400005e 	bl	82adc <disable_irq>
   82968:	b9001fff 	str	wzr, [sp, #28]
   8296c:	d2964080 	mov	x0, #0xb204                	// #45572
   82970:	f2a7e000 	movk	x0, #0x3f00, lsl #16
   82974:	b9400000 	ldr	w0, [x0]
   82978:	12030000 	and	w0, w0, #0x20000000
   8297c:	7100001f 	cmp	w0, #0x0
   82980:	54000080 	b.eq	82990 <irq_entry+0x34>  // b.none
   82984:	940000a0 	bl	82c04 <mini_uart_irq_handler>
   82988:	b9001fe0 	str	w0, [sp, #28]
   8298c:	14000010 	b	829cc <irq_entry+0x70>
   82990:	d2800c00 	mov	x0, #0x60                  	// #96
   82994:	f2a80000 	movk	x0, #0x4000, lsl #16
   82998:	b9400000 	ldr	w0, [x0]
   8299c:	121f0000 	and	w0, w0, #0x2
   829a0:	7100001f 	cmp	w0, #0x0
   829a4:	54000140 	b.eq	829cc <irq_entry+0x70>  // b.none
   829a8:	94000062 	bl	82b30 <core_timer_disable>
   829ac:	52800140 	mov	w0, #0xa                   	// #10
   829b0:	b9001fe0 	str	w0, [sp, #28]
   829b4:	b9801fe0 	ldrsw	x0, [sp, #28]
   829b8:	aa0003e1 	mov	x1, x0
   829bc:	90000000 	adrp	x0, 82000 <lower_exception_entry+0xec>
   829c0:	912d0000 	add	x0, x0, #0xb40
   829c4:	97ffff3d 	bl	826b8 <add_irq_task>
   829c8:	94000048 	bl	82ae8 <core_timer_enable>
   829cc:	9400003d 	bl	82ac0 <enable_irq>
   829d0:	b9401fe0 	ldr	w0, [sp, #28]
   829d4:	97ffff91 	bl	82818 <exec_task>
   829d8:	52800000 	mov	w0, #0x0                   	// #0
   829dc:	a8c27bfd 	ldp	x29, x30, [sp], #32
   829e0:	d65f03c0 	ret

00000000000829e4 <lower_irq_entry>:
   829e4:	a9bf7bfd 	stp	x29, x30, [sp, #-16]!
   829e8:	910003fd 	mov	x29, sp
   829ec:	9400003c 	bl	82adc <disable_irq>
   829f0:	d2964080 	mov	x0, #0xb204                	// #45572
   829f4:	f2a7e000 	movk	x0, #0x3f00, lsl #16
   829f8:	b9400000 	ldr	w0, [x0]
   829fc:	12030000 	and	w0, w0, #0x20000000
   82a00:	7100001f 	cmp	w0, #0x0
   82a04:	540003e0 	b.eq	82a80 <lower_irq_entry+0x9c>  // b.none
   82a08:	d28a0900 	mov	x0, #0x5048                	// #20552
   82a0c:	f2a7e420 	movk	x0, #0x3f21, lsl #16
   82a10:	b9400000 	ldr	w0, [x0]
   82a14:	121f0000 	and	w0, w0, #0x2
   82a18:	7100001f 	cmp	w0, #0x0
   82a1c:	54000140 	b.eq	82a44 <lower_irq_entry+0x60>  // b.none
   82a20:	d28a0880 	mov	x0, #0x5044                	// #20548
   82a24:	f2a7e420 	movk	x0, #0x3f21, lsl #16
   82a28:	b9400001 	ldr	w1, [x0]
   82a2c:	d28a0880 	mov	x0, #0x5044                	// #20548
   82a30:	f2a7e420 	movk	x0, #0x3f21, lsl #16
   82a34:	121e7821 	and	w1, w1, #0xfffffffd
   82a38:	b9000001 	str	w1, [x0]
   82a3c:	940000e8 	bl	82ddc <uart_tx_handler>
   82a40:	1400001c 	b	82ab0 <lower_irq_entry+0xcc>
   82a44:	d28a0900 	mov	x0, #0x5048                	// #20552
   82a48:	f2a7e420 	movk	x0, #0x3f21, lsl #16
   82a4c:	b9400000 	ldr	w0, [x0]
   82a50:	121e0000 	and	w0, w0, #0x4
   82a54:	7100001f 	cmp	w0, #0x0
   82a58:	540002c0 	b.eq	82ab0 <lower_irq_entry+0xcc>  // b.none
   82a5c:	d28a0880 	mov	x0, #0x5044                	// #20548
   82a60:	f2a7e420 	movk	x0, #0x3f21, lsl #16
   82a64:	b9400001 	ldr	w1, [x0]
   82a68:	d28a0880 	mov	x0, #0x5044                	// #20548
   82a6c:	f2a7e420 	movk	x0, #0x3f21, lsl #16
   82a70:	121f7821 	and	w1, w1, #0xfffffffe
   82a74:	b9000001 	str	w1, [x0]
   82a78:	940000ab 	bl	82d24 <uart_rx_handler>
   82a7c:	1400000d 	b	82ab0 <lower_irq_entry+0xcc>
   82a80:	d2800c00 	mov	x0, #0x60                  	// #96
   82a84:	f2a80000 	movk	x0, #0x4000, lsl #16
   82a88:	b9400000 	ldr	w0, [x0]
   82a8c:	121f0000 	and	w0, w0, #0x2
   82a90:	7100001f 	cmp	w0, #0x0
   82a94:	540000e0 	b.eq	82ab0 <lower_irq_entry+0xcc>  // b.none
   82a98:	b0000020 	adrp	x0, 87000 <set_exception_vector_table>
   82a9c:	911ae000 	add	x0, x0, #0x6b8
   82aa0:	94000629 	bl	84344 <uart_sends>
   82aa4:	94000023 	bl	82b30 <core_timer_disable>
   82aa8:	94000026 	bl	82b40 <timer_irq_handler>
   82aac:	9400000f 	bl	82ae8 <core_timer_enable>
   82ab0:	94000004 	bl	82ac0 <enable_irq>
   82ab4:	52800000 	mov	w0, #0x0                   	// #0
   82ab8:	a8c17bfd 	ldp	x29, x30, [sp], #16
   82abc:	d65f03c0 	ret

0000000000082ac0 <enable_irq>:
   82ac0:	a9bf7bfd 	stp	x29, x30, [sp, #-16]!
   82ac4:	910003fd 	mov	x29, sp
   82ac8:	d5034fff 	msr	daifclr, #0xf
   82acc:	9400007d 	bl	82cc0 <mini_uart_irq_enable>
   82ad0:	d503201f 	nop
   82ad4:	a8c17bfd 	ldp	x29, x30, [sp], #16
   82ad8:	d65f03c0 	ret

0000000000082adc <disable_irq>:
   82adc:	d5034fdf 	msr	daifset, #0xf
   82ae0:	d503201f 	nop
   82ae4:	d65f03c0 	ret

0000000000082ae8 <core_timer_enable>:
   82ae8:	d10043ff 	sub	sp, sp, #0x10
   82aec:	d538e100 	mrs	x0, cntkctl_el1
   82af0:	f90007e0 	str	x0, [sp, #8]
   82af4:	f94007e0 	ldr	x0, [sp, #8]
   82af8:	b2400000 	orr	x0, x0, #0x1
   82afc:	f90007e0 	str	x0, [sp, #8]
   82b00:	f94007e0 	ldr	x0, [sp, #8]
   82b04:	d518e100 	msr	cntkctl_el1, x0
   82b08:	d2800020 	mov	x0, #0x1                   	// #1
   82b0c:	d51be220 	msr	cntp_ctl_el0, x0
   82b10:	d53be000 	mrs	x0, cntfrq_el0
   82b14:	d51be200 	msr	cntp_tval_el0, x0
   82b18:	d2800040 	mov	x0, #0x2                   	// #2
   82b1c:	58001be1 	ldr	x1, 82e98 <uart_tx_handler+0xbc>
   82b20:	b9000020 	str	w0, [x1]
   82b24:	d503201f 	nop
   82b28:	910043ff 	add	sp, sp, #0x10
   82b2c:	d65f03c0 	ret

0000000000082b30 <core_timer_disable>:
   82b30:	52800000 	mov	w0, #0x0                   	// #0
   82b34:	d51be220 	msr	cntp_ctl_el0, x0
   82b38:	d503201f 	nop
   82b3c:	d65f03c0 	ret

0000000000082b40 <timer_irq_handler>:
   82b40:	a9be7bfd 	stp	x29, x30, [sp, #-32]!
   82b44:	910003fd 	mov	x29, sp
   82b48:	94000d3b 	bl	86034 <get_time>
   82b4c:	f9000fe0 	str	x0, [sp, #24]
   82b50:	14000011 	b	82b94 <timer_irq_handler+0x54>
   82b54:	d0000020 	adrp	x0, 88000 <get_current+0xce8>
   82b58:	f944d800 	ldr	x0, [x0, #2480]
   82b5c:	f9400000 	ldr	x0, [x0]
   82b60:	f9000be0 	str	x0, [sp, #16]
   82b64:	f9400be0 	ldr	x0, [sp, #16]
   82b68:	f9400c01 	ldr	x1, [x0, #24]
   82b6c:	d0000020 	adrp	x0, 88000 <get_current+0xce8>
   82b70:	f944d800 	ldr	x0, [x0, #2480]
   82b74:	f9000001 	str	x1, [x0]
   82b78:	f9400be0 	ldr	x0, [sp, #16]
   82b7c:	f9400401 	ldr	x1, [x0, #8]
   82b80:	f9400be0 	ldr	x0, [sp, #16]
   82b84:	f9400800 	ldr	x0, [x0, #16]
   82b88:	d63f0020 	blr	x1
   82b8c:	f9400be0 	ldr	x0, [sp, #16]
   82b90:	94000551 	bl	840d4 <kfree>
   82b94:	d0000020 	adrp	x0, 88000 <get_current+0xce8>
   82b98:	f944d800 	ldr	x0, [x0, #2480]
   82b9c:	f9400000 	ldr	x0, [x0]
   82ba0:	f100001f 	cmp	x0, #0x0
   82ba4:	54000100 	b.eq	82bc4 <timer_irq_handler+0x84>  // b.none
   82ba8:	d0000020 	adrp	x0, 88000 <get_current+0xce8>
   82bac:	f944d800 	ldr	x0, [x0, #2480]
   82bb0:	f9400000 	ldr	x0, [x0]
   82bb4:	f9400000 	ldr	x0, [x0]
   82bb8:	f9400fe1 	ldr	x1, [sp, #24]
   82bbc:	eb00003f 	cmp	x1, x0
   82bc0:	54fffca2 	b.cs	82b54 <timer_irq_handler+0x14>  // b.hs, b.nlast
   82bc4:	d0000020 	adrp	x0, 88000 <get_current+0xce8>
   82bc8:	f944d800 	ldr	x0, [x0, #2480]
   82bcc:	f9400000 	ldr	x0, [x0]
   82bd0:	f100001f 	cmp	x0, #0x0
   82bd4:	540000e0 	b.eq	82bf0 <timer_irq_handler+0xb0>  // b.none
   82bd8:	d0000020 	adrp	x0, 88000 <get_current+0xce8>
   82bdc:	f944d800 	ldr	x0, [x0, #2480]
   82be0:	f9400000 	ldr	x0, [x0]
   82be4:	f9400000 	ldr	x0, [x0]
   82be8:	d51be240 	msr	cntp_cval_el0, x0
   82bec:	14000003 	b	82bf8 <timer_irq_handler+0xb8>
   82bf0:	52800000 	mov	w0, #0x0                   	// #0
   82bf4:	d51be220 	msr	cntp_ctl_el0, x0
   82bf8:	52800000 	mov	w0, #0x0                   	// #0
   82bfc:	a8c27bfd 	ldp	x29, x30, [sp], #32
   82c00:	d65f03c0 	ret

0000000000082c04 <mini_uart_irq_handler>:
   82c04:	a9be7bfd 	stp	x29, x30, [sp, #-32]!
   82c08:	910003fd 	mov	x29, sp
   82c0c:	b9001fff 	str	wzr, [sp, #28]
   82c10:	d28a0900 	mov	x0, #0x5048                	// #20552
   82c14:	f2a7e420 	movk	x0, #0x3f21, lsl #16
   82c18:	b9400000 	ldr	w0, [x0]
   82c1c:	121f0000 	and	w0, w0, #0x2
   82c20:	7100001f 	cmp	w0, #0x0
   82c24:	54000200 	b.eq	82c64 <mini_uart_irq_handler+0x60>  // b.none
   82c28:	d28a0880 	mov	x0, #0x5044                	// #20548
   82c2c:	f2a7e420 	movk	x0, #0x3f21, lsl #16
   82c30:	b9400001 	ldr	w1, [x0]
   82c34:	d28a0880 	mov	x0, #0x5044                	// #20548
   82c38:	f2a7e420 	movk	x0, #0x3f21, lsl #16
   82c3c:	121e7821 	and	w1, w1, #0xfffffffd
   82c40:	b9000001 	str	w1, [x0]
   82c44:	52800280 	mov	w0, #0x14                  	// #20
   82c48:	b9001fe0 	str	w0, [sp, #28]
   82c4c:	b9801fe0 	ldrsw	x0, [sp, #28]
   82c50:	aa0003e1 	mov	x1, x0
   82c54:	90000000 	adrp	x0, 82000 <lower_exception_entry+0xec>
   82c58:	91377000 	add	x0, x0, #0xddc
   82c5c:	97fffe97 	bl	826b8 <add_irq_task>
   82c60:	14000015 	b	82cb4 <mini_uart_irq_handler+0xb0>
   82c64:	d28a0900 	mov	x0, #0x5048                	// #20552
   82c68:	f2a7e420 	movk	x0, #0x3f21, lsl #16
   82c6c:	b9400000 	ldr	w0, [x0]
   82c70:	121e0000 	and	w0, w0, #0x4
   82c74:	7100001f 	cmp	w0, #0x0
   82c78:	540001e0 	b.eq	82cb4 <mini_uart_irq_handler+0xb0>  // b.none
   82c7c:	d28a0880 	mov	x0, #0x5044                	// #20548
   82c80:	f2a7e420 	movk	x0, #0x3f21, lsl #16
   82c84:	b9400001 	ldr	w1, [x0]
   82c88:	d28a0880 	mov	x0, #0x5044                	// #20548
   82c8c:	f2a7e420 	movk	x0, #0x3f21, lsl #16
   82c90:	121f7821 	and	w1, w1, #0xfffffffe
   82c94:	b9000001 	str	w1, [x0]
   82c98:	528003c0 	mov	w0, #0x1e                  	// #30
   82c9c:	b9001fe0 	str	w0, [sp, #28]
   82ca0:	b9801fe0 	ldrsw	x0, [sp, #28]
   82ca4:	aa0003e1 	mov	x1, x0
   82ca8:	90000000 	adrp	x0, 82000 <lower_exception_entry+0xec>
   82cac:	91349000 	add	x0, x0, #0xd24
   82cb0:	97fffe82 	bl	826b8 <add_irq_task>
   82cb4:	b9401fe0 	ldr	w0, [sp, #28]
   82cb8:	a8c27bfd 	ldp	x29, x30, [sp], #32
   82cbc:	d65f03c0 	ret

0000000000082cc0 <mini_uart_irq_enable>:
   82cc0:	d2964200 	mov	x0, #0xb210                	// #45584
   82cc4:	f2a7e000 	movk	x0, #0x3f00, lsl #16
   82cc8:	b9400001 	ldr	w1, [x0]
   82ccc:	d2964200 	mov	x0, #0xb210                	// #45584
   82cd0:	f2a7e000 	movk	x0, #0x3f00, lsl #16
   82cd4:	32030021 	orr	w1, w1, #0x20000000
   82cd8:	b9000001 	str	w1, [x0]
   82cdc:	d503201f 	nop
   82ce0:	d65f03c0 	ret

0000000000082ce4 <mini_uart_irq_disable>:
   82ce4:	d28a0880 	mov	x0, #0x5044                	// #20548
   82ce8:	f2a7e420 	movk	x0, #0x3f21, lsl #16
   82cec:	b9400001 	ldr	w1, [x0]
   82cf0:	d28a0880 	mov	x0, #0x5044                	// #20548
   82cf4:	f2a7e420 	movk	x0, #0x3f21, lsl #16
   82cf8:	121e7421 	and	w1, w1, #0xfffffffc
   82cfc:	b9000001 	str	w1, [x0]
   82d00:	d2964380 	mov	x0, #0xb21c                	// #45596
   82d04:	f2a7e000 	movk	x0, #0x3f00, lsl #16
   82d08:	b9400001 	ldr	w1, [x0]
   82d0c:	d2964380 	mov	x0, #0xb21c                	// #45596
   82d10:	f2a7e000 	movk	x0, #0x3f00, lsl #16
   82d14:	32030021 	orr	w1, w1, #0x20000000
   82d18:	b9000001 	str	w1, [x0]
   82d1c:	d503201f 	nop
   82d20:	d65f03c0 	ret

0000000000082d24 <uart_rx_handler>:
   82d24:	d10043ff 	sub	sp, sp, #0x10
   82d28:	d28a0880 	mov	x0, #0x5044                	// #20548
   82d2c:	f2a7e420 	movk	x0, #0x3f21, lsl #16
   82d30:	b9400001 	ldr	w1, [x0]
   82d34:	d28a0880 	mov	x0, #0x5044                	// #20548
   82d38:	f2a7e420 	movk	x0, #0x3f21, lsl #16
   82d3c:	121f7821 	and	w1, w1, #0xfffffffe
   82d40:	b9000001 	str	w1, [x0]
   82d44:	d28a0800 	mov	x0, #0x5040                	// #20544
   82d48:	f2a7e420 	movk	x0, #0x3f21, lsl #16
   82d4c:	b9400000 	ldr	w0, [x0]
   82d50:	39003fe0 	strb	w0, [sp, #15]
   82d54:	39403fe0 	ldrb	w0, [sp, #15]
   82d58:	7100341f 	cmp	w0, #0xd
   82d5c:	54000060 	b.eq	82d68 <uart_rx_handler+0x44>  // b.none
   82d60:	39403fe0 	ldrb	w0, [sp, #15]
   82d64:	14000002 	b	82d6c <uart_rx_handler+0x48>
   82d68:	52800140 	mov	w0, #0xa                   	// #10
   82d6c:	d0000021 	adrp	x1, 88000 <get_current+0xce8>
   82d70:	f944b421 	ldr	x1, [x1, #2408]
   82d74:	b9400023 	ldr	w3, [x1]
   82d78:	d0000021 	adrp	x1, 88000 <get_current+0xce8>
   82d7c:	f944d022 	ldr	x2, [x1, #2464]
   82d80:	93407c61 	sxtw	x1, w3
   82d84:	38216840 	strb	w0, [x2, x1]
   82d88:	d0000020 	adrp	x0, 88000 <get_current+0xce8>
   82d8c:	f944b400 	ldr	x0, [x0, #2408]
   82d90:	b9400000 	ldr	w0, [x0]
   82d94:	11000400 	add	w0, w0, #0x1
   82d98:	6b0003e1 	negs	w1, w0
   82d9c:	12001c00 	and	w0, w0, #0xff
   82da0:	12001c21 	and	w1, w1, #0xff
   82da4:	5a814401 	csneg	w1, w0, w1, mi  // mi = first
   82da8:	d0000020 	adrp	x0, 88000 <get_current+0xce8>
   82dac:	f944b400 	ldr	x0, [x0, #2408]
   82db0:	b9000001 	str	w1, [x0]
   82db4:	d28a0880 	mov	x0, #0x5044                	// #20548
   82db8:	f2a7e420 	movk	x0, #0x3f21, lsl #16
   82dbc:	b9400001 	ldr	w1, [x0]
   82dc0:	d28a0880 	mov	x0, #0x5044                	// #20548
   82dc4:	f2a7e420 	movk	x0, #0x3f21, lsl #16
   82dc8:	32000021 	orr	w1, w1, #0x1
   82dcc:	b9000001 	str	w1, [x0]
   82dd0:	52800000 	mov	w0, #0x0                   	// #0
   82dd4:	910043ff 	add	sp, sp, #0x10
   82dd8:	d65f03c0 	ret

0000000000082ddc <uart_tx_handler>:
   82ddc:	d0000020 	adrp	x0, 88000 <get_current+0xce8>
   82de0:	f944c400 	ldr	x0, [x0, #2440]
   82de4:	b9400001 	ldr	w1, [x0]
   82de8:	d0000020 	adrp	x0, 88000 <get_current+0xce8>
   82dec:	f944b000 	ldr	x0, [x0, #2400]
   82df0:	b9400000 	ldr	w0, [x0]
   82df4:	6b00003f 	cmp	w1, w0
   82df8:	540003c0 	b.eq	82e70 <uart_tx_handler+0x94>  // b.none
   82dfc:	d0000020 	adrp	x0, 88000 <get_current+0xce8>
   82e00:	f944c400 	ldr	x0, [x0, #2440]
   82e04:	b9400002 	ldr	w2, [x0]
   82e08:	d0000020 	adrp	x0, 88000 <get_current+0xce8>
   82e0c:	f944ac01 	ldr	x1, [x0, #2392]
   82e10:	93407c40 	sxtw	x0, w2
   82e14:	38606821 	ldrb	w1, [x1, x0]
   82e18:	d28a0800 	mov	x0, #0x5040                	// #20544
   82e1c:	f2a7e420 	movk	x0, #0x3f21, lsl #16
   82e20:	b9000001 	str	w1, [x0]
   82e24:	d0000020 	adrp	x0, 88000 <get_current+0xce8>
   82e28:	f944c400 	ldr	x0, [x0, #2440]
   82e2c:	b9400000 	ldr	w0, [x0]
   82e30:	11000400 	add	w0, w0, #0x1
   82e34:	6b0003e1 	negs	w1, w0
   82e38:	12001c00 	and	w0, w0, #0xff
   82e3c:	12001c21 	and	w1, w1, #0xff
   82e40:	5a814401 	csneg	w1, w0, w1, mi  // mi = first
   82e44:	d0000020 	adrp	x0, 88000 <get_current+0xce8>
   82e48:	f944c400 	ldr	x0, [x0, #2440]
   82e4c:	b9000001 	str	w1, [x0]
   82e50:	d28a0880 	mov	x0, #0x5044                	// #20548
   82e54:	f2a7e420 	movk	x0, #0x3f21, lsl #16
   82e58:	b9400001 	ldr	w1, [x0]
   82e5c:	d28a0880 	mov	x0, #0x5044                	// #20548
   82e60:	f2a7e420 	movk	x0, #0x3f21, lsl #16
   82e64:	321f0021 	orr	w1, w1, #0x2
   82e68:	b9000001 	str	w1, [x0]
   82e6c:	14000008 	b	82e8c <uart_tx_handler+0xb0>
   82e70:	d28a0880 	mov	x0, #0x5044                	// #20548
   82e74:	f2a7e420 	movk	x0, #0x3f21, lsl #16
   82e78:	b9400001 	ldr	w1, [x0]
   82e7c:	d28a0880 	mov	x0, #0x5044                	// #20548
   82e80:	f2a7e420 	movk	x0, #0x3f21, lsl #16
   82e84:	121e7821 	and	w1, w1, #0xfffffffd
   82e88:	b9000001 	str	w1, [x0]
   82e8c:	52800000 	mov	w0, #0x0                   	// #0
   82e90:	d65f03c0 	ret
   82e94:	00000000 	udf	#0
   82e98:	40000040 	.inst	0x40000040 ; undefined
   82e9c:	00000000 	udf	#0

0000000000082ea0 <mailbox_call>:
   82ea0:	d10083ff 	sub	sp, sp, #0x20
   82ea4:	39003fe0 	strb	w0, [sp, #15]
   82ea8:	f90003e1 	str	x1, [sp]
   82eac:	f94003e0 	ldr	x0, [sp]
   82eb0:	121c6c01 	and	w1, w0, #0xfffffff0
   82eb4:	39403fe0 	ldrb	w0, [sp, #15]
   82eb8:	12000c00 	and	w0, w0, #0xf
   82ebc:	2a000020 	orr	w0, w1, w0
   82ec0:	b9001fe0 	str	w0, [sp, #28]
   82ec4:	d503201f 	nop
   82ec8:	d2971300 	mov	x0, #0xb898                	// #47256
   82ecc:	f2a7e000 	movk	x0, #0x3f00, lsl #16
   82ed0:	b9400000 	ldr	w0, [x0]
   82ed4:	7100001f 	cmp	w0, #0x0
   82ed8:	54ffff8b 	b.lt	82ec8 <mailbox_call+0x28>  // b.tstop
   82edc:	d2971400 	mov	x0, #0xb8a0                	// #47264
   82ee0:	f2a7e000 	movk	x0, #0x3f00, lsl #16
   82ee4:	b9401fe1 	ldr	w1, [sp, #28]
   82ee8:	b9000001 	str	w1, [x0]
   82eec:	d503201f 	nop
   82ef0:	d2971300 	mov	x0, #0xb898                	// #47256
   82ef4:	f2a7e000 	movk	x0, #0x3f00, lsl #16
   82ef8:	b9400000 	ldr	w0, [x0]
   82efc:	12020000 	and	w0, w0, #0x40000000
   82f00:	7100001f 	cmp	w0, #0x0
   82f04:	54ffff61 	b.ne	82ef0 <mailbox_call+0x50>  // b.any
   82f08:	d2971000 	mov	x0, #0xb880                	// #47232
   82f0c:	f2a7e000 	movk	x0, #0x3f00, lsl #16
   82f10:	b9400000 	ldr	w0, [x0]
   82f14:	b9401fe1 	ldr	w1, [sp, #28]
   82f18:	6b00003f 	cmp	w1, w0
   82f1c:	54fffe81 	b.ne	82eec <mailbox_call+0x4c>  // b.any
   82f20:	f94003e0 	ldr	x0, [sp]
   82f24:	91001000 	add	x0, x0, #0x4
   82f28:	b9400001 	ldr	w1, [x0]
   82f2c:	52b00000 	mov	w0, #0x80000000            	// #-2147483648
   82f30:	6b00003f 	cmp	w1, w0
   82f34:	1a9f17e0 	cset	w0, eq  // eq = none
   82f38:	12001c00 	and	w0, w0, #0xff
   82f3c:	910083ff 	add	sp, sp, #0x20
   82f40:	d65f03c0 	ret

0000000000082f44 <get_board_revision>:
   82f44:	a9bd7bfd 	stp	x29, x30, [sp, #-48]!
   82f48:	910003fd 	mov	x29, sp
   82f4c:	52800380 	mov	w0, #0x1c                  	// #28
   82f50:	b90013e0 	str	w0, [sp, #16]
   82f54:	b90017ff 	str	wzr, [sp, #20]
   82f58:	52800040 	mov	w0, #0x2                   	// #2
   82f5c:	72a00020 	movk	w0, #0x1, lsl #16
   82f60:	b9001be0 	str	w0, [sp, #24]
   82f64:	52800080 	mov	w0, #0x4                   	// #4
   82f68:	b9001fe0 	str	w0, [sp, #28]
   82f6c:	b90023ff 	str	wzr, [sp, #32]
   82f70:	b90027ff 	str	wzr, [sp, #36]
   82f74:	b9002bff 	str	wzr, [sp, #40]
   82f78:	910043e0 	add	x0, sp, #0x10
   82f7c:	aa0003e1 	mov	x1, x0
   82f80:	52800100 	mov	w0, #0x8                   	// #8
   82f84:	97ffffc7 	bl	82ea0 <mailbox_call>
   82f88:	7100001f 	cmp	w0, #0x0
   82f8c:	54000100 	b.eq	82fac <get_board_revision+0x68>  // b.none
   82f90:	b0000020 	adrp	x0, 87000 <set_exception_vector_table>
   82f94:	911b4000 	add	x0, x0, #0x6d0
   82f98:	940004eb 	bl	84344 <uart_sends>
   82f9c:	b94027e0 	ldr	w0, [sp, #36]
   82fa0:	9400050d 	bl	843d4 <uart_sendh>
   82fa4:	52800140 	mov	w0, #0xa                   	// #10
   82fa8:	940004fe 	bl	843a0 <uart_sendc>
   82fac:	d503201f 	nop
   82fb0:	a8c37bfd 	ldp	x29, x30, [sp], #48
   82fb4:	d65f03c0 	ret

0000000000082fb8 <get_arm_memory>:
   82fb8:	a9bd7bfd 	stp	x29, x30, [sp, #-48]!
   82fbc:	910003fd 	mov	x29, sp
   82fc0:	52800400 	mov	w0, #0x20                  	// #32
   82fc4:	b90013e0 	str	w0, [sp, #16]
   82fc8:	b90017ff 	str	wzr, [sp, #20]
   82fcc:	528000a0 	mov	w0, #0x5                   	// #5
   82fd0:	72a00020 	movk	w0, #0x1, lsl #16
   82fd4:	b9001be0 	str	w0, [sp, #24]
   82fd8:	52800100 	mov	w0, #0x8                   	// #8
   82fdc:	b9001fe0 	str	w0, [sp, #28]
   82fe0:	b90023ff 	str	wzr, [sp, #32]
   82fe4:	b90027ff 	str	wzr, [sp, #36]
   82fe8:	b9002bff 	str	wzr, [sp, #40]
   82fec:	b9002fff 	str	wzr, [sp, #44]
   82ff0:	910043e0 	add	x0, sp, #0x10
   82ff4:	aa0003e1 	mov	x1, x0
   82ff8:	52800100 	mov	w0, #0x8                   	// #8
   82ffc:	97ffffa9 	bl	82ea0 <mailbox_call>
   83000:	7100001f 	cmp	w0, #0x0
   83004:	540001a0 	b.eq	83038 <get_arm_memory+0x80>  // b.none
   83008:	90000020 	adrp	x0, 87000 <set_exception_vector_table>
   8300c:	911ba000 	add	x0, x0, #0x6e8
   83010:	940004cd 	bl	84344 <uart_sends>
   83014:	b94027e0 	ldr	w0, [sp, #36]
   83018:	940004ef 	bl	843d4 <uart_sendh>
   8301c:	90000020 	adrp	x0, 87000 <set_exception_vector_table>
   83020:	911c2000 	add	x0, x0, #0x708
   83024:	940004c8 	bl	84344 <uart_sends>
   83028:	b9402be0 	ldr	w0, [sp, #40]
   8302c:	940004ea 	bl	843d4 <uart_sendh>
   83030:	52800140 	mov	w0, #0xa                   	// #10
   83034:	940004db 	bl	843a0 <uart_sendc>
   83038:	d503201f 	nop
   8303c:	a8c37bfd 	ldp	x29, x30, [sp], #48
   83040:	d65f03c0 	ret

0000000000083044 <main>:
   83044:	a9bd7bfd 	stp	x29, x30, [sp, #-48]!
   83048:	910003fd 	mov	x29, sp
   8304c:	f9000bf3 	str	x19, [sp, #16]
   83050:	f90017e0 	str	x0, [sp, #40]
   83054:	9400044c 	bl	84184 <uart_init>
   83058:	94000fea 	bl	87000 <set_exception_vector_table>
   8305c:	b0000020 	adrp	x0, 88000 <get_current+0xce8>
   83060:	f944c001 	ldr	x1, [x0, #2432]
   83064:	f94017e0 	ldr	x0, [sp, #40]
   83068:	97fffaf7 	bl	81c44 <fdt_traverse>
   8306c:	97fffc16 	bl	820c4 <heap_init>
   83070:	97fffe94 	bl	82ac0 <enable_irq>
   83074:	94000193 	bl	836c0 <buddy_init>
   83078:	d2820001 	mov	x1, #0x1000                	// #4096
   8307c:	d2800000 	mov	x0, #0x0                   	// #0
   83080:	94000267 	bl	83a1c <reserve>
   83084:	b0000020 	adrp	x0, 88000 <get_current+0xce8>
   83088:	f944d400 	ldr	x0, [x0, #2472]
   8308c:	d1408002 	sub	x2, x0, #0x20, lsl #12
   83090:	b0000020 	adrp	x0, 88000 <get_current+0xce8>
   83094:	f944d400 	ldr	x0, [x0, #2472]
   83098:	d1000400 	sub	x0, x0, #0x1
   8309c:	aa0003e1 	mov	x1, x0
   830a0:	aa0203e0 	mov	x0, x2
   830a4:	9400025e 	bl	83a1c <reserve>
   830a8:	b0000020 	adrp	x0, 88000 <get_current+0xce8>
   830ac:	f944b801 	ldr	x1, [x0, #2416]
   830b0:	b0000020 	adrp	x0, 88000 <get_current+0xce8>
   830b4:	f944d400 	ldr	x0, [x0, #2472]
   830b8:	94000259 	bl	83a1c <reserve>
   830bc:	97fffd73 	bl	82688 <get_initrd_start>
   830c0:	aa0003f3 	mov	x19, x0
   830c4:	97fffd75 	bl	82698 <get_initrd_end>
   830c8:	aa0003e1 	mov	x1, x0
   830cc:	aa1303e0 	mov	x0, x19
   830d0:	94000253 	bl	83a1c <reserve>
   830d4:	97fffb69 	bl	81e78 <get_dtb_end>
   830d8:	aa0003e1 	mov	x1, x0
   830dc:	f94017e0 	ldr	x0, [sp, #40]
   830e0:	9400024f 	bl	83a1c <reserve>
   830e4:	b0000020 	adrp	x0, 88000 <get_current+0xce8>
   830e8:	f944c800 	ldr	x0, [x0, #2448]
   830ec:	f9400000 	ldr	x0, [x0]
   830f0:	aa0003e1 	mov	x1, x0
   830f4:	b0000020 	adrp	x0, 88000 <get_current+0xce8>
   830f8:	f944bc00 	ldr	x0, [x0, #2424]
   830fc:	94000248 	bl	83a1c <reserve>
   83100:	9400034a 	bl	83e28 <kmem_cache_init>
   83104:	94000ac1 	bl	85c08 <thread_init>
   83108:	97fffe78 	bl	82ae8 <core_timer_enable>
   8310c:	9400066e 	bl	84ac4 <shell_exec>
   83110:	d503201f 	nop
   83114:	f9400bf3 	ldr	x19, [sp, #16]
   83118:	a8c37bfd 	ldp	x29, x30, [sp], #48
   8311c:	d65f03c0 	ret

0000000000083120 <list_add>:
   83120:	d10083ff 	sub	sp, sp, #0x20
   83124:	b9000fe0 	str	w0, [sp, #12]
   83128:	b9000be1 	str	w1, [sp, #8]
   8312c:	b0000020 	adrp	x0, 88000 <get_current+0xce8>
   83130:	912ba000 	add	x0, x0, #0xae8
   83134:	f9400002 	ldr	x2, [x0]
   83138:	b9800be1 	ldrsw	x1, [sp, #8]
   8313c:	aa0103e0 	mov	x0, x1
   83140:	d37ff800 	lsl	x0, x0, #1
   83144:	8b010000 	add	x0, x0, x1
   83148:	d37df000 	lsl	x0, x0, #3
   8314c:	8b000040 	add	x0, x2, x0
   83150:	f9000fe0 	str	x0, [sp, #24]
   83154:	b0000020 	adrp	x0, 88000 <get_current+0xce8>
   83158:	912bc000 	add	x0, x0, #0xaf0
   8315c:	b9800fe1 	ldrsw	x1, [sp, #12]
   83160:	f8617800 	ldr	x0, [x0, x1, lsl #3]
   83164:	f100001f 	cmp	x0, #0x0
   83168:	540001a1 	b.ne	8319c <list_add+0x7c>  // b.any
   8316c:	b0000020 	adrp	x0, 88000 <get_current+0xce8>
   83170:	912bc000 	add	x0, x0, #0xaf0
   83174:	b9800fe1 	ldrsw	x1, [sp, #12]
   83178:	f9400fe2 	ldr	x2, [sp, #24]
   8317c:	f8217802 	str	x2, [x0, x1, lsl #3]
   83180:	f9400fe0 	ldr	x0, [sp, #24]
   83184:	f9400fe1 	ldr	x1, [sp, #24]
   83188:	f9000801 	str	x1, [x0, #16]
   8318c:	f9400fe0 	ldr	x0, [sp, #24]
   83190:	f9400fe1 	ldr	x1, [sp, #24]
   83194:	f9000401 	str	x1, [x0, #8]
   83198:	14000019 	b	831fc <list_add+0xdc>
   8319c:	b0000020 	adrp	x0, 88000 <get_current+0xce8>
   831a0:	912bc000 	add	x0, x0, #0xaf0
   831a4:	b9800fe1 	ldrsw	x1, [sp, #12]
   831a8:	f8617800 	ldr	x0, [x0, x1, lsl #3]
   831ac:	f9400800 	ldr	x0, [x0, #16]
   831b0:	f9000be0 	str	x0, [sp, #16]
   831b4:	b0000020 	adrp	x0, 88000 <get_current+0xce8>
   831b8:	912bc000 	add	x0, x0, #0xaf0
   831bc:	b9800fe1 	ldrsw	x1, [sp, #12]
   831c0:	f8617800 	ldr	x0, [x0, x1, lsl #3]
   831c4:	f9400fe1 	ldr	x1, [sp, #24]
   831c8:	f9000801 	str	x1, [x0, #16]
   831cc:	b0000020 	adrp	x0, 88000 <get_current+0xce8>
   831d0:	912bc000 	add	x0, x0, #0xaf0
   831d4:	b9800fe1 	ldrsw	x1, [sp, #12]
   831d8:	f8617801 	ldr	x1, [x0, x1, lsl #3]
   831dc:	f9400fe0 	ldr	x0, [sp, #24]
   831e0:	f9000401 	str	x1, [x0, #8]
   831e4:	f9400fe0 	ldr	x0, [sp, #24]
   831e8:	f9400be1 	ldr	x1, [sp, #16]
   831ec:	f9000801 	str	x1, [x0, #16]
   831f0:	f9400be0 	ldr	x0, [sp, #16]
   831f4:	f9400fe1 	ldr	x1, [sp, #24]
   831f8:	f9000401 	str	x1, [x0, #8]
   831fc:	d503201f 	nop
   83200:	910083ff 	add	sp, sp, #0x20
   83204:	d65f03c0 	ret

0000000000083208 <list_del>:
   83208:	d10083ff 	sub	sp, sp, #0x20
   8320c:	b9000fe0 	str	w0, [sp, #12]
   83210:	b9000be1 	str	w1, [sp, #8]
   83214:	b0000020 	adrp	x0, 88000 <get_current+0xce8>
   83218:	912ba000 	add	x0, x0, #0xae8
   8321c:	f9400002 	ldr	x2, [x0]
   83220:	b9800be1 	ldrsw	x1, [sp, #8]
   83224:	aa0103e0 	mov	x0, x1
   83228:	d37ff800 	lsl	x0, x0, #1
   8322c:	8b010000 	add	x0, x0, x1
   83230:	d37df000 	lsl	x0, x0, #3
   83234:	8b000040 	add	x0, x2, x0
   83238:	f9000fe0 	str	x0, [sp, #24]
   8323c:	f9400fe0 	ldr	x0, [sp, #24]
   83240:	f9400400 	ldr	x0, [x0, #8]
   83244:	f9400fe1 	ldr	x1, [sp, #24]
   83248:	eb00003f 	cmp	x1, x0
   8324c:	540000c1 	b.ne	83264 <list_del+0x5c>  // b.any
   83250:	b0000020 	adrp	x0, 88000 <get_current+0xce8>
   83254:	912bc000 	add	x0, x0, #0xaf0
   83258:	b9800fe1 	ldrsw	x1, [sp, #12]
   8325c:	f821781f 	str	xzr, [x0, x1, lsl #3]
   83260:	14000018 	b	832c0 <list_del+0xb8>
   83264:	f9400fe0 	ldr	x0, [sp, #24]
   83268:	f9400800 	ldr	x0, [x0, #16]
   8326c:	f9400fe1 	ldr	x1, [sp, #24]
   83270:	f9400421 	ldr	x1, [x1, #8]
   83274:	f9000401 	str	x1, [x0, #8]
   83278:	f9400fe0 	ldr	x0, [sp, #24]
   8327c:	f9400400 	ldr	x0, [x0, #8]
   83280:	f9400fe1 	ldr	x1, [sp, #24]
   83284:	f9400821 	ldr	x1, [x1, #16]
   83288:	f9000801 	str	x1, [x0, #16]
   8328c:	b0000020 	adrp	x0, 88000 <get_current+0xce8>
   83290:	912bc000 	add	x0, x0, #0xaf0
   83294:	b9800fe1 	ldrsw	x1, [sp, #12]
   83298:	f8617800 	ldr	x0, [x0, x1, lsl #3]
   8329c:	f9400fe1 	ldr	x1, [sp, #24]
   832a0:	eb00003f 	cmp	x1, x0
   832a4:	540000e1 	b.ne	832c0 <list_del+0xb8>  // b.any
   832a8:	f9400fe0 	ldr	x0, [sp, #24]
   832ac:	f9400402 	ldr	x2, [x0, #8]
   832b0:	b0000020 	adrp	x0, 88000 <get_current+0xce8>
   832b4:	912bc000 	add	x0, x0, #0xaf0
   832b8:	b9800fe1 	ldrsw	x1, [sp, #12]
   832bc:	f8217802 	str	x2, [x0, x1, lsl #3]
   832c0:	d503201f 	nop
   832c4:	910083ff 	add	sp, sp, #0x20
   832c8:	d65f03c0 	ret

00000000000832cc <list_pop>:
   832cc:	a9bd7bfd 	stp	x29, x30, [sp, #-48]!
   832d0:	910003fd 	mov	x29, sp
   832d4:	b9001fe0 	str	w0, [sp, #28]
   832d8:	b0000020 	adrp	x0, 88000 <get_current+0xce8>
   832dc:	912bc000 	add	x0, x0, #0xaf0
   832e0:	b9801fe1 	ldrsw	x1, [sp, #28]
   832e4:	f8617800 	ldr	x0, [x0, x1, lsl #3]
   832e8:	f100001f 	cmp	x0, #0x0
   832ec:	54000061 	b.ne	832f8 <list_pop+0x2c>  // b.any
   832f0:	12800000 	mov	w0, #0xffffffff            	// #-1
   832f4:	14000012 	b	8333c <list_pop+0x70>
   832f8:	b0000020 	adrp	x0, 88000 <get_current+0xce8>
   832fc:	912bc000 	add	x0, x0, #0xaf0
   83300:	b9801fe1 	ldrsw	x1, [sp, #28]
   83304:	f8617801 	ldr	x1, [x0, x1, lsl #3]
   83308:	b0000020 	adrp	x0, 88000 <get_current+0xce8>
   8330c:	912ba000 	add	x0, x0, #0xae8
   83310:	f9400000 	ldr	x0, [x0]
   83314:	cb000020 	sub	x0, x1, x0
   83318:	9343fc01 	asr	x1, x0, #3
   8331c:	b201f3e0 	mov	x0, #0xaaaaaaaaaaaaaaaa    	// #-6148914691236517206
   83320:	f2955560 	movk	x0, #0xaaab
   83324:	9b007c20 	mul	x0, x1, x0
   83328:	b9002fe0 	str	w0, [sp, #44]
   8332c:	b9402fe1 	ldr	w1, [sp, #44]
   83330:	b9401fe0 	ldr	w0, [sp, #28]
   83334:	97ffffb5 	bl	83208 <list_del>
   83338:	b9402fe0 	ldr	w0, [sp, #44]
   8333c:	a8c37bfd 	ldp	x29, x30, [sp], #48
   83340:	d65f03c0 	ret

0000000000083344 <list_show>:
   83344:	a9bd7bfd 	stp	x29, x30, [sp, #-48]!
   83348:	910003fd 	mov	x29, sp
   8334c:	f9000fe0 	str	x0, [sp, #24]
   83350:	f9400fe0 	ldr	x0, [sp, #24]
   83354:	f90017e0 	str	x0, [sp, #40]
   83358:	f94017e0 	ldr	x0, [sp, #40]
   8335c:	f100001f 	cmp	x0, #0x0
   83360:	540000a1 	b.ne	83374 <list_show+0x30>  // b.any
   83364:	90000020 	adrp	x0, 87000 <set_exception_vector_table>
   83368:	911c8000 	add	x0, x0, #0x720
   8336c:	940003f6 	bl	84344 <uart_sends>
   83370:	1400001a 	b	833d8 <list_show+0x94>
   83374:	b0000020 	adrp	x0, 88000 <get_current+0xce8>
   83378:	912ba000 	add	x0, x0, #0xae8
   8337c:	f9400000 	ldr	x0, [x0]
   83380:	f94017e1 	ldr	x1, [sp, #40]
   83384:	cb000020 	sub	x0, x1, x0
   83388:	9343fc01 	asr	x1, x0, #3
   8338c:	b201f3e0 	mov	x0, #0xaaaaaaaaaaaaaaaa    	// #-6148914691236517206
   83390:	f2955560 	movk	x0, #0xaaab
   83394:	9b007c20 	mul	x0, x1, x0
   83398:	b90027e0 	str	w0, [sp, #36]
   8339c:	b94027e0 	ldr	w0, [sp, #36]
   833a0:	9400044b 	bl	844cc <uart_sendi>
   833a4:	90000020 	adrp	x0, 87000 <set_exception_vector_table>
   833a8:	911cc000 	add	x0, x0, #0x730
   833ac:	940003e6 	bl	84344 <uart_sends>
   833b0:	f94017e0 	ldr	x0, [sp, #40]
   833b4:	f9400400 	ldr	x0, [x0, #8]
   833b8:	f90017e0 	str	x0, [sp, #40]
   833bc:	f94017e1 	ldr	x1, [sp, #40]
   833c0:	f9400fe0 	ldr	x0, [sp, #24]
   833c4:	eb00003f 	cmp	x1, x0
   833c8:	54fffd61 	b.ne	83374 <list_show+0x30>  // b.any
   833cc:	90000020 	adrp	x0, 87000 <set_exception_vector_table>
   833d0:	911ce000 	add	x0, x0, #0x738
   833d4:	940003dc 	bl	84344 <uart_sends>
   833d8:	a8c37bfd 	ldp	x29, x30, [sp], #48
   833dc:	d65f03c0 	ret

00000000000833e0 <split>:
   833e0:	a9bd7bfd 	stp	x29, x30, [sp, #-48]!
   833e4:	910003fd 	mov	x29, sp
   833e8:	b9001fe0 	str	w0, [sp, #28]
   833ec:	b9001be1 	str	w1, [sp, #24]
   833f0:	b9401be0 	ldr	w0, [sp, #24]
   833f4:	7100001f 	cmp	w0, #0x0
   833f8:	54000360 	b.eq	83464 <split+0x84>  // b.none
   833fc:	b0000020 	adrp	x0, 88000 <get_current+0xce8>
   83400:	912ba000 	add	x0, x0, #0xae8
   83404:	f9400002 	ldr	x2, [x0]
   83408:	b9801fe1 	ldrsw	x1, [sp, #28]
   8340c:	aa0103e0 	mov	x0, x1
   83410:	d37ff800 	lsl	x0, x0, #1
   83414:	8b010000 	add	x0, x0, x1
   83418:	d37df000 	lsl	x0, x0, #3
   8341c:	8b000040 	add	x0, x2, x0
   83420:	39400000 	ldrb	w0, [x0]
   83424:	7103f81f 	cmp	w0, #0xfe
   83428:	540001e0 	b.eq	83464 <split+0x84>  // b.none
   8342c:	b0000020 	adrp	x0, 88000 <get_current+0xce8>
   83430:	912ba000 	add	x0, x0, #0xae8
   83434:	f9400002 	ldr	x2, [x0]
   83438:	b9801fe1 	ldrsw	x1, [sp, #28]
   8343c:	aa0103e0 	mov	x0, x1
   83440:	d37ff800 	lsl	x0, x0, #1
   83444:	8b010000 	add	x0, x0, x1
   83448:	d37df000 	lsl	x0, x0, #3
   8344c:	8b000040 	add	x0, x2, x0
   83450:	39400400 	ldrb	w0, [x0, #1]
   83454:	2a0003e1 	mov	w1, w0
   83458:	b9401be0 	ldr	w0, [sp, #24]
   8345c:	6b01001f 	cmp	w0, w1
   83460:	54000060 	b.eq	8346c <split+0x8c>  // b.none
   83464:	b9401fe0 	ldr	w0, [sp, #28]
   83468:	14000030 	b	83528 <split+0x148>
   8346c:	b9401be0 	ldr	w0, [sp, #24]
   83470:	b9401fe1 	ldr	w1, [sp, #28]
   83474:	97ffff65 	bl	83208 <list_del>
   83478:	b9401be0 	ldr	w0, [sp, #24]
   8347c:	51000400 	sub	w0, w0, #0x1
   83480:	52800021 	mov	w1, #0x1                   	// #1
   83484:	1ac02020 	lsl	w0, w1, w0
   83488:	b9401fe1 	ldr	w1, [sp, #28]
   8348c:	4a000020 	eor	w0, w1, w0
   83490:	b9002fe0 	str	w0, [sp, #44]
   83494:	b9401be0 	ldr	w0, [sp, #24]
   83498:	12001c02 	and	w2, w0, #0xff
   8349c:	b0000020 	adrp	x0, 88000 <get_current+0xce8>
   834a0:	912ba000 	add	x0, x0, #0xae8
   834a4:	f9400003 	ldr	x3, [x0]
   834a8:	b9801fe1 	ldrsw	x1, [sp, #28]
   834ac:	aa0103e0 	mov	x0, x1
   834b0:	d37ff800 	lsl	x0, x0, #1
   834b4:	8b010000 	add	x0, x0, x1
   834b8:	d37df000 	lsl	x0, x0, #3
   834bc:	8b000060 	add	x0, x3, x0
   834c0:	51000441 	sub	w1, w2, #0x1
   834c4:	12001c21 	and	w1, w1, #0xff
   834c8:	39000401 	strb	w1, [x0, #1]
   834cc:	b9401be0 	ldr	w0, [sp, #24]
   834d0:	12001c02 	and	w2, w0, #0xff
   834d4:	b0000020 	adrp	x0, 88000 <get_current+0xce8>
   834d8:	912ba000 	add	x0, x0, #0xae8
   834dc:	f9400003 	ldr	x3, [x0]
   834e0:	b9802fe1 	ldrsw	x1, [sp, #44]
   834e4:	aa0103e0 	mov	x0, x1
   834e8:	d37ff800 	lsl	x0, x0, #1
   834ec:	8b010000 	add	x0, x0, x1
   834f0:	d37df000 	lsl	x0, x0, #3
   834f4:	8b000060 	add	x0, x3, x0
   834f8:	51000441 	sub	w1, w2, #0x1
   834fc:	12001c21 	and	w1, w1, #0xff
   83500:	39000401 	strb	w1, [x0, #1]
   83504:	b9401be0 	ldr	w0, [sp, #24]
   83508:	51000400 	sub	w0, w0, #0x1
   8350c:	b9401fe1 	ldr	w1, [sp, #28]
   83510:	97ffff04 	bl	83120 <list_add>
   83514:	b9401be0 	ldr	w0, [sp, #24]
   83518:	51000400 	sub	w0, w0, #0x1
   8351c:	b9402fe1 	ldr	w1, [sp, #44]
   83520:	97ffff00 	bl	83120 <list_add>
   83524:	b9402fe0 	ldr	w0, [sp, #44]
   83528:	a8c37bfd 	ldp	x29, x30, [sp], #48
   8352c:	d65f03c0 	ret

0000000000083530 <coalesce>:
   83530:	a9bd7bfd 	stp	x29, x30, [sp, #-48]!
   83534:	910003fd 	mov	x29, sp
   83538:	b9001fe0 	str	w0, [sp, #28]
   8353c:	b9001be1 	str	w1, [sp, #24]
   83540:	b9401be0 	ldr	w0, [sp, #24]
   83544:	52800021 	mov	w1, #0x1                   	// #1
   83548:	1ac02020 	lsl	w0, w1, w0
   8354c:	b9401fe1 	ldr	w1, [sp, #28]
   83550:	4a000020 	eor	w0, w1, w0
   83554:	b9002fe0 	str	w0, [sp, #44]
   83558:	b0000020 	adrp	x0, 88000 <get_current+0xce8>
   8355c:	912ba000 	add	x0, x0, #0xae8
   83560:	f9400002 	ldr	x2, [x0]
   83564:	b9802fe1 	ldrsw	x1, [sp, #44]
   83568:	aa0103e0 	mov	x0, x1
   8356c:	d37ff800 	lsl	x0, x0, #1
   83570:	8b010000 	add	x0, x0, x1
   83574:	d37df000 	lsl	x0, x0, #3
   83578:	8b000040 	add	x0, x2, x0
   8357c:	39400000 	ldrb	w0, [x0]
   83580:	7103fc1f 	cmp	w0, #0xff
   83584:	54000941 	b.ne	836ac <coalesce+0x17c>  // b.any
   83588:	b0000020 	adrp	x0, 88000 <get_current+0xce8>
   8358c:	912ba000 	add	x0, x0, #0xae8
   83590:	f9400002 	ldr	x2, [x0]
   83594:	b9802fe1 	ldrsw	x1, [sp, #44]
   83598:	aa0103e0 	mov	x0, x1
   8359c:	d37ff800 	lsl	x0, x0, #1
   835a0:	8b010000 	add	x0, x0, x1
   835a4:	d37df000 	lsl	x0, x0, #3
   835a8:	8b000040 	add	x0, x2, x0
   835ac:	39400400 	ldrb	w0, [x0, #1]
   835b0:	2a0003e1 	mov	w1, w0
   835b4:	b9401be0 	ldr	w0, [sp, #24]
   835b8:	6b01001f 	cmp	w0, w1
   835bc:	54000781 	b.ne	836ac <coalesce+0x17c>  // b.any
   835c0:	b0000020 	adrp	x0, 88000 <get_current+0xce8>
   835c4:	912ba000 	add	x0, x0, #0xae8
   835c8:	f9400002 	ldr	x2, [x0]
   835cc:	b9801fe1 	ldrsw	x1, [sp, #28]
   835d0:	aa0103e0 	mov	x0, x1
   835d4:	d37ff800 	lsl	x0, x0, #1
   835d8:	8b010000 	add	x0, x0, x1
   835dc:	d37df000 	lsl	x0, x0, #3
   835e0:	8b000040 	add	x0, x2, x0
   835e4:	12800001 	mov	w1, #0xffffffff            	// #-1
   835e8:	39000401 	strb	w1, [x0, #1]
   835ec:	b0000020 	adrp	x0, 88000 <get_current+0xce8>
   835f0:	912ba000 	add	x0, x0, #0xae8
   835f4:	f9400002 	ldr	x2, [x0]
   835f8:	b9802fe1 	ldrsw	x1, [sp, #44]
   835fc:	aa0103e0 	mov	x0, x1
   83600:	d37ff800 	lsl	x0, x0, #1
   83604:	8b010000 	add	x0, x0, x1
   83608:	d37df000 	lsl	x0, x0, #3
   8360c:	8b000040 	add	x0, x2, x0
   83610:	12800001 	mov	w1, #0xffffffff            	// #-1
   83614:	39000401 	strb	w1, [x0, #1]
   83618:	b9401fe0 	ldr	w0, [sp, #28]
   8361c:	b9402fe2 	ldr	w2, [sp, #44]
   83620:	b9402fe1 	ldr	w1, [sp, #44]
   83624:	6b00005f 	cmp	w2, w0
   83628:	1a80d020 	csel	w0, w1, w0, le
   8362c:	b9002be0 	str	w0, [sp, #40]
   83630:	b9401be0 	ldr	w0, [sp, #24]
   83634:	11000400 	add	w0, w0, #0x1
   83638:	b90027e0 	str	w0, [sp, #36]
   8363c:	b94027e0 	ldr	w0, [sp, #36]
   83640:	7100281f 	cmp	w0, #0xa
   83644:	54000388 	b.hi	836b4 <coalesce+0x184>  // b.pmore
   83648:	b9401be0 	ldr	w0, [sp, #24]
   8364c:	b9401fe1 	ldr	w1, [sp, #28]
   83650:	97fffeee 	bl	83208 <list_del>
   83654:	b9401be0 	ldr	w0, [sp, #24]
   83658:	b9402fe1 	ldr	w1, [sp, #44]
   8365c:	97fffeeb 	bl	83208 <list_del>
   83660:	b0000020 	adrp	x0, 88000 <get_current+0xce8>
   83664:	912ba000 	add	x0, x0, #0xae8
   83668:	f9400002 	ldr	x2, [x0]
   8366c:	b9802be1 	ldrsw	x1, [sp, #40]
   83670:	aa0103e0 	mov	x0, x1
   83674:	d37ff800 	lsl	x0, x0, #1
   83678:	8b010000 	add	x0, x0, x1
   8367c:	d37df000 	lsl	x0, x0, #3
   83680:	8b000040 	add	x0, x2, x0
   83684:	b94027e1 	ldr	w1, [sp, #36]
   83688:	12001c21 	and	w1, w1, #0xff
   8368c:	39000401 	strb	w1, [x0, #1]
   83690:	b94027e0 	ldr	w0, [sp, #36]
   83694:	b9402be1 	ldr	w1, [sp, #40]
   83698:	97fffea2 	bl	83120 <list_add>
   8369c:	b94027e1 	ldr	w1, [sp, #36]
   836a0:	b9402be0 	ldr	w0, [sp, #40]
   836a4:	97ffffa3 	bl	83530 <coalesce>
   836a8:	14000004 	b	836b8 <coalesce+0x188>
   836ac:	d503201f 	nop
   836b0:	14000002 	b	836b8 <coalesce+0x188>
   836b4:	d503201f 	nop
   836b8:	a8c37bfd 	ldp	x29, x30, [sp], #48
   836bc:	d65f03c0 	ret

00000000000836c0 <buddy_init>:
   836c0:	a9be7bfd 	stp	x29, x30, [sp, #-32]!
   836c4:	910003fd 	mov	x29, sp
   836c8:	52a00b40 	mov	w0, #0x5a0000              	// #5898240
   836cc:	97fffa93 	bl	82118 <simple_malloc>
   836d0:	aa0003e1 	mov	x1, x0
   836d4:	b0000020 	adrp	x0, 88000 <get_current+0xce8>
   836d8:	912ba000 	add	x0, x0, #0xae8
   836dc:	f9000001 	str	x1, [x0]
   836e0:	b0000020 	adrp	x0, 88000 <get_current+0xce8>
   836e4:	912ba000 	add	x0, x0, #0xae8
   836e8:	f9400000 	ldr	x0, [x0]
   836ec:	f100001f 	cmp	x0, #0x0
   836f0:	540000a1 	b.ne	83704 <buddy_init+0x44>  // b.any
   836f4:	90000020 	adrp	x0, 87000 <set_exception_vector_table>
   836f8:	911d0000 	add	x0, x0, #0x740
   836fc:	94000312 	bl	84344 <uart_sends>
   83700:	14000052 	b	83848 <buddy_init+0x188>
   83704:	b9001fff 	str	wzr, [sp, #28]
   83708:	14000025 	b	8379c <buddy_init+0xdc>
   8370c:	b0000020 	adrp	x0, 88000 <get_current+0xce8>
   83710:	912ba000 	add	x0, x0, #0xae8
   83714:	f9400002 	ldr	x2, [x0]
   83718:	b9801fe1 	ldrsw	x1, [sp, #28]
   8371c:	aa0103e0 	mov	x0, x1
   83720:	d37ff800 	lsl	x0, x0, #1
   83724:	8b010000 	add	x0, x0, x1
   83728:	d37df000 	lsl	x0, x0, #3
   8372c:	8b000040 	add	x0, x2, x0
   83730:	12800001 	mov	w1, #0xffffffff            	// #-1
   83734:	39000001 	strb	w1, [x0]
   83738:	b0000020 	adrp	x0, 88000 <get_current+0xce8>
   8373c:	912ba000 	add	x0, x0, #0xae8
   83740:	f9400002 	ldr	x2, [x0]
   83744:	b9801fe1 	ldrsw	x1, [sp, #28]
   83748:	aa0103e0 	mov	x0, x1
   8374c:	d37ff800 	lsl	x0, x0, #1
   83750:	8b010000 	add	x0, x0, x1
   83754:	d37df000 	lsl	x0, x0, #3
   83758:	8b000040 	add	x0, x2, x0
   8375c:	12800001 	mov	w1, #0xffffffff            	// #-1
   83760:	39000401 	strb	w1, [x0, #1]
   83764:	b0000020 	adrp	x0, 88000 <get_current+0xce8>
   83768:	912ba000 	add	x0, x0, #0xae8
   8376c:	f9400002 	ldr	x2, [x0]
   83770:	b9801fe1 	ldrsw	x1, [sp, #28]
   83774:	aa0103e0 	mov	x0, x1
   83778:	d37ff800 	lsl	x0, x0, #1
   8377c:	8b010000 	add	x0, x0, x1
   83780:	d37df000 	lsl	x0, x0, #3
   83784:	8b000040 	add	x0, x2, x0
   83788:	12800001 	mov	w1, #0xffffffff            	// #-1
   8378c:	b9000401 	str	w1, [x0, #4]
   83790:	b9401fe0 	ldr	w0, [sp, #28]
   83794:	11000400 	add	w0, w0, #0x1
   83798:	b9001fe0 	str	w0, [sp, #28]
   8379c:	b9401fe0 	ldr	w0, [sp, #28]
   837a0:	7140f01f 	cmp	w0, #0x3c, lsl #12
   837a4:	54fffb4b 	b.lt	8370c <buddy_init+0x4c>  // b.tstop
   837a8:	b9001bff 	str	wzr, [sp, #24]
   837ac:	14000008 	b	837cc <buddy_init+0x10c>
   837b0:	b0000020 	adrp	x0, 88000 <get_current+0xce8>
   837b4:	912bc000 	add	x0, x0, #0xaf0
   837b8:	b9801be1 	ldrsw	x1, [sp, #24]
   837bc:	f821781f 	str	xzr, [x0, x1, lsl #3]
   837c0:	b9401be0 	ldr	w0, [sp, #24]
   837c4:	11000400 	add	w0, w0, #0x1
   837c8:	b9001be0 	str	w0, [sp, #24]
   837cc:	b9401be0 	ldr	w0, [sp, #24]
   837d0:	7100281f 	cmp	w0, #0xa
   837d4:	54fffeed 	b.le	837b0 <buddy_init+0xf0>
   837d8:	52808000 	mov	w0, #0x400                 	// #1024
   837dc:	b90013e0 	str	w0, [sp, #16]
   837e0:	b90017ff 	str	wzr, [sp, #20]
   837e4:	14000013 	b	83830 <buddy_init+0x170>
   837e8:	b0000020 	adrp	x0, 88000 <get_current+0xce8>
   837ec:	912ba000 	add	x0, x0, #0xae8
   837f0:	f9400002 	ldr	x2, [x0]
   837f4:	b98017e1 	ldrsw	x1, [sp, #20]
   837f8:	aa0103e0 	mov	x0, x1
   837fc:	d37ff800 	lsl	x0, x0, #1
   83800:	8b010000 	add	x0, x0, x1
   83804:	d37df000 	lsl	x0, x0, #3
   83808:	8b000040 	add	x0, x2, x0
   8380c:	52800141 	mov	w1, #0xa                   	// #10
   83810:	39000401 	strb	w1, [x0, #1]
   83814:	b94017e1 	ldr	w1, [sp, #20]
   83818:	52800140 	mov	w0, #0xa                   	// #10
   8381c:	97fffe41 	bl	83120 <list_add>
   83820:	b94017e1 	ldr	w1, [sp, #20]
   83824:	b94013e0 	ldr	w0, [sp, #16]
   83828:	0b000020 	add	w0, w1, w0
   8382c:	b90017e0 	str	w0, [sp, #20]
   83830:	b94017e0 	ldr	w0, [sp, #20]
   83834:	7140f01f 	cmp	w0, #0x3c, lsl #12
   83838:	54fffd8b 	b.lt	837e8 <buddy_init+0x128>  // b.tstop
   8383c:	90000020 	adrp	x0, 87000 <set_exception_vector_table>
   83840:	911d8000 	add	x0, x0, #0x760
   83844:	940002c0 	bl	84344 <uart_sends>
   83848:	a8c27bfd 	ldp	x29, x30, [sp], #32
   8384c:	d65f03c0 	ret

0000000000083850 <alloc_pages>:
   83850:	a9bd7bfd 	stp	x29, x30, [sp, #-48]!
   83854:	910003fd 	mov	x29, sp
   83858:	b9001fe0 	str	w0, [sp, #28]
   8385c:	b9401fe0 	ldr	w0, [sp, #28]
   83860:	7100281f 	cmp	w0, #0xa
   83864:	540000cd 	b.le	8387c <alloc_pages+0x2c>
   83868:	90000020 	adrp	x0, 87000 <set_exception_vector_table>
   8386c:	911de000 	add	x0, x0, #0x778
   83870:	940002b5 	bl	84344 <uart_sends>
   83874:	d2800000 	mov	x0, #0x0                   	// #0
   83878:	14000035 	b	8394c <alloc_pages+0xfc>
   8387c:	b9002fff 	str	wzr, [sp, #44]
   83880:	b9401fe0 	ldr	w0, [sp, #28]
   83884:	b9002be0 	str	w0, [sp, #40]
   83888:	1400001d 	b	838fc <alloc_pages+0xac>
   8388c:	b0000020 	adrp	x0, 88000 <get_current+0xce8>
   83890:	912bc000 	add	x0, x0, #0xaf0
   83894:	b9802be1 	ldrsw	x1, [sp, #40]
   83898:	f8617800 	ldr	x0, [x0, x1, lsl #3]
   8389c:	f100001f 	cmp	x0, #0x0
   838a0:	54000280 	b.eq	838f0 <alloc_pages+0xa0>  // b.none
   838a4:	b9402be0 	ldr	w0, [sp, #40]
   838a8:	97fffe89 	bl	832cc <list_pop>
   838ac:	b9002fe0 	str	w0, [sp, #44]
   838b0:	1400000b 	b	838dc <alloc_pages+0x8c>
   838b4:	b9402be0 	ldr	w0, [sp, #40]
   838b8:	2a0003e1 	mov	w1, w0
   838bc:	b9402fe0 	ldr	w0, [sp, #44]
   838c0:	97fffec8 	bl	833e0 <split>
   838c4:	b90027e0 	str	w0, [sp, #36]
   838c8:	b94027e0 	ldr	w0, [sp, #36]
   838cc:	b9002fe0 	str	w0, [sp, #44]
   838d0:	b9402be0 	ldr	w0, [sp, #40]
   838d4:	51000400 	sub	w0, w0, #0x1
   838d8:	b9002be0 	str	w0, [sp, #40]
   838dc:	b9402be1 	ldr	w1, [sp, #40]
   838e0:	b9401fe0 	ldr	w0, [sp, #28]
   838e4:	6b00003f 	cmp	w1, w0
   838e8:	54fffe6c 	b.gt	838b4 <alloc_pages+0x64>
   838ec:	14000007 	b	83908 <alloc_pages+0xb8>
   838f0:	b9402be0 	ldr	w0, [sp, #40]
   838f4:	11000400 	add	w0, w0, #0x1
   838f8:	b9002be0 	str	w0, [sp, #40]
   838fc:	b9402be0 	ldr	w0, [sp, #40]
   83900:	7100281f 	cmp	w0, #0xa
   83904:	54fffc4d 	b.le	8388c <alloc_pages+0x3c>
   83908:	b0000020 	adrp	x0, 88000 <get_current+0xce8>
   8390c:	912ba000 	add	x0, x0, #0xae8
   83910:	f9400002 	ldr	x2, [x0]
   83914:	b9802fe1 	ldrsw	x1, [sp, #44]
   83918:	aa0103e0 	mov	x0, x1
   8391c:	d37ff800 	lsl	x0, x0, #1
   83920:	8b010000 	add	x0, x0, x1
   83924:	d37df000 	lsl	x0, x0, #3
   83928:	8b000040 	add	x0, x2, x0
   8392c:	12800021 	mov	w1, #0xfffffffe            	// #-2
   83930:	39000001 	strb	w1, [x0]
   83934:	b9402fe1 	ldr	w1, [sp, #44]
   83938:	b9401fe0 	ldr	w0, [sp, #28]
   8393c:	97fffe33 	bl	83208 <list_del>
   83940:	b9402fe0 	ldr	w0, [sp, #44]
   83944:	53144c00 	lsl	w0, w0, #12
   83948:	93407c00 	sxtw	x0, w0
   8394c:	a8c37bfd 	ldp	x29, x30, [sp], #48
   83950:	d65f03c0 	ret

0000000000083954 <free_pages>:
   83954:	a9bd7bfd 	stp	x29, x30, [sp, #-48]!
   83958:	910003fd 	mov	x29, sp
   8395c:	f9000fe0 	str	x0, [sp, #24]
   83960:	f9400fe0 	ldr	x0, [sp, #24]
   83964:	d34cfc00 	lsr	x0, x0, #12
   83968:	b9002fe0 	str	w0, [sp, #44]
   8396c:	b0000020 	adrp	x0, 88000 <get_current+0xce8>
   83970:	912ba000 	add	x0, x0, #0xae8
   83974:	f9400002 	ldr	x2, [x0]
   83978:	b9802fe1 	ldrsw	x1, [sp, #44]
   8397c:	aa0103e0 	mov	x0, x1
   83980:	d37ff800 	lsl	x0, x0, #1
   83984:	8b010000 	add	x0, x0, x1
   83988:	d37df000 	lsl	x0, x0, #3
   8398c:	8b000040 	add	x0, x2, x0
   83990:	39400000 	ldrb	w0, [x0]
   83994:	7103fc1f 	cmp	w0, #0xff
   83998:	540000a1 	b.ne	839ac <free_pages+0x58>  // b.any
   8399c:	90000020 	adrp	x0, 87000 <set_exception_vector_table>
   839a0:	911e6000 	add	x0, x0, #0x798
   839a4:	94000268 	bl	84344 <uart_sends>
   839a8:	1400001b 	b	83a14 <free_pages+0xc0>
   839ac:	b0000020 	adrp	x0, 88000 <get_current+0xce8>
   839b0:	912ba000 	add	x0, x0, #0xae8
   839b4:	f9400002 	ldr	x2, [x0]
   839b8:	b9802fe1 	ldrsw	x1, [sp, #44]
   839bc:	aa0103e0 	mov	x0, x1
   839c0:	d37ff800 	lsl	x0, x0, #1
   839c4:	8b010000 	add	x0, x0, x1
   839c8:	d37df000 	lsl	x0, x0, #3
   839cc:	8b000040 	add	x0, x2, x0
   839d0:	12800001 	mov	w1, #0xffffffff            	// #-1
   839d4:	39000001 	strb	w1, [x0]
   839d8:	b0000020 	adrp	x0, 88000 <get_current+0xce8>
   839dc:	912ba000 	add	x0, x0, #0xae8
   839e0:	f9400002 	ldr	x2, [x0]
   839e4:	b9802fe1 	ldrsw	x1, [sp, #44]
   839e8:	aa0103e0 	mov	x0, x1
   839ec:	d37ff800 	lsl	x0, x0, #1
   839f0:	8b010000 	add	x0, x0, x1
   839f4:	d37df000 	lsl	x0, x0, #3
   839f8:	8b000040 	add	x0, x2, x0
   839fc:	39400400 	ldrb	w0, [x0, #1]
   83a00:	b9002be0 	str	w0, [sp, #40]
   83a04:	b9402be0 	ldr	w0, [sp, #40]
   83a08:	2a0003e1 	mov	w1, w0
   83a0c:	b9402fe0 	ldr	w0, [sp, #44]
   83a10:	97fffec8 	bl	83530 <coalesce>
   83a14:	a8c37bfd 	ldp	x29, x30, [sp], #48
   83a18:	d65f03c0 	ret

0000000000083a1c <reserve>:
   83a1c:	a9bc7bfd 	stp	x29, x30, [sp, #-64]!
   83a20:	910003fd 	mov	x29, sp
   83a24:	f9000fe0 	str	x0, [sp, #24]
   83a28:	f9000be1 	str	x1, [sp, #16]
   83a2c:	f9400fe0 	ldr	x0, [sp, #24]
   83a30:	d34cfc00 	lsr	x0, x0, #12
   83a34:	b90033e0 	str	w0, [sp, #48]
   83a38:	f9400be0 	ldr	x0, [sp, #16]
   83a3c:	d34cfc00 	lsr	x0, x0, #12
   83a40:	b9002fe0 	str	w0, [sp, #44]
   83a44:	52800140 	mov	w0, #0xa                   	// #10
   83a48:	b9003fe0 	str	w0, [sp, #60]
   83a4c:	14000032 	b	83b14 <reserve+0xf8>
   83a50:	b9403fe0 	ldr	w0, [sp, #60]
   83a54:	52800021 	mov	w1, #0x1                   	// #1
   83a58:	1ac02021 	lsl	w1, w1, w0
   83a5c:	b94033e0 	ldr	w0, [sp, #48]
   83a60:	1ac10c02 	sdiv	w2, w0, w1
   83a64:	1b017c41 	mul	w1, w2, w1
   83a68:	4b010000 	sub	w0, w0, w1
   83a6c:	b94033e1 	ldr	w1, [sp, #48]
   83a70:	4b000020 	sub	w0, w1, w0
   83a74:	b9002be0 	str	w0, [sp, #40]
   83a78:	b9403fe0 	ldr	w0, [sp, #60]
   83a7c:	52800021 	mov	w1, #0x1                   	// #1
   83a80:	1ac02021 	lsl	w1, w1, w0
   83a84:	b9402fe0 	ldr	w0, [sp, #44]
   83a88:	1ac10c02 	sdiv	w2, w0, w1
   83a8c:	1b017c41 	mul	w1, w2, w1
   83a90:	4b010000 	sub	w0, w0, w1
   83a94:	b9402fe1 	ldr	w1, [sp, #44]
   83a98:	4b000020 	sub	w0, w1, w0
   83a9c:	b90027e0 	str	w0, [sp, #36]
   83aa0:	b9402be1 	ldr	w1, [sp, #40]
   83aa4:	b94027e0 	ldr	w0, [sp, #36]
   83aa8:	6b00003f 	cmp	w1, w0
   83aac:	540000c1 	b.ne	83ac4 <reserve+0xa8>  // b.any
   83ab0:	b9403fe0 	ldr	w0, [sp, #60]
   83ab4:	2a0003e1 	mov	w1, w0
   83ab8:	b9402be0 	ldr	w0, [sp, #40]
   83abc:	97fffe49 	bl	833e0 <split>
   83ac0:	14000012 	b	83b08 <reserve+0xec>
   83ac4:	b9402be0 	ldr	w0, [sp, #40]
   83ac8:	b9003be0 	str	w0, [sp, #56]
   83acc:	1400000b 	b	83af8 <reserve+0xdc>
   83ad0:	b9403fe0 	ldr	w0, [sp, #60]
   83ad4:	2a0003e1 	mov	w1, w0
   83ad8:	b9403be0 	ldr	w0, [sp, #56]
   83adc:	97fffe41 	bl	833e0 <split>
   83ae0:	b9403fe0 	ldr	w0, [sp, #60]
   83ae4:	52800021 	mov	w1, #0x1                   	// #1
   83ae8:	1ac02020 	lsl	w0, w1, w0
   83aec:	b9403be1 	ldr	w1, [sp, #56]
   83af0:	0b000020 	add	w0, w1, w0
   83af4:	b9003be0 	str	w0, [sp, #56]
   83af8:	b9403be1 	ldr	w1, [sp, #56]
   83afc:	b94027e0 	ldr	w0, [sp, #36]
   83b00:	6b00003f 	cmp	w1, w0
   83b04:	54fffe6d 	b.le	83ad0 <reserve+0xb4>
   83b08:	b9403fe0 	ldr	w0, [sp, #60]
   83b0c:	51000400 	sub	w0, w0, #0x1
   83b10:	b9003fe0 	str	w0, [sp, #60]
   83b14:	b9403fe0 	ldr	w0, [sp, #60]
   83b18:	7100001f 	cmp	w0, #0x0
   83b1c:	54fff9ac 	b.gt	83a50 <reserve+0x34>
   83b20:	b94033e0 	ldr	w0, [sp, #48]
   83b24:	b90037e0 	str	w0, [sp, #52]
   83b28:	14000013 	b	83b74 <reserve+0x158>
   83b2c:	b0000020 	adrp	x0, 88000 <get_current+0xce8>
   83b30:	912ba000 	add	x0, x0, #0xae8
   83b34:	f9400002 	ldr	x2, [x0]
   83b38:	b98037e1 	ldrsw	x1, [sp, #52]
   83b3c:	aa0103e0 	mov	x0, x1
   83b40:	d37ff800 	lsl	x0, x0, #1
   83b44:	8b010000 	add	x0, x0, x1
   83b48:	d37df000 	lsl	x0, x0, #3
   83b4c:	8b000040 	add	x0, x2, x0
   83b50:	39400400 	ldrb	w0, [x0, #1]
   83b54:	7100001f 	cmp	w0, #0x0
   83b58:	54000081 	b.ne	83b68 <reserve+0x14c>  // b.any
   83b5c:	b94037e1 	ldr	w1, [sp, #52]
   83b60:	52800000 	mov	w0, #0x0                   	// #0
   83b64:	97fffda9 	bl	83208 <list_del>
   83b68:	b94037e0 	ldr	w0, [sp, #52]
   83b6c:	11000400 	add	w0, w0, #0x1
   83b70:	b90037e0 	str	w0, [sp, #52]
   83b74:	b94037e1 	ldr	w1, [sp, #52]
   83b78:	b9402fe0 	ldr	w0, [sp, #44]
   83b7c:	6b00003f 	cmp	w1, w0
   83b80:	54fffd6d 	b.le	83b2c <reserve+0x110>
   83b84:	d503201f 	nop
   83b88:	d503201f 	nop
   83b8c:	a8c47bfd 	ldp	x29, x30, [sp], #64
   83b90:	d65f03c0 	ret

0000000000083b94 <cache_list_add>:
   83b94:	d10083ff 	sub	sp, sp, #0x20
   83b98:	b9000fe0 	str	w0, [sp, #12]
   83b9c:	f90003e1 	str	x1, [sp]
   83ba0:	b9400fe0 	ldr	w0, [sp, #12]
   83ba4:	51000401 	sub	w1, w0, #0x1
   83ba8:	b0000020 	adrp	x0, 88000 <get_current+0xce8>
   83bac:	912d2000 	add	x0, x0, #0xb48
   83bb0:	93407c21 	sxtw	x1, w1
   83bb4:	f8617800 	ldr	x0, [x0, x1, lsl #3]
   83bb8:	f100001f 	cmp	x0, #0x0
   83bbc:	540001e1 	b.ne	83bf8 <cache_list_add+0x64>  // b.any
   83bc0:	b9400fe0 	ldr	w0, [sp, #12]
   83bc4:	51000401 	sub	w1, w0, #0x1
   83bc8:	b0000020 	adrp	x0, 88000 <get_current+0xce8>
   83bcc:	912d2000 	add	x0, x0, #0xb48
   83bd0:	93407c21 	sxtw	x1, w1
   83bd4:	f94003e2 	ldr	x2, [sp]
   83bd8:	f8217802 	str	x2, [x0, x1, lsl #3]
   83bdc:	f94003e0 	ldr	x0, [sp]
   83be0:	f94003e1 	ldr	x1, [sp]
   83be4:	f9001001 	str	x1, [x0, #32]
   83be8:	f94003e0 	ldr	x0, [sp]
   83bec:	f94003e1 	ldr	x1, [sp]
   83bf0:	f9000c01 	str	x1, [x0, #24]
   83bf4:	1400001f 	b	83c70 <cache_list_add+0xdc>
   83bf8:	b9400fe0 	ldr	w0, [sp, #12]
   83bfc:	51000401 	sub	w1, w0, #0x1
   83c00:	b0000020 	adrp	x0, 88000 <get_current+0xce8>
   83c04:	912d2000 	add	x0, x0, #0xb48
   83c08:	93407c21 	sxtw	x1, w1
   83c0c:	f8617800 	ldr	x0, [x0, x1, lsl #3]
   83c10:	f9401000 	ldr	x0, [x0, #32]
   83c14:	f9000fe0 	str	x0, [sp, #24]
   83c18:	b9400fe0 	ldr	w0, [sp, #12]
   83c1c:	51000401 	sub	w1, w0, #0x1
   83c20:	b0000020 	adrp	x0, 88000 <get_current+0xce8>
   83c24:	912d2000 	add	x0, x0, #0xb48
   83c28:	93407c21 	sxtw	x1, w1
   83c2c:	f8617800 	ldr	x0, [x0, x1, lsl #3]
   83c30:	f94003e1 	ldr	x1, [sp]
   83c34:	f9001001 	str	x1, [x0, #32]
   83c38:	b9400fe0 	ldr	w0, [sp, #12]
   83c3c:	51000401 	sub	w1, w0, #0x1
   83c40:	b0000020 	adrp	x0, 88000 <get_current+0xce8>
   83c44:	912d2000 	add	x0, x0, #0xb48
   83c48:	93407c21 	sxtw	x1, w1
   83c4c:	f8617801 	ldr	x1, [x0, x1, lsl #3]
   83c50:	f94003e0 	ldr	x0, [sp]
   83c54:	f9000c01 	str	x1, [x0, #24]
   83c58:	f94003e0 	ldr	x0, [sp]
   83c5c:	f9400fe1 	ldr	x1, [sp, #24]
   83c60:	f9001001 	str	x1, [x0, #32]
   83c64:	f9400fe0 	ldr	x0, [sp, #24]
   83c68:	f94003e1 	ldr	x1, [sp]
   83c6c:	f9000c01 	str	x1, [x0, #24]
   83c70:	d503201f 	nop
   83c74:	910083ff 	add	sp, sp, #0x20
   83c78:	d65f03c0 	ret

0000000000083c7c <object_list_add>:
   83c7c:	d10043ff 	sub	sp, sp, #0x10
   83c80:	f90007e0 	str	x0, [sp, #8]
   83c84:	f90003e1 	str	x1, [sp]
   83c88:	f94007e0 	ldr	x0, [sp, #8]
   83c8c:	f9400801 	ldr	x1, [x0, #16]
   83c90:	f94003e0 	ldr	x0, [sp]
   83c94:	f9000001 	str	x1, [x0]
   83c98:	f94007e0 	ldr	x0, [sp, #8]
   83c9c:	f94003e1 	ldr	x1, [sp]
   83ca0:	f9000801 	str	x1, [x0, #16]
   83ca4:	d503201f 	nop
   83ca8:	910043ff 	add	sp, sp, #0x10
   83cac:	d65f03c0 	ret

0000000000083cb0 <object_list_pop>:
   83cb0:	d10083ff 	sub	sp, sp, #0x20
   83cb4:	f90007e0 	str	x0, [sp, #8]
   83cb8:	f94007e0 	ldr	x0, [sp, #8]
   83cbc:	f9400800 	ldr	x0, [x0, #16]
   83cc0:	f9000fe0 	str	x0, [sp, #24]
   83cc4:	f94007e0 	ldr	x0, [sp, #8]
   83cc8:	f9400800 	ldr	x0, [x0, #16]
   83ccc:	f9400001 	ldr	x1, [x0]
   83cd0:	f94007e0 	ldr	x0, [sp, #8]
   83cd4:	f9000801 	str	x1, [x0, #16]
   83cd8:	f9400fe0 	ldr	x0, [sp, #24]
   83cdc:	910083ff 	add	sp, sp, #0x20
   83ce0:	d65f03c0 	ret

0000000000083ce4 <kmem_cache_create>:
   83ce4:	a9bc7bfd 	stp	x29, x30, [sp, #-64]!
   83ce8:	910003fd 	mov	x29, sp
   83cec:	b9001fe0 	str	w0, [sp, #28]
   83cf0:	b9401fe0 	ldr	w0, [sp, #28]
   83cf4:	7100141f 	cmp	w0, #0x5
   83cf8:	540000cd 	b.le	83d10 <kmem_cache_create+0x2c>
   83cfc:	90000020 	adrp	x0, 87000 <set_exception_vector_table>
   83d00:	911ee000 	add	x0, x0, #0x7b8
   83d04:	94000190 	bl	84344 <uart_sends>
   83d08:	d2800000 	mov	x0, #0x0                   	// #0
   83d0c:	14000045 	b	83e20 <kmem_cache_create+0x13c>
   83d10:	52800500 	mov	w0, #0x28                  	// #40
   83d14:	97fff901 	bl	82118 <simple_malloc>
   83d18:	f9001be0 	str	x0, [sp, #48]
   83d1c:	f9401be0 	ldr	x0, [sp, #48]
   83d20:	f100001f 	cmp	x0, #0x0
   83d24:	540000c1 	b.ne	83d3c <kmem_cache_create+0x58>  // b.any
   83d28:	90000020 	adrp	x0, 87000 <set_exception_vector_table>
   83d2c:	911f8000 	add	x0, x0, #0x7e0
   83d30:	94000185 	bl	84344 <uart_sends>
   83d34:	d2800000 	mov	x0, #0x0                   	// #0
   83d38:	1400003a 	b	83e20 <kmem_cache_create+0x13c>
   83d3c:	f9401be0 	ldr	x0, [sp, #48]
   83d40:	b9401fe1 	ldr	w1, [sp, #28]
   83d44:	b9000001 	str	w1, [x0]
   83d48:	52800000 	mov	w0, #0x0                   	// #0
   83d4c:	97fffec1 	bl	83850 <alloc_pages>
   83d50:	aa0003e1 	mov	x1, x0
   83d54:	f9401be0 	ldr	x0, [sp, #48]
   83d58:	f9000401 	str	x1, [x0, #8]
   83d5c:	b0000020 	adrp	x0, 88000 <get_current+0xce8>
   83d60:	912ba000 	add	x0, x0, #0xae8
   83d64:	f9400002 	ldr	x2, [x0]
   83d68:	f9401be0 	ldr	x0, [sp, #48]
   83d6c:	f9400400 	ldr	x0, [x0, #8]
   83d70:	d34cfc01 	lsr	x1, x0, #12
   83d74:	aa0103e0 	mov	x0, x1
   83d78:	d37ff800 	lsl	x0, x0, #1
   83d7c:	8b010000 	add	x0, x0, x1
   83d80:	d37df000 	lsl	x0, x0, #3
   83d84:	8b000040 	add	x0, x2, x0
   83d88:	b9401fe1 	ldr	w1, [sp, #28]
   83d8c:	b9000401 	str	w1, [x0, #4]
   83d90:	f9401be0 	ldr	x0, [sp, #48]
   83d94:	f900081f 	str	xzr, [x0, #16]
   83d98:	b9401fe0 	ldr	w0, [sp, #28]
   83d9c:	51000400 	sub	w0, w0, #0x1
   83da0:	52800201 	mov	w1, #0x10                  	// #16
   83da4:	1ac02020 	lsl	w0, w1, w0
   83da8:	b9002fe0 	str	w0, [sp, #44]
   83dac:	52820001 	mov	w1, #0x1000                	// #4096
   83db0:	b9402fe0 	ldr	w0, [sp, #44]
   83db4:	1ac00c20 	sdiv	w0, w1, w0
   83db8:	b9002be0 	str	w0, [sp, #40]
   83dbc:	b9003fff 	str	wzr, [sp, #60]
   83dc0:	14000010 	b	83e00 <kmem_cache_create+0x11c>
   83dc4:	f9401be0 	ldr	x0, [sp, #48]
   83dc8:	f9400400 	ldr	x0, [x0, #8]
   83dcc:	aa0003e2 	mov	x2, x0
   83dd0:	b9403fe1 	ldr	w1, [sp, #60]
   83dd4:	b9402fe0 	ldr	w0, [sp, #44]
   83dd8:	1b007c20 	mul	w0, w1, w0
   83ddc:	93407c00 	sxtw	x0, w0
   83de0:	8b000040 	add	x0, x2, x0
   83de4:	f90013e0 	str	x0, [sp, #32]
   83de8:	f94013e1 	ldr	x1, [sp, #32]
   83dec:	f9401be0 	ldr	x0, [sp, #48]
   83df0:	97ffffa3 	bl	83c7c <object_list_add>
   83df4:	b9403fe0 	ldr	w0, [sp, #60]
   83df8:	11000400 	add	w0, w0, #0x1
   83dfc:	b9003fe0 	str	w0, [sp, #60]
   83e00:	b9403fe1 	ldr	w1, [sp, #60]
   83e04:	b9402be0 	ldr	w0, [sp, #40]
   83e08:	6b00003f 	cmp	w1, w0
   83e0c:	54fffdcb 	b.lt	83dc4 <kmem_cache_create+0xe0>  // b.tstop
   83e10:	f9401be1 	ldr	x1, [sp, #48]
   83e14:	b9401fe0 	ldr	w0, [sp, #28]
   83e18:	97ffff5f 	bl	83b94 <cache_list_add>
   83e1c:	f9401be0 	ldr	x0, [sp, #48]
   83e20:	a8c47bfd 	ldp	x29, x30, [sp], #64
   83e24:	d65f03c0 	ret

0000000000083e28 <kmem_cache_init>:
   83e28:	a9be7bfd 	stp	x29, x30, [sp, #-32]!
   83e2c:	910003fd 	mov	x29, sp
   83e30:	b9001fff 	str	wzr, [sp, #28]
   83e34:	1400000b 	b	83e60 <kmem_cache_init+0x38>
   83e38:	b0000020 	adrp	x0, 88000 <get_current+0xce8>
   83e3c:	912d2000 	add	x0, x0, #0xb48
   83e40:	b9801fe1 	ldrsw	x1, [sp, #28]
   83e44:	f821781f 	str	xzr, [x0, x1, lsl #3]
   83e48:	b9401fe0 	ldr	w0, [sp, #28]
   83e4c:	11000400 	add	w0, w0, #0x1
   83e50:	97ffffa5 	bl	83ce4 <kmem_cache_create>
   83e54:	b9401fe0 	ldr	w0, [sp, #28]
   83e58:	11000400 	add	w0, w0, #0x1
   83e5c:	b9001fe0 	str	w0, [sp, #28]
   83e60:	b9401fe0 	ldr	w0, [sp, #28]
   83e64:	7100101f 	cmp	w0, #0x4
   83e68:	54fffe8d 	b.le	83e38 <kmem_cache_init+0x10>
   83e6c:	d503201f 	nop
   83e70:	d503201f 	nop
   83e74:	a8c27bfd 	ldp	x29, x30, [sp], #32
   83e78:	d65f03c0 	ret

0000000000083e7c <kmem_cache_find>:
   83e7c:	a9bc7bfd 	stp	x29, x30, [sp, #-64]!
   83e80:	910003fd 	mov	x29, sp
   83e84:	b9001fe0 	str	w0, [sp, #28]
   83e88:	b9401fe0 	ldr	w0, [sp, #28]
   83e8c:	11003c00 	add	w0, w0, #0xf
   83e90:	13047c00 	asr	w0, w0, #4
   83e94:	b9002fe0 	str	w0, [sp, #44]
   83e98:	b9003fff 	str	wzr, [sp, #60]
   83e9c:	14000004 	b	83eac <kmem_cache_find+0x30>
   83ea0:	b9403fe0 	ldr	w0, [sp, #60]
   83ea4:	11000400 	add	w0, w0, #0x1
   83ea8:	b9003fe0 	str	w0, [sp, #60]
   83eac:	b9403fe0 	ldr	w0, [sp, #60]
   83eb0:	52800021 	mov	w1, #0x1                   	// #1
   83eb4:	1ac02020 	lsl	w0, w1, w0
   83eb8:	b9402fe1 	ldr	w1, [sp, #44]
   83ebc:	6b00003f 	cmp	w1, w0
   83ec0:	54ffff0c 	b.gt	83ea0 <kmem_cache_find+0x24>
   83ec4:	b9403fe0 	ldr	w0, [sp, #60]
   83ec8:	7100141f 	cmp	w0, #0x5
   83ecc:	540000cd 	b.le	83ee4 <kmem_cache_find+0x68>
   83ed0:	90000020 	adrp	x0, 87000 <set_exception_vector_table>
   83ed4:	911fe000 	add	x0, x0, #0x7f8
   83ed8:	9400011b 	bl	84344 <uart_sends>
   83edc:	d2800000 	mov	x0, #0x0                   	// #0
   83ee0:	1400001a 	b	83f48 <kmem_cache_find+0xcc>
   83ee4:	b0000020 	adrp	x0, 88000 <get_current+0xce8>
   83ee8:	912d2000 	add	x0, x0, #0xb48
   83eec:	b9803fe1 	ldrsw	x1, [sp, #60]
   83ef0:	f8617800 	ldr	x0, [x0, x1, lsl #3]
   83ef4:	f9001be0 	str	x0, [sp, #48]
   83ef8:	1400000f 	b	83f34 <kmem_cache_find+0xb8>
   83efc:	f9401be0 	ldr	x0, [sp, #48]
   83f00:	f9400c00 	ldr	x0, [x0, #24]
   83f04:	f9001be0 	str	x0, [sp, #48]
   83f08:	b0000020 	adrp	x0, 88000 <get_current+0xce8>
   83f0c:	912d2000 	add	x0, x0, #0xb48
   83f10:	b9803fe1 	ldrsw	x1, [sp, #60]
   83f14:	f8617800 	ldr	x0, [x0, x1, lsl #3]
   83f18:	f9401be1 	ldr	x1, [sp, #48]
   83f1c:	eb00003f 	cmp	x1, x0
   83f20:	540000a1 	b.ne	83f34 <kmem_cache_find+0xb8>  // b.any
   83f24:	b9403fe0 	ldr	w0, [sp, #60]
   83f28:	97ffff6f 	bl	83ce4 <kmem_cache_create>
   83f2c:	f9001be0 	str	x0, [sp, #48]
   83f30:	14000005 	b	83f44 <kmem_cache_find+0xc8>
   83f34:	f9401be0 	ldr	x0, [sp, #48]
   83f38:	f9400800 	ldr	x0, [x0, #16]
   83f3c:	f100001f 	cmp	x0, #0x0
   83f40:	54fffde0 	b.eq	83efc <kmem_cache_find+0x80>  // b.none
   83f44:	f9401be0 	ldr	x0, [sp, #48]
   83f48:	a8c47bfd 	ldp	x29, x30, [sp], #64
   83f4c:	d65f03c0 	ret

0000000000083f50 <address_to_cache>:
   83f50:	d100c3ff 	sub	sp, sp, #0x30
   83f54:	f90007e0 	str	x0, [sp, #8]
   83f58:	b90007e1 	str	w1, [sp, #4]
   83f5c:	f94007e0 	ldr	x0, [sp, #8]
   83f60:	d34cfc00 	lsr	x0, x0, #12
   83f64:	f90013e0 	str	x0, [sp, #32]
   83f68:	b0000020 	adrp	x0, 88000 <get_current+0xce8>
   83f6c:	912ba000 	add	x0, x0, #0xae8
   83f70:	f9400002 	ldr	x2, [x0]
   83f74:	b98007e1 	ldrsw	x1, [sp, #4]
   83f78:	aa0103e0 	mov	x0, x1
   83f7c:	d37ff800 	lsl	x0, x0, #1
   83f80:	8b010000 	add	x0, x0, x1
   83f84:	d37df000 	lsl	x0, x0, #3
   83f88:	8b000040 	add	x0, x2, x0
   83f8c:	b9400400 	ldr	w0, [x0, #4]
   83f90:	b9001fe0 	str	w0, [sp, #28]
   83f94:	b9401fe0 	ldr	w0, [sp, #28]
   83f98:	51000401 	sub	w1, w0, #0x1
   83f9c:	b0000020 	adrp	x0, 88000 <get_current+0xce8>
   83fa0:	912d2000 	add	x0, x0, #0xb48
   83fa4:	93407c21 	sxtw	x1, w1
   83fa8:	f8617800 	ldr	x0, [x0, x1, lsl #3]
   83fac:	f90017e0 	str	x0, [sp, #40]
   83fb0:	f94017e0 	ldr	x0, [sp, #40]
   83fb4:	f9400400 	ldr	x0, [x0, #8]
   83fb8:	d34cfc00 	lsr	x0, x0, #12
   83fbc:	f9000be0 	str	x0, [sp, #16]
   83fc0:	f94013e1 	ldr	x1, [sp, #32]
   83fc4:	f9400be0 	ldr	x0, [sp, #16]
   83fc8:	eb00003f 	cmp	x1, x0
   83fcc:	54000061 	b.ne	83fd8 <address_to_cache+0x88>  // b.any
   83fd0:	f94017e0 	ldr	x0, [sp, #40]
   83fd4:	1400000c 	b	84004 <address_to_cache+0xb4>
   83fd8:	f94017e0 	ldr	x0, [sp, #40]
   83fdc:	f9400c00 	ldr	x0, [x0, #24]
   83fe0:	f90017e0 	str	x0, [sp, #40]
   83fe4:	b0000020 	adrp	x0, 88000 <get_current+0xce8>
   83fe8:	912d2000 	add	x0, x0, #0xb48
   83fec:	b9801fe1 	ldrsw	x1, [sp, #28]
   83ff0:	f8617800 	ldr	x0, [x0, x1, lsl #3]
   83ff4:	f94017e1 	ldr	x1, [sp, #40]
   83ff8:	eb00003f 	cmp	x1, x0
   83ffc:	54fffda1 	b.ne	83fb0 <address_to_cache+0x60>  // b.any
   84000:	d2800000 	mov	x0, #0x0                   	// #0
   84004:	9100c3ff 	add	sp, sp, #0x30
   84008:	d65f03c0 	ret

000000000008400c <kmem_cache_alloc>:
   8400c:	a9bd7bfd 	stp	x29, x30, [sp, #-48]!
   84010:	910003fd 	mov	x29, sp
   84014:	f9000fe0 	str	x0, [sp, #24]
   84018:	b90017e1 	str	w1, [sp, #20]
   8401c:	f9400fe0 	ldr	x0, [sp, #24]
   84020:	97ffff24 	bl	83cb0 <object_list_pop>
   84024:	f90017e0 	str	x0, [sp, #40]
   84028:	f94017e0 	ldr	x0, [sp, #40]
   8402c:	a8c37bfd 	ldp	x29, x30, [sp], #48
   84030:	d65f03c0 	ret

0000000000084034 <kmem_cache_free>:
   84034:	a9be7bfd 	stp	x29, x30, [sp, #-32]!
   84038:	910003fd 	mov	x29, sp
   8403c:	f9000fe0 	str	x0, [sp, #24]
   84040:	f9000be1 	str	x1, [sp, #16]
   84044:	f9400be1 	ldr	x1, [sp, #16]
   84048:	f9400fe0 	ldr	x0, [sp, #24]
   8404c:	97ffff0c 	bl	83c7c <object_list_add>
   84050:	d503201f 	nop
   84054:	a8c27bfd 	ldp	x29, x30, [sp], #32
   84058:	d65f03c0 	ret

000000000008405c <kmalloc>:
   8405c:	a9bc7bfd 	stp	x29, x30, [sp, #-64]!
   84060:	910003fd 	mov	x29, sp
   84064:	b9001fe0 	str	w0, [sp, #28]
   84068:	b9401fe0 	ldr	w0, [sp, #28]
   8406c:	7103fc1f 	cmp	w0, #0xff
   84070:	540001ed 	b.le	840ac <kmalloc+0x50>
   84074:	b9003fff 	str	wzr, [sp, #60]
   84078:	14000004 	b	84088 <kmalloc+0x2c>
   8407c:	b9403fe0 	ldr	w0, [sp, #60]
   84080:	11000400 	add	w0, w0, #0x1
   84084:	b9003fe0 	str	w0, [sp, #60]
   84088:	b9403fe0 	ldr	w0, [sp, #60]
   8408c:	52820001 	mov	w1, #0x1000                	// #4096
   84090:	1ac02020 	lsl	w0, w1, w0
   84094:	b9401fe1 	ldr	w1, [sp, #28]
   84098:	6b00003f 	cmp	w1, w0
   8409c:	54ffff0c 	b.gt	8407c <kmalloc+0x20>
   840a0:	b9403fe0 	ldr	w0, [sp, #60]
   840a4:	97fffdeb 	bl	83850 <alloc_pages>
   840a8:	14000009 	b	840cc <kmalloc+0x70>
   840ac:	b9401fe0 	ldr	w0, [sp, #28]
   840b0:	97ffff73 	bl	83e7c <kmem_cache_find>
   840b4:	f9001be0 	str	x0, [sp, #48]
   840b8:	b9401fe1 	ldr	w1, [sp, #28]
   840bc:	f9401be0 	ldr	x0, [sp, #48]
   840c0:	97ffffd3 	bl	8400c <kmem_cache_alloc>
   840c4:	f90017e0 	str	x0, [sp, #40]
   840c8:	f94017e0 	ldr	x0, [sp, #40]
   840cc:	a8c47bfd 	ldp	x29, x30, [sp], #64
   840d0:	d65f03c0 	ret

00000000000840d4 <kfree>:
   840d4:	a9bd7bfd 	stp	x29, x30, [sp, #-48]!
   840d8:	910003fd 	mov	x29, sp
   840dc:	f9000fe0 	str	x0, [sp, #24]
   840e0:	f9400fe0 	ldr	x0, [sp, #24]
   840e4:	d34cfc00 	lsr	x0, x0, #12
   840e8:	b9002fe0 	str	w0, [sp, #44]
   840ec:	90000020 	adrp	x0, 88000 <get_current+0xce8>
   840f0:	912ba000 	add	x0, x0, #0xae8
   840f4:	f9400002 	ldr	x2, [x0]
   840f8:	b9802fe1 	ldrsw	x1, [sp, #44]
   840fc:	aa0103e0 	mov	x0, x1
   84100:	d37ff800 	lsl	x0, x0, #1
   84104:	8b010000 	add	x0, x0, x1
   84108:	d37df000 	lsl	x0, x0, #3
   8410c:	8b000040 	add	x0, x2, x0
   84110:	b9400400 	ldr	w0, [x0, #4]
   84114:	3100041f 	cmn	w0, #0x1
   84118:	54000120 	b.eq	8413c <kfree+0x68>  // b.none
   8411c:	b9402fe1 	ldr	w1, [sp, #44]
   84120:	f9400fe0 	ldr	x0, [sp, #24]
   84124:	97ffff8b 	bl	83f50 <address_to_cache>
   84128:	f90013e0 	str	x0, [sp, #32]
   8412c:	f9400fe1 	ldr	x1, [sp, #24]
   84130:	f94013e0 	ldr	x0, [sp, #32]
   84134:	97ffffc0 	bl	84034 <kmem_cache_free>
   84138:	14000003 	b	84144 <kfree+0x70>
   8413c:	f9400fe0 	ldr	x0, [sp, #24]
   84140:	97fffe05 	bl	83954 <free_pages>
   84144:	d503201f 	nop
   84148:	a8c37bfd 	ldp	x29, x30, [sp], #48
   8414c:	d65f03c0 	ret

0000000000084150 <delay>:
   84150:	d10043ff 	sub	sp, sp, #0x10
   84154:	b9000fe0 	str	w0, [sp, #12]
   84158:	14000002 	b	84160 <delay+0x10>
   8415c:	d503201f 	nop
   84160:	b9400fe0 	ldr	w0, [sp, #12]
   84164:	51000401 	sub	w1, w0, #0x1
   84168:	b9000fe1 	str	w1, [sp, #12]
   8416c:	7100001f 	cmp	w0, #0x0
   84170:	54ffff61 	b.ne	8415c <delay+0xc>  // b.any
   84174:	d503201f 	nop
   84178:	d503201f 	nop
   8417c:	910043ff 	add	sp, sp, #0x10
   84180:	d65f03c0 	ret

0000000000084184 <uart_init>:
   84184:	a9be7bfd 	stp	x29, x30, [sp, #-32]!
   84188:	910003fd 	mov	x29, sp
   8418c:	d2800080 	mov	x0, #0x4                   	// #4
   84190:	f2a7e400 	movk	x0, #0x3f20, lsl #16
   84194:	b9400000 	ldr	w0, [x0]
   84198:	b9001fe0 	str	w0, [sp, #28]
   8419c:	b9401fe0 	ldr	w0, [sp, #28]
   841a0:	12117000 	and	w0, w0, #0xffff8fff
   841a4:	b9001fe0 	str	w0, [sp, #28]
   841a8:	b9401fe0 	ldr	w0, [sp, #28]
   841ac:	32130000 	orr	w0, w0, #0x2000
   841b0:	b9001fe0 	str	w0, [sp, #28]
   841b4:	b9401fe0 	ldr	w0, [sp, #28]
   841b8:	120e7000 	and	w0, w0, #0xfffc7fff
   841bc:	b9001fe0 	str	w0, [sp, #28]
   841c0:	b9401fe0 	ldr	w0, [sp, #28]
   841c4:	32100000 	orr	w0, w0, #0x10000
   841c8:	b9001fe0 	str	w0, [sp, #28]
   841cc:	d2800080 	mov	x0, #0x4                   	// #4
   841d0:	f2a7e400 	movk	x0, #0x3f20, lsl #16
   841d4:	b9401fe1 	ldr	w1, [sp, #28]
   841d8:	b9000001 	str	w1, [x0]
   841dc:	d2801280 	mov	x0, #0x94                  	// #148
   841e0:	f2a7e400 	movk	x0, #0x3f20, lsl #16
   841e4:	b900001f 	str	wzr, [x0]
   841e8:	528012c0 	mov	w0, #0x96                  	// #150
   841ec:	97ffffd9 	bl	84150 <delay>
   841f0:	d2801300 	mov	x0, #0x98                  	// #152
   841f4:	f2a7e400 	movk	x0, #0x3f20, lsl #16
   841f8:	b9400001 	ldr	w1, [x0]
   841fc:	d2801300 	mov	x0, #0x98                  	// #152
   84200:	f2a7e400 	movk	x0, #0x3f20, lsl #16
   84204:	32120421 	orr	w1, w1, #0xc000
   84208:	b9000001 	str	w1, [x0]
   8420c:	528012c0 	mov	w0, #0x96                  	// #150
   84210:	97ffffd0 	bl	84150 <delay>
   84214:	d2801280 	mov	x0, #0x94                  	// #148
   84218:	f2a7e400 	movk	x0, #0x3f20, lsl #16
   8421c:	b900001f 	str	wzr, [x0]
   84220:	d2801300 	mov	x0, #0x98                  	// #152
   84224:	f2a7e400 	movk	x0, #0x3f20, lsl #16
   84228:	b900001f 	str	wzr, [x0]
   8422c:	d28a0080 	mov	x0, #0x5004                	// #20484
   84230:	f2a7e420 	movk	x0, #0x3f21, lsl #16
   84234:	52800021 	mov	w1, #0x1                   	// #1
   84238:	b9000001 	str	w1, [x0]
   8423c:	d28a0c00 	mov	x0, #0x5060                	// #20576
   84240:	f2a7e420 	movk	x0, #0x3f21, lsl #16
   84244:	b900001f 	str	wzr, [x0]
   84248:	d28a0880 	mov	x0, #0x5044                	// #20548
   8424c:	f2a7e420 	movk	x0, #0x3f21, lsl #16
   84250:	b900001f 	str	wzr, [x0]
   84254:	d28a0980 	mov	x0, #0x504c                	// #20556
   84258:	f2a7e420 	movk	x0, #0x3f21, lsl #16
   8425c:	52800061 	mov	w1, #0x3                   	// #3
   84260:	b9000001 	str	w1, [x0]
   84264:	d28a0a00 	mov	x0, #0x5050                	// #20560
   84268:	f2a7e420 	movk	x0, #0x3f21, lsl #16
   8426c:	b900001f 	str	wzr, [x0]
   84270:	d28a0d00 	mov	x0, #0x5068                	// #20584
   84274:	f2a7e420 	movk	x0, #0x3f21, lsl #16
   84278:	528021c1 	mov	w1, #0x10e                 	// #270
   8427c:	b9000001 	str	w1, [x0]
   84280:	d28a0900 	mov	x0, #0x5048                	// #20552
   84284:	f2a7e420 	movk	x0, #0x3f21, lsl #16
   84288:	528000c1 	mov	w1, #0x6                   	// #6
   8428c:	b9000001 	str	w1, [x0]
   84290:	d28a0c00 	mov	x0, #0x5060                	// #20576
   84294:	f2a7e420 	movk	x0, #0x3f21, lsl #16
   84298:	52800061 	mov	w1, #0x3                   	// #3
   8429c:	b9000001 	str	w1, [x0]
   842a0:	d503201f 	nop
   842a4:	a8c27bfd 	ldp	x29, x30, [sp], #32
   842a8:	d65f03c0 	ret

00000000000842ac <uart_recv>:
   842ac:	d10043ff 	sub	sp, sp, #0x10
   842b0:	d28a0a80 	mov	x0, #0x5054                	// #20564
   842b4:	f2a7e420 	movk	x0, #0x3f21, lsl #16
   842b8:	b9400000 	ldr	w0, [x0]
   842bc:	12000000 	and	w0, w0, #0x1
   842c0:	7100001f 	cmp	w0, #0x0
   842c4:	54000041 	b.ne	842cc <uart_recv+0x20>  // b.any
   842c8:	17fffffa 	b	842b0 <uart_recv+0x4>
   842cc:	d503201f 	nop
   842d0:	d28a0800 	mov	x0, #0x5040                	// #20544
   842d4:	f2a7e420 	movk	x0, #0x3f21, lsl #16
   842d8:	b9400000 	ldr	w0, [x0]
   842dc:	39003fe0 	strb	w0, [sp, #15]
   842e0:	39403fe0 	ldrb	w0, [sp, #15]
   842e4:	7100341f 	cmp	w0, #0xd
   842e8:	54000060 	b.eq	842f4 <uart_recv+0x48>  // b.none
   842ec:	39403fe0 	ldrb	w0, [sp, #15]
   842f0:	14000002 	b	842f8 <uart_recv+0x4c>
   842f4:	52800140 	mov	w0, #0xa                   	// #10
   842f8:	910043ff 	add	sp, sp, #0x10
   842fc:	d65f03c0 	ret

0000000000084300 <uart_send>:
   84300:	d10043ff 	sub	sp, sp, #0x10
   84304:	b9000fe0 	str	w0, [sp, #12]
   84308:	d28a0a80 	mov	x0, #0x5054                	// #20564
   8430c:	f2a7e420 	movk	x0, #0x3f21, lsl #16
   84310:	b9400000 	ldr	w0, [x0]
   84314:	121b0000 	and	w0, w0, #0x20
   84318:	7100001f 	cmp	w0, #0x0
   8431c:	54000041 	b.ne	84324 <uart_send+0x24>  // b.any
   84320:	17fffffa 	b	84308 <uart_send+0x8>
   84324:	d503201f 	nop
   84328:	d28a0800 	mov	x0, #0x5040                	// #20544
   8432c:	f2a7e420 	movk	x0, #0x3f21, lsl #16
   84330:	b9400fe1 	ldr	w1, [sp, #12]
   84334:	b9000001 	str	w1, [x0]
   84338:	d503201f 	nop
   8433c:	910043ff 	add	sp, sp, #0x10
   84340:	d65f03c0 	ret

0000000000084344 <uart_sends>:
   84344:	a9be7bfd 	stp	x29, x30, [sp, #-32]!
   84348:	910003fd 	mov	x29, sp
   8434c:	f9000fe0 	str	x0, [sp, #24]
   84350:	1400000c 	b	84380 <uart_sends+0x3c>
   84354:	f9400fe0 	ldr	x0, [sp, #24]
   84358:	39400000 	ldrb	w0, [x0]
   8435c:	7100281f 	cmp	w0, #0xa
   84360:	54000061 	b.ne	8436c <uart_sends+0x28>  // b.any
   84364:	528001a0 	mov	w0, #0xd                   	// #13
   84368:	97ffffe6 	bl	84300 <uart_send>
   8436c:	f9400fe0 	ldr	x0, [sp, #24]
   84370:	91000401 	add	x1, x0, #0x1
   84374:	f9000fe1 	str	x1, [sp, #24]
   84378:	39400000 	ldrb	w0, [x0]
   8437c:	97ffffe1 	bl	84300 <uart_send>
   84380:	f9400fe0 	ldr	x0, [sp, #24]
   84384:	39400000 	ldrb	w0, [x0]
   84388:	7100001f 	cmp	w0, #0x0
   8438c:	54fffe41 	b.ne	84354 <uart_sends+0x10>  // b.any
   84390:	d503201f 	nop
   84394:	d503201f 	nop
   84398:	a8c27bfd 	ldp	x29, x30, [sp], #32
   8439c:	d65f03c0 	ret

00000000000843a0 <uart_sendc>:
   843a0:	a9be7bfd 	stp	x29, x30, [sp, #-32]!
   843a4:	910003fd 	mov	x29, sp
   843a8:	39007fe0 	strb	w0, [sp, #31]
   843ac:	39407fe0 	ldrb	w0, [sp, #31]
   843b0:	7100281f 	cmp	w0, #0xa
   843b4:	54000061 	b.ne	843c0 <uart_sendc+0x20>  // b.any
   843b8:	528001a0 	mov	w0, #0xd                   	// #13
   843bc:	97ffffd1 	bl	84300 <uart_send>
   843c0:	39407fe0 	ldrb	w0, [sp, #31]
   843c4:	97ffffcf 	bl	84300 <uart_send>
   843c8:	d503201f 	nop
   843cc:	a8c27bfd 	ldp	x29, x30, [sp], #32
   843d0:	d65f03c0 	ret

00000000000843d4 <uart_sendh>:
   843d4:	a9bd7bfd 	stp	x29, x30, [sp, #-48]!
   843d8:	910003fd 	mov	x29, sp
   843dc:	b9001fe0 	str	w0, [sp, #28]
   843e0:	52800380 	mov	w0, #0x1c                  	// #28
   843e4:	b9002fe0 	str	w0, [sp, #44]
   843e8:	14000014 	b	84438 <uart_sendh+0x64>
   843ec:	b9402fe0 	ldr	w0, [sp, #44]
   843f0:	b9401fe1 	ldr	w1, [sp, #28]
   843f4:	1ac02420 	lsr	w0, w1, w0
   843f8:	12000c00 	and	w0, w0, #0xf
   843fc:	b9002be0 	str	w0, [sp, #40]
   84400:	b9402be0 	ldr	w0, [sp, #40]
   84404:	7100241f 	cmp	w0, #0x9
   84408:	54000069 	b.ls	84414 <uart_sendh+0x40>  // b.plast
   8440c:	528006e0 	mov	w0, #0x37                  	// #55
   84410:	14000002 	b	84418 <uart_sendh+0x44>
   84414:	52800600 	mov	w0, #0x30                  	// #48
   84418:	b9402be1 	ldr	w1, [sp, #40]
   8441c:	0b000020 	add	w0, w1, w0
   84420:	b9002be0 	str	w0, [sp, #40]
   84424:	b9402be0 	ldr	w0, [sp, #40]
   84428:	97ffffb6 	bl	84300 <uart_send>
   8442c:	b9402fe0 	ldr	w0, [sp, #44]
   84430:	51001000 	sub	w0, w0, #0x4
   84434:	b9002fe0 	str	w0, [sp, #44]
   84438:	b9402fe0 	ldr	w0, [sp, #44]
   8443c:	7100001f 	cmp	w0, #0x0
   84440:	54fffd6a 	b.ge	843ec <uart_sendh+0x18>  // b.tcont
   84444:	d503201f 	nop
   84448:	a8c37bfd 	ldp	x29, x30, [sp], #48
   8444c:	d65f03c0 	ret

0000000000084450 <uart_sendl>:
   84450:	a9bd7bfd 	stp	x29, x30, [sp, #-48]!
   84454:	910003fd 	mov	x29, sp
   84458:	f9000fe0 	str	x0, [sp, #24]
   8445c:	52800780 	mov	w0, #0x3c                  	// #60
   84460:	b9002fe0 	str	w0, [sp, #44]
   84464:	14000014 	b	844b4 <uart_sendl+0x64>
   84468:	b9402fe0 	ldr	w0, [sp, #44]
   8446c:	f9400fe1 	ldr	x1, [sp, #24]
   84470:	9ac02420 	lsr	x0, x1, x0
   84474:	12000c00 	and	w0, w0, #0xf
   84478:	b9002be0 	str	w0, [sp, #40]
   8447c:	b9402be0 	ldr	w0, [sp, #40]
   84480:	7100241f 	cmp	w0, #0x9
   84484:	54000069 	b.ls	84490 <uart_sendl+0x40>  // b.plast
   84488:	528006e0 	mov	w0, #0x37                  	// #55
   8448c:	14000002 	b	84494 <uart_sendl+0x44>
   84490:	52800600 	mov	w0, #0x30                  	// #48
   84494:	b9402be1 	ldr	w1, [sp, #40]
   84498:	0b000020 	add	w0, w1, w0
   8449c:	b9002be0 	str	w0, [sp, #40]
   844a0:	b9402be0 	ldr	w0, [sp, #40]
   844a4:	97ffff97 	bl	84300 <uart_send>
   844a8:	b9402fe0 	ldr	w0, [sp, #44]
   844ac:	51001000 	sub	w0, w0, #0x4
   844b0:	b9002fe0 	str	w0, [sp, #44]
   844b4:	b9402fe0 	ldr	w0, [sp, #44]
   844b8:	7100001f 	cmp	w0, #0x0
   844bc:	54fffd6a 	b.ge	84468 <uart_sendl+0x18>  // b.tcont
   844c0:	d503201f 	nop
   844c4:	a8c37bfd 	ldp	x29, x30, [sp], #48
   844c8:	d65f03c0 	ret

00000000000844cc <uart_sendi>:
   844cc:	a9bc7bfd 	stp	x29, x30, [sp, #-64]!
   844d0:	910003fd 	mov	x29, sp
   844d4:	b9001fe0 	str	w0, [sp, #28]
   844d8:	b9003fff 	str	wzr, [sp, #60]
   844dc:	b9003bff 	str	wzr, [sp, #56]
   844e0:	b9401fe0 	ldr	w0, [sp, #28]
   844e4:	7100001f 	cmp	w0, #0x0
   844e8:	540000ca 	b.ge	84500 <uart_sendi+0x34>  // b.tcont
   844ec:	52800020 	mov	w0, #0x1                   	// #1
   844f0:	b9003be0 	str	w0, [sp, #56]
   844f4:	b9401fe0 	ldr	w0, [sp, #28]
   844f8:	4b0003e0 	neg	w0, w0
   844fc:	b9001fe0 	str	w0, [sp, #28]
   84500:	b9401fe1 	ldr	w1, [sp, #28]
   84504:	528ccce0 	mov	w0, #0x6667                	// #26215
   84508:	72acccc0 	movk	w0, #0x6666, lsl #16
   8450c:	9b207c20 	smull	x0, w1, w0
   84510:	d360fc00 	lsr	x0, x0, #32
   84514:	13027c02 	asr	w2, w0, #2
   84518:	131f7c20 	asr	w0, w1, #31
   8451c:	4b000042 	sub	w2, w2, w0
   84520:	2a0203e0 	mov	w0, w2
   84524:	531e7400 	lsl	w0, w0, #2
   84528:	0b020000 	add	w0, w0, w2
   8452c:	531f7800 	lsl	w0, w0, #1
   84530:	4b000022 	sub	w2, w1, w0
   84534:	12001c41 	and	w1, w2, #0xff
   84538:	b9403fe0 	ldr	w0, [sp, #60]
   8453c:	11000402 	add	w2, w0, #0x1
   84540:	b9003fe2 	str	w2, [sp, #60]
   84544:	1100c021 	add	w1, w1, #0x30
   84548:	12001c22 	and	w2, w1, #0xff
   8454c:	93407c00 	sxtw	x0, w0
   84550:	910083e1 	add	x1, sp, #0x20
   84554:	38206822 	strb	w2, [x1, x0]
   84558:	b9401fe0 	ldr	w0, [sp, #28]
   8455c:	528ccce1 	mov	w1, #0x6667                	// #26215
   84560:	72acccc1 	movk	w1, #0x6666, lsl #16
   84564:	9b217c01 	smull	x1, w0, w1
   84568:	d360fc21 	lsr	x1, x1, #32
   8456c:	13027c21 	asr	w1, w1, #2
   84570:	131f7c00 	asr	w0, w0, #31
   84574:	4b000020 	sub	w0, w1, w0
   84578:	b9001fe0 	str	w0, [sp, #28]
   8457c:	b9401fe0 	ldr	w0, [sp, #28]
   84580:	7100001f 	cmp	w0, #0x0
   84584:	54fffbe1 	b.ne	84500 <uart_sendi+0x34>  // b.any
   84588:	b9403be0 	ldr	w0, [sp, #56]
   8458c:	7100001f 	cmp	w0, #0x0
   84590:	54000100 	b.eq	845b0 <uart_sendi+0xe4>  // b.none
   84594:	b9403fe0 	ldr	w0, [sp, #60]
   84598:	11000401 	add	w1, w0, #0x1
   8459c:	b9003fe1 	str	w1, [sp, #60]
   845a0:	93407c00 	sxtw	x0, w0
   845a4:	910083e1 	add	x1, sp, #0x20
   845a8:	528005a2 	mov	w2, #0x2d                  	// #45
   845ac:	38206822 	strb	w2, [x1, x0]
   845b0:	b9803fe0 	ldrsw	x0, [sp, #60]
   845b4:	910083e1 	add	x1, sp, #0x20
   845b8:	3820683f 	strb	wzr, [x1, x0]
   845bc:	b90037ff 	str	wzr, [sp, #52]
   845c0:	b90037ff 	str	wzr, [sp, #52]
   845c4:	1400001a 	b	8462c <uart_sendi+0x160>
   845c8:	b98037e0 	ldrsw	x0, [sp, #52]
   845cc:	910083e1 	add	x1, sp, #0x20
   845d0:	38606820 	ldrb	w0, [x1, x0]
   845d4:	3900cfe0 	strb	w0, [sp, #51]
   845d8:	b9403fe1 	ldr	w1, [sp, #60]
   845dc:	b94037e0 	ldr	w0, [sp, #52]
   845e0:	4b000020 	sub	w0, w1, w0
   845e4:	51000400 	sub	w0, w0, #0x1
   845e8:	93407c00 	sxtw	x0, w0
   845ec:	910083e1 	add	x1, sp, #0x20
   845f0:	38606822 	ldrb	w2, [x1, x0]
   845f4:	b98037e0 	ldrsw	x0, [sp, #52]
   845f8:	910083e1 	add	x1, sp, #0x20
   845fc:	38206822 	strb	w2, [x1, x0]
   84600:	b9403fe1 	ldr	w1, [sp, #60]
   84604:	b94037e0 	ldr	w0, [sp, #52]
   84608:	4b000020 	sub	w0, w1, w0
   8460c:	51000400 	sub	w0, w0, #0x1
   84610:	93407c00 	sxtw	x0, w0
   84614:	910083e1 	add	x1, sp, #0x20
   84618:	3940cfe2 	ldrb	w2, [sp, #51]
   8461c:	38206822 	strb	w2, [x1, x0]
   84620:	b94037e0 	ldr	w0, [sp, #52]
   84624:	11000400 	add	w0, w0, #0x1
   84628:	b90037e0 	str	w0, [sp, #52]
   8462c:	b9403fe0 	ldr	w0, [sp, #60]
   84630:	531f7c01 	lsr	w1, w0, #31
   84634:	0b000020 	add	w0, w1, w0
   84638:	13017c00 	asr	w0, w0, #1
   8463c:	2a0003e1 	mov	w1, w0
   84640:	b94037e0 	ldr	w0, [sp, #52]
   84644:	6b01001f 	cmp	w0, w1
   84648:	54fffc0b 	b.lt	845c8 <uart_sendi+0xfc>  // b.tstop
   8464c:	910083e0 	add	x0, sp, #0x20
   84650:	97ffff3d 	bl	84344 <uart_sends>
   84654:	d503201f 	nop
   84658:	a8c47bfd 	ldp	x29, x30, [sp], #64
   8465c:	d65f03c0 	ret

0000000000084660 <uart_async_recv>:
   84660:	d10043ff 	sub	sp, sp, #0x10
   84664:	d28a0880 	mov	x0, #0x5044                	// #20548
   84668:	f2a7e420 	movk	x0, #0x3f21, lsl #16
   8466c:	b9400001 	ldr	w1, [x0]
   84670:	d28a0880 	mov	x0, #0x5044                	// #20548
   84674:	f2a7e420 	movk	x0, #0x3f21, lsl #16
   84678:	121f7821 	and	w1, w1, #0xfffffffe
   8467c:	b9000001 	str	w1, [x0]
   84680:	90000020 	adrp	x0, 88000 <get_current+0xce8>
   84684:	9135d000 	add	x0, x0, #0xd74
   84688:	b9400001 	ldr	w1, [x0]
   8468c:	90000020 	adrp	x0, 88000 <get_current+0xce8>
   84690:	9135c000 	add	x0, x0, #0xd70
   84694:	b9400000 	ldr	w0, [x0]
   84698:	6b00003f 	cmp	w1, w0
   8469c:	540002c0 	b.eq	846f4 <uart_async_recv+0x94>  // b.none
   846a0:	90000020 	adrp	x0, 88000 <get_current+0xce8>
   846a4:	9135d000 	add	x0, x0, #0xd74
   846a8:	b9400002 	ldr	w2, [x0]
   846ac:	90000020 	adrp	x0, 88000 <get_current+0xce8>
   846b0:	912dc001 	add	x1, x0, #0xb70
   846b4:	93407c40 	sxtw	x0, w2
   846b8:	38606820 	ldrb	w0, [x1, x0]
   846bc:	39003fe0 	strb	w0, [sp, #15]
   846c0:	90000020 	adrp	x0, 88000 <get_current+0xce8>
   846c4:	9135d000 	add	x0, x0, #0xd74
   846c8:	b9400000 	ldr	w0, [x0]
   846cc:	11000400 	add	w0, w0, #0x1
   846d0:	6b0003e1 	negs	w1, w0
   846d4:	12001c00 	and	w0, w0, #0xff
   846d8:	12001c21 	and	w1, w1, #0xff
   846dc:	5a814401 	csneg	w1, w0, w1, mi  // mi = first
   846e0:	90000020 	adrp	x0, 88000 <get_current+0xce8>
   846e4:	9135d000 	add	x0, x0, #0xd74
   846e8:	b9000001 	str	w1, [x0]
   846ec:	39403fe0 	ldrb	w0, [sp, #15]
   846f0:	14000002 	b	846f8 <uart_async_recv+0x98>
   846f4:	52800000 	mov	w0, #0x0                   	// #0
   846f8:	910043ff 	add	sp, sp, #0x10
   846fc:	d65f03c0 	ret

0000000000084700 <uart_async_gets>:
   84700:	d10083ff 	sub	sp, sp, #0x20
   84704:	f90007e0 	str	x0, [sp, #8]
   84708:	b90007e1 	str	w1, [sp, #4]
   8470c:	d28a0880 	mov	x0, #0x5044                	// #20548
   84710:	f2a7e420 	movk	x0, #0x3f21, lsl #16
   84714:	b9400001 	ldr	w1, [x0]
   84718:	d28a0880 	mov	x0, #0x5044                	// #20548
   8471c:	f2a7e420 	movk	x0, #0x3f21, lsl #16
   84720:	121f7821 	and	w1, w1, #0xfffffffe
   84724:	b9000001 	str	w1, [x0]
   84728:	b9001fff 	str	wzr, [sp, #28]
   8472c:	1400001a 	b	84794 <uart_async_gets+0x94>
   84730:	90000020 	adrp	x0, 88000 <get_current+0xce8>
   84734:	9135d000 	add	x0, x0, #0xd74
   84738:	b9400003 	ldr	w3, [x0]
   8473c:	b9801fe0 	ldrsw	x0, [sp, #28]
   84740:	f94007e1 	ldr	x1, [sp, #8]
   84744:	8b000020 	add	x0, x1, x0
   84748:	90000021 	adrp	x1, 88000 <get_current+0xce8>
   8474c:	912dc022 	add	x2, x1, #0xb70
   84750:	93407c61 	sxtw	x1, w3
   84754:	38616841 	ldrb	w1, [x2, x1]
   84758:	39000001 	strb	w1, [x0]
   8475c:	90000020 	adrp	x0, 88000 <get_current+0xce8>
   84760:	9135d000 	add	x0, x0, #0xd74
   84764:	b9400000 	ldr	w0, [x0]
   84768:	11000400 	add	w0, w0, #0x1
   8476c:	6b0003e1 	negs	w1, w0
   84770:	12001c00 	and	w0, w0, #0xff
   84774:	12001c21 	and	w1, w1, #0xff
   84778:	5a814401 	csneg	w1, w0, w1, mi  // mi = first
   8477c:	90000020 	adrp	x0, 88000 <get_current+0xce8>
   84780:	9135d000 	add	x0, x0, #0xd74
   84784:	b9000001 	str	w1, [x0]
   84788:	b9401fe0 	ldr	w0, [sp, #28]
   8478c:	11000400 	add	w0, w0, #0x1
   84790:	b9001fe0 	str	w0, [sp, #28]
   84794:	90000020 	adrp	x0, 88000 <get_current+0xce8>
   84798:	9135d000 	add	x0, x0, #0xd74
   8479c:	b9400001 	ldr	w1, [x0]
   847a0:	90000020 	adrp	x0, 88000 <get_current+0xce8>
   847a4:	9135c000 	add	x0, x0, #0xd70
   847a8:	b9400000 	ldr	w0, [x0]
   847ac:	6b00003f 	cmp	w1, w0
   847b0:	54fffc01 	b.ne	84730 <uart_async_gets+0x30>  // b.any
   847b4:	b9801fe0 	ldrsw	x0, [sp, #28]
   847b8:	f94007e1 	ldr	x1, [sp, #8]
   847bc:	8b000020 	add	x0, x1, x0
   847c0:	3900001f 	strb	wzr, [x0]
   847c4:	d503201f 	nop
   847c8:	910083ff 	add	sp, sp, #0x20
   847cc:	d65f03c0 	ret

00000000000847d0 <uart_async_send>:
   847d0:	d10043ff 	sub	sp, sp, #0x10
   847d4:	39003fe0 	strb	w0, [sp, #15]
   847d8:	39403fe0 	ldrb	w0, [sp, #15]
   847dc:	7100281f 	cmp	w0, #0xa
   847e0:	54000281 	b.ne	84830 <uart_async_send+0x60>  // b.any
   847e4:	90000020 	adrp	x0, 88000 <get_current+0xce8>
   847e8:	9135e000 	add	x0, x0, #0xd78
   847ec:	b9400002 	ldr	w2, [x0]
   847f0:	90000020 	adrp	x0, 88000 <get_current+0xce8>
   847f4:	9131c001 	add	x1, x0, #0xc70
   847f8:	93407c40 	sxtw	x0, w2
   847fc:	528001a2 	mov	w2, #0xd                   	// #13
   84800:	38206822 	strb	w2, [x1, x0]
   84804:	90000020 	adrp	x0, 88000 <get_current+0xce8>
   84808:	9135e000 	add	x0, x0, #0xd78
   8480c:	b9400000 	ldr	w0, [x0]
   84810:	11000400 	add	w0, w0, #0x1
   84814:	6b0003e1 	negs	w1, w0
   84818:	12001c00 	and	w0, w0, #0xff
   8481c:	12001c21 	and	w1, w1, #0xff
   84820:	5a814401 	csneg	w1, w0, w1, mi  // mi = first
   84824:	90000020 	adrp	x0, 88000 <get_current+0xce8>
   84828:	9135e000 	add	x0, x0, #0xd78
   8482c:	b9000001 	str	w1, [x0]
   84830:	90000020 	adrp	x0, 88000 <get_current+0xce8>
   84834:	9135e000 	add	x0, x0, #0xd78
   84838:	b9400002 	ldr	w2, [x0]
   8483c:	90000020 	adrp	x0, 88000 <get_current+0xce8>
   84840:	9131c001 	add	x1, x0, #0xc70
   84844:	93407c40 	sxtw	x0, w2
   84848:	39403fe2 	ldrb	w2, [sp, #15]
   8484c:	38206822 	strb	w2, [x1, x0]
   84850:	90000020 	adrp	x0, 88000 <get_current+0xce8>
   84854:	9135e000 	add	x0, x0, #0xd78
   84858:	b9400000 	ldr	w0, [x0]
   8485c:	11000400 	add	w0, w0, #0x1
   84860:	6b0003e1 	negs	w1, w0
   84864:	12001c00 	and	w0, w0, #0xff
   84868:	12001c21 	and	w1, w1, #0xff
   8486c:	5a814401 	csneg	w1, w0, w1, mi  // mi = first
   84870:	90000020 	adrp	x0, 88000 <get_current+0xce8>
   84874:	9135e000 	add	x0, x0, #0xd78
   84878:	b9000001 	str	w1, [x0]
   8487c:	d28a0880 	mov	x0, #0x5044                	// #20548
   84880:	f2a7e420 	movk	x0, #0x3f21, lsl #16
   84884:	b9400001 	ldr	w1, [x0]
   84888:	d28a0880 	mov	x0, #0x5044                	// #20548
   8488c:	f2a7e420 	movk	x0, #0x3f21, lsl #16
   84890:	321f0021 	orr	w1, w1, #0x2
   84894:	b9000001 	str	w1, [x0]
   84898:	d503201f 	nop
   8489c:	910043ff 	add	sp, sp, #0x10
   848a0:	d65f03c0 	ret

00000000000848a4 <uart_async_sends>:
   848a4:	a9bd7bfd 	stp	x29, x30, [sp, #-48]!
   848a8:	910003fd 	mov	x29, sp
   848ac:	f9000fe0 	str	x0, [sp, #24]
   848b0:	f9400fe0 	ldr	x0, [sp, #24]
   848b4:	940000f4 	bl	84c84 <strlen>
   848b8:	b9002be0 	str	w0, [sp, #40]
   848bc:	b9002fff 	str	wzr, [sp, #44]
   848c0:	14000033 	b	8498c <uart_async_sends+0xe8>
   848c4:	b9802fe0 	ldrsw	x0, [sp, #44]
   848c8:	f9400fe1 	ldr	x1, [sp, #24]
   848cc:	8b000020 	add	x0, x1, x0
   848d0:	39400000 	ldrb	w0, [x0]
   848d4:	7100281f 	cmp	w0, #0xa
   848d8:	54000281 	b.ne	84928 <uart_async_sends+0x84>  // b.any
   848dc:	90000020 	adrp	x0, 88000 <get_current+0xce8>
   848e0:	9135e000 	add	x0, x0, #0xd78
   848e4:	b9400002 	ldr	w2, [x0]
   848e8:	90000020 	adrp	x0, 88000 <get_current+0xce8>
   848ec:	9131c001 	add	x1, x0, #0xc70
   848f0:	93407c40 	sxtw	x0, w2
   848f4:	528001a2 	mov	w2, #0xd                   	// #13
   848f8:	38206822 	strb	w2, [x1, x0]
   848fc:	90000020 	adrp	x0, 88000 <get_current+0xce8>
   84900:	9135e000 	add	x0, x0, #0xd78
   84904:	b9400000 	ldr	w0, [x0]
   84908:	11000400 	add	w0, w0, #0x1
   8490c:	6b0003e1 	negs	w1, w0
   84910:	12001c00 	and	w0, w0, #0xff
   84914:	12001c21 	and	w1, w1, #0xff
   84918:	5a814401 	csneg	w1, w0, w1, mi  // mi = first
   8491c:	90000020 	adrp	x0, 88000 <get_current+0xce8>
   84920:	9135e000 	add	x0, x0, #0xd78
   84924:	b9000001 	str	w1, [x0]
   84928:	b9802fe0 	ldrsw	x0, [sp, #44]
   8492c:	f9400fe1 	ldr	x1, [sp, #24]
   84930:	8b000020 	add	x0, x1, x0
   84934:	90000021 	adrp	x1, 88000 <get_current+0xce8>
   84938:	9135e021 	add	x1, x1, #0xd78
   8493c:	b9400023 	ldr	w3, [x1]
   84940:	39400002 	ldrb	w2, [x0]
   84944:	90000020 	adrp	x0, 88000 <get_current+0xce8>
   84948:	9131c001 	add	x1, x0, #0xc70
   8494c:	93407c60 	sxtw	x0, w3
   84950:	38206822 	strb	w2, [x1, x0]
   84954:	90000020 	adrp	x0, 88000 <get_current+0xce8>
   84958:	9135e000 	add	x0, x0, #0xd78
   8495c:	b9400000 	ldr	w0, [x0]
   84960:	11000400 	add	w0, w0, #0x1
   84964:	6b0003e1 	negs	w1, w0
   84968:	12001c00 	and	w0, w0, #0xff
   8496c:	12001c21 	and	w1, w1, #0xff
   84970:	5a814401 	csneg	w1, w0, w1, mi  // mi = first
   84974:	90000020 	adrp	x0, 88000 <get_current+0xce8>
   84978:	9135e000 	add	x0, x0, #0xd78
   8497c:	b9000001 	str	w1, [x0]
   84980:	b9402fe0 	ldr	w0, [sp, #44]
   84984:	11000400 	add	w0, w0, #0x1
   84988:	b9002fe0 	str	w0, [sp, #44]
   8498c:	b9402fe1 	ldr	w1, [sp, #44]
   84990:	b9402be0 	ldr	w0, [sp, #40]
   84994:	6b00003f 	cmp	w1, w0
   84998:	54fff96b 	b.lt	848c4 <uart_async_sends+0x20>  // b.tstop
   8499c:	d28a0880 	mov	x0, #0x5044                	// #20548
   849a0:	f2a7e420 	movk	x0, #0x3f21, lsl #16
   849a4:	b9400001 	ldr	w1, [x0]
   849a8:	d28a0880 	mov	x0, #0x5044                	// #20548
   849ac:	f2a7e420 	movk	x0, #0x3f21, lsl #16
   849b0:	321f0021 	orr	w1, w1, #0x2
   849b4:	b9000001 	str	w1, [x0]
   849b8:	d503201f 	nop
   849bc:	a8c37bfd 	ldp	x29, x30, [sp], #48
   849c0:	d65f03c0 	ret

00000000000849c4 <uart_async_test>:
   849c4:	d10843ff 	sub	sp, sp, #0x210
   849c8:	a9007bfd 	stp	x29, x30, [sp]
   849cc:	910003fd 	mov	x29, sp
   849d0:	f0000000 	adrp	x0, 87000 <set_exception_vector_table>
   849d4:	91206000 	add	x0, x0, #0x818
   849d8:	97fffe5b 	bl	84344 <uart_sends>
   849dc:	910443e0 	add	x0, sp, #0x110
   849e0:	940001de 	bl	85158 <gets>
   849e4:	910443e0 	add	x0, sp, #0x110
   849e8:	94000216 	bl	85240 <atoi>
   849ec:	7100041f 	cmp	w0, #0x1
   849f0:	54000080 	b.eq	84a00 <uart_async_test+0x3c>  // b.none
   849f4:	7100081f 	cmp	w0, #0x2
   849f8:	540003e0 	b.eq	84a74 <uart_async_test+0xb0>  // b.none
   849fc:	1400002a 	b	84aa4 <uart_async_test+0xe0>
   84a00:	f0000000 	adrp	x0, 87000 <set_exception_vector_table>
   84a04:	91210000 	add	x0, x0, #0x840
   84a08:	97fffe4f 	bl	84344 <uart_sends>
   84a0c:	97fff8ad 	bl	82cc0 <mini_uart_irq_enable>
   84a10:	d28a0880 	mov	x0, #0x5044                	// #20548
   84a14:	f2a7e420 	movk	x0, #0x3f21, lsl #16
   84a18:	b9400001 	ldr	w1, [x0]
   84a1c:	d28a0880 	mov	x0, #0x5044                	// #20548
   84a20:	f2a7e420 	movk	x0, #0x3f21, lsl #16
   84a24:	32000021 	orr	w1, w1, #0x1
   84a28:	b9000001 	str	w1, [x0]
   84a2c:	5292d000 	mov	w0, #0x9680                	// #38528
   84a30:	72a01300 	movk	w0, #0x98, lsl #16
   84a34:	97fffdc7 	bl	84150 <delay>
   84a38:	910043e0 	add	x0, sp, #0x10
   84a3c:	52802001 	mov	w1, #0x100                 	// #256
   84a40:	97ffff30 	bl	84700 <uart_async_gets>
   84a44:	f0000000 	adrp	x0, 87000 <set_exception_vector_table>
   84a48:	91216000 	add	x0, x0, #0x858
   84a4c:	97ffff96 	bl	848a4 <uart_async_sends>
   84a50:	910043e0 	add	x0, sp, #0x10
   84a54:	97ffff94 	bl	848a4 <uart_async_sends>
   84a58:	52800140 	mov	w0, #0xa                   	// #10
   84a5c:	97ffff5d 	bl	847d0 <uart_async_send>
   84a60:	5292d000 	mov	w0, #0x9680                	// #38528
   84a64:	72a01300 	movk	w0, #0x98, lsl #16
   84a68:	97fffdba 	bl	84150 <delay>
   84a6c:	97fff89e 	bl	82ce4 <mini_uart_irq_disable>
   84a70:	14000011 	b	84ab4 <uart_async_test+0xf0>
   84a74:	f0000000 	adrp	x0, 87000 <set_exception_vector_table>
   84a78:	9121c000 	add	x0, x0, #0x870
   84a7c:	97fffe32 	bl	84344 <uart_sends>
   84a80:	97fff890 	bl	82cc0 <mini_uart_irq_enable>
   84a84:	f0000000 	adrp	x0, 87000 <set_exception_vector_table>
   84a88:	91222000 	add	x0, x0, #0x888
   84a8c:	97ffff86 	bl	848a4 <uart_async_sends>
   84a90:	5292d000 	mov	w0, #0x9680                	// #38528
   84a94:	72a01300 	movk	w0, #0x98, lsl #16
   84a98:	97fffdae 	bl	84150 <delay>
   84a9c:	97fff892 	bl	82ce4 <mini_uart_irq_disable>
   84aa0:	14000005 	b	84ab4 <uart_async_test+0xf0>
   84aa4:	f0000000 	adrp	x0, 87000 <set_exception_vector_table>
   84aa8:	91224000 	add	x0, x0, #0x890
   84aac:	97fffe26 	bl	84344 <uart_sends>
   84ab0:	d503201f 	nop
   84ab4:	d503201f 	nop
   84ab8:	a9407bfd 	ldp	x29, x30, [sp]
   84abc:	910843ff 	add	sp, sp, #0x210
   84ac0:	d65f03c0 	ret

0000000000084ac4 <shell_exec>:
   84ac4:	a9a97bfd 	stp	x29, x30, [sp, #-368]!
   84ac8:	910003fd 	mov	x29, sp
   84acc:	910183e0 	add	x0, sp, #0x60
   84ad0:	52802002 	mov	w2, #0x100                 	// #256
   84ad4:	52800001 	mov	w1, #0x0                   	// #0
   84ad8:	94000146 	bl	84ff0 <memset>
   84adc:	b9016fff 	str	wzr, [sp, #364]
   84ae0:	f0000000 	adrp	x0, 87000 <set_exception_vector_table>
   84ae4:	9122a000 	add	x0, x0, #0x8a8
   84ae8:	97fffe17 	bl	84344 <uart_sends>
   84aec:	910183e0 	add	x0, sp, #0x60
   84af0:	9400019a 	bl	85158 <gets>
   84af4:	910183e2 	add	x2, sp, #0x60
   84af8:	f0000000 	adrp	x0, 87000 <set_exception_vector_table>
   84afc:	9122c001 	add	x1, x0, #0x8b0
   84b00:	aa0203e0 	mov	x0, x2
   84b04:	94000070 	bl	84cc4 <strcmp>
   84b08:	7100001f 	cmp	w0, #0x0
   84b0c:	540003a0 	b.eq	84b80 <shell_exec+0xbc>  // b.none
   84b10:	910183e2 	add	x2, sp, #0x60
   84b14:	f0000000 	adrp	x0, 87000 <set_exception_vector_table>
   84b18:	9122e001 	add	x1, x0, #0x8b8
   84b1c:	aa0203e0 	mov	x0, x2
   84b20:	940000bb 	bl	84e0c <strtok>
   84b24:	f900b3e0 	str	x0, [sp, #352]
   84b28:	1400000e 	b	84b60 <shell_exec+0x9c>
   84b2c:	b9416fe0 	ldr	w0, [sp, #364]
   84b30:	11000401 	add	w1, w0, #0x1
   84b34:	b9016fe1 	str	w1, [sp, #364]
   84b38:	93407c00 	sxtw	x0, w0
   84b3c:	d37df000 	lsl	x0, x0, #3
   84b40:	910043e1 	add	x1, sp, #0x10
   84b44:	f940b3e2 	ldr	x2, [sp, #352]
   84b48:	f8206822 	str	x2, [x1, x0]
   84b4c:	f0000000 	adrp	x0, 87000 <set_exception_vector_table>
   84b50:	9122e001 	add	x1, x0, #0x8b8
   84b54:	d2800000 	mov	x0, #0x0                   	// #0
   84b58:	940000ad 	bl	84e0c <strtok>
   84b5c:	f900b3e0 	str	x0, [sp, #352]
   84b60:	f940b3e0 	ldr	x0, [sp, #352]
   84b64:	f100001f 	cmp	x0, #0x0
   84b68:	54fffe21 	b.ne	84b2c <shell_exec+0x68>  // b.any
   84b6c:	910043e0 	add	x0, sp, #0x10
   84b70:	aa0003e1 	mov	x1, x0
   84b74:	b9416fe0 	ldr	w0, [sp, #364]
   84b78:	94000004 	bl	84b88 <command_exec>
   84b7c:	17ffffd8 	b	84adc <shell_exec+0x18>
   84b80:	d503201f 	nop
   84b84:	17ffffd6 	b	84adc <shell_exec+0x18>

0000000000084b88 <command_exec>:
   84b88:	a9bd7bfd 	stp	x29, x30, [sp, #-48]!
   84b8c:	910003fd 	mov	x29, sp
   84b90:	b9001fe0 	str	w0, [sp, #28]
   84b94:	f9000be1 	str	x1, [sp, #16]
   84b98:	b9002fff 	str	wzr, [sp, #44]
   84b9c:	1400002f 	b	84c58 <command_exec+0xd0>
   84ba0:	f9400be0 	ldr	x0, [sp, #16]
   84ba4:	f9400003 	ldr	x3, [x0]
   84ba8:	90000020 	adrp	x0, 88000 <get_current+0xce8>
   84bac:	f944cc02 	ldr	x2, [x0, #2456]
   84bb0:	b9802fe1 	ldrsw	x1, [sp, #44]
   84bb4:	aa0103e0 	mov	x0, x1
   84bb8:	d37ff800 	lsl	x0, x0, #1
   84bbc:	8b010000 	add	x0, x0, x1
   84bc0:	d37df000 	lsl	x0, x0, #3
   84bc4:	8b000040 	add	x0, x2, x0
   84bc8:	f9400000 	ldr	x0, [x0]
   84bcc:	aa0003e1 	mov	x1, x0
   84bd0:	aa0303e0 	mov	x0, x3
   84bd4:	9400003c 	bl	84cc4 <strcmp>
   84bd8:	7100001f 	cmp	w0, #0x0
   84bdc:	54000381 	b.ne	84c4c <command_exec+0xc4>  // b.any
   84be0:	b9401fe0 	ldr	w0, [sp, #28]
   84be4:	7100041f 	cmp	w0, #0x1
   84be8:	540001a1 	b.ne	84c1c <command_exec+0x94>  // b.any
   84bec:	90000020 	adrp	x0, 88000 <get_current+0xce8>
   84bf0:	f944cc02 	ldr	x2, [x0, #2456]
   84bf4:	b9802fe1 	ldrsw	x1, [sp, #44]
   84bf8:	aa0103e0 	mov	x0, x1
   84bfc:	d37ff800 	lsl	x0, x0, #1
   84c00:	8b010000 	add	x0, x0, x1
   84c04:	d37df000 	lsl	x0, x0, #3
   84c08:	8b000040 	add	x0, x2, x0
   84c0c:	f9400801 	ldr	x1, [x0, #16]
   84c10:	d2800000 	mov	x0, #0x0                   	// #0
   84c14:	d63f0020 	blr	x1
   84c18:	14000019 	b	84c7c <command_exec+0xf4>
   84c1c:	90000020 	adrp	x0, 88000 <get_current+0xce8>
   84c20:	f944cc02 	ldr	x2, [x0, #2456]
   84c24:	b9802fe1 	ldrsw	x1, [sp, #44]
   84c28:	aa0103e0 	mov	x0, x1
   84c2c:	d37ff800 	lsl	x0, x0, #1
   84c30:	8b010000 	add	x0, x0, x1
   84c34:	d37df000 	lsl	x0, x0, #3
   84c38:	8b000040 	add	x0, x2, x0
   84c3c:	f9400801 	ldr	x1, [x0, #16]
   84c40:	f9400be0 	ldr	x0, [sp, #16]
   84c44:	d63f0020 	blr	x1
   84c48:	1400000d 	b	84c7c <command_exec+0xf4>
   84c4c:	b9402fe0 	ldr	w0, [sp, #44]
   84c50:	11000400 	add	w0, w0, #0x1
   84c54:	b9002fe0 	str	w0, [sp, #44]
   84c58:	b9402fe0 	ldr	w0, [sp, #44]
   84c5c:	7100201f 	cmp	w0, #0x8
   84c60:	54fffa0d 	b.le	84ba0 <command_exec+0x18>
   84c64:	f9400be0 	ldr	x0, [sp, #16]
   84c68:	f9400000 	ldr	x0, [x0]
   84c6c:	97fffdb6 	bl	84344 <uart_sends>
   84c70:	f0000000 	adrp	x0, 87000 <set_exception_vector_table>
   84c74:	91230000 	add	x0, x0, #0x8c0
   84c78:	97fffdb3 	bl	84344 <uart_sends>
   84c7c:	a8c37bfd 	ldp	x29, x30, [sp], #48
   84c80:	d65f03c0 	ret

0000000000084c84 <strlen>:
   84c84:	d10083ff 	sub	sp, sp, #0x20
   84c88:	f90007e0 	str	x0, [sp, #8]
   84c8c:	b9001fff 	str	wzr, [sp, #28]
   84c90:	14000004 	b	84ca0 <strlen+0x1c>
   84c94:	b9401fe0 	ldr	w0, [sp, #28]
   84c98:	11000400 	add	w0, w0, #0x1
   84c9c:	b9001fe0 	str	w0, [sp, #28]
   84ca0:	f94007e0 	ldr	x0, [sp, #8]
   84ca4:	91000401 	add	x1, x0, #0x1
   84ca8:	f90007e1 	str	x1, [sp, #8]
   84cac:	39400000 	ldrb	w0, [x0]
   84cb0:	7100001f 	cmp	w0, #0x0
   84cb4:	54ffff01 	b.ne	84c94 <strlen+0x10>  // b.any
   84cb8:	b9401fe0 	ldr	w0, [sp, #28]
   84cbc:	910083ff 	add	sp, sp, #0x20
   84cc0:	d65f03c0 	ret

0000000000084cc4 <strcmp>:
   84cc4:	d10043ff 	sub	sp, sp, #0x10
   84cc8:	f90007e0 	str	x0, [sp, #8]
   84ccc:	f90003e1 	str	x1, [sp]
   84cd0:	f94007e0 	ldr	x0, [sp, #8]
   84cd4:	39400000 	ldrb	w0, [x0]
   84cd8:	7100001f 	cmp	w0, #0x0
   84cdc:	540002c0 	b.eq	84d34 <strcmp+0x70>  // b.none
   84ce0:	f94003e0 	ldr	x0, [sp]
   84ce4:	39400000 	ldrb	w0, [x0]
   84ce8:	7100001f 	cmp	w0, #0x0
   84cec:	54000240 	b.eq	84d34 <strcmp+0x70>  // b.none
   84cf0:	f94007e0 	ldr	x0, [sp, #8]
   84cf4:	39400001 	ldrb	w1, [x0]
   84cf8:	f94003e0 	ldr	x0, [sp]
   84cfc:	39400000 	ldrb	w0, [x0]
   84d00:	6b00003f 	cmp	w1, w0
   84d04:	54000161 	b.ne	84d30 <strcmp+0x6c>  // b.any
   84d08:	f94007e0 	ldr	x0, [sp, #8]
   84d0c:	91000401 	add	x1, x0, #0x1
   84d10:	f90007e1 	str	x1, [sp, #8]
   84d14:	39400001 	ldrb	w1, [x0]
   84d18:	f94003e0 	ldr	x0, [sp]
   84d1c:	91000402 	add	x2, x0, #0x1
   84d20:	f90003e2 	str	x2, [sp]
   84d24:	39400000 	ldrb	w0, [x0]
   84d28:	6b00003f 	cmp	w1, w0
   84d2c:	17ffffe9 	b	84cd0 <strcmp+0xc>
   84d30:	d503201f 	nop
   84d34:	f94007e0 	ldr	x0, [sp, #8]
   84d38:	39400001 	ldrb	w1, [x0]
   84d3c:	f94003e0 	ldr	x0, [sp]
   84d40:	39400000 	ldrb	w0, [x0]
   84d44:	6b00003f 	cmp	w1, w0
   84d48:	1a9f07e0 	cset	w0, ne  // ne = any
   84d4c:	12001c00 	and	w0, w0, #0xff
   84d50:	910043ff 	add	sp, sp, #0x10
   84d54:	d65f03c0 	ret

0000000000084d58 <strcpy>:
   84d58:	d10043ff 	sub	sp, sp, #0x10
   84d5c:	f90007e0 	str	x0, [sp, #8]
   84d60:	f90003e1 	str	x1, [sp]
   84d64:	1400000e 	b	84d9c <strcpy+0x44>
   84d68:	f94007e0 	ldr	x0, [sp, #8]
   84d6c:	f100001f 	cmp	x0, #0x0
   84d70:	54000061 	b.ne	84d7c <strcpy+0x24>  // b.any
   84d74:	12800000 	mov	w0, #0xffffffff            	// #-1
   84d78:	14000010 	b	84db8 <strcpy+0x60>
   84d7c:	f94003e1 	ldr	x1, [sp]
   84d80:	91000420 	add	x0, x1, #0x1
   84d84:	f90003e0 	str	x0, [sp]
   84d88:	f94007e0 	ldr	x0, [sp, #8]
   84d8c:	91000402 	add	x2, x0, #0x1
   84d90:	f90007e2 	str	x2, [sp, #8]
   84d94:	39400021 	ldrb	w1, [x1]
   84d98:	39000001 	strb	w1, [x0]
   84d9c:	f94003e0 	ldr	x0, [sp]
   84da0:	39400000 	ldrb	w0, [x0]
   84da4:	7100001f 	cmp	w0, #0x0
   84da8:	54fffe01 	b.ne	84d68 <strcpy+0x10>  // b.any
   84dac:	f94007e0 	ldr	x0, [sp, #8]
   84db0:	3900001f 	strb	wzr, [x0]
   84db4:	52800000 	mov	w0, #0x0                   	// #0
   84db8:	910043ff 	add	sp, sp, #0x10
   84dbc:	d65f03c0 	ret

0000000000084dc0 <strdup>:
   84dc0:	a9bd7bfd 	stp	x29, x30, [sp, #-48]!
   84dc4:	910003fd 	mov	x29, sp
   84dc8:	f9000fe0 	str	x0, [sp, #24]
   84dcc:	f9400fe0 	ldr	x0, [sp, #24]
   84dd0:	97ffffad 	bl	84c84 <strlen>
   84dd4:	b9002fe0 	str	w0, [sp, #44]
   84dd8:	b9402fe0 	ldr	w0, [sp, #44]
   84ddc:	11000400 	add	w0, w0, #0x1
   84de0:	97fff4ce 	bl	82118 <simple_malloc>
   84de4:	f90013e0 	str	x0, [sp, #32]
   84de8:	f94013e0 	ldr	x0, [sp, #32]
   84dec:	f100001f 	cmp	x0, #0x0
   84df0:	54000080 	b.eq	84e00 <strdup+0x40>  // b.none
   84df4:	f9400fe1 	ldr	x1, [sp, #24]
   84df8:	f94013e0 	ldr	x0, [sp, #32]
   84dfc:	97ffffd7 	bl	84d58 <strcpy>
   84e00:	f94013e0 	ldr	x0, [sp, #32]
   84e04:	a8c37bfd 	ldp	x29, x30, [sp], #48
   84e08:	d65f03c0 	ret

0000000000084e0c <strtok>:
   84e0c:	d100c3ff 	sub	sp, sp, #0x30
   84e10:	f90007e0 	str	x0, [sp, #8]
   84e14:	f90003e1 	str	x1, [sp]
   84e18:	f90017ff 	str	xzr, [sp, #40]
   84e1c:	f94007e0 	ldr	x0, [sp, #8]
   84e20:	f100001f 	cmp	x0, #0x0
   84e24:	540007c0 	b.eq	84f1c <strtok+0x110>  // b.none
   84e28:	90000020 	adrp	x0, 88000 <get_current+0xce8>
   84e2c:	91360000 	add	x0, x0, #0xd80
   84e30:	f94007e1 	ldr	x1, [sp, #8]
   84e34:	f9000001 	str	x1, [x0]
   84e38:	14000039 	b	84f1c <strtok+0x110>
   84e3c:	b90027ff 	str	wzr, [sp, #36]
   84e40:	f94003e0 	ldr	x0, [sp]
   84e44:	f9000fe0 	str	x0, [sp, #24]
   84e48:	1400000f 	b	84e84 <strtok+0x78>
   84e4c:	90000020 	adrp	x0, 88000 <get_current+0xce8>
   84e50:	91360000 	add	x0, x0, #0xd80
   84e54:	f9400000 	ldr	x0, [x0]
   84e58:	39400001 	ldrb	w1, [x0]
   84e5c:	f9400fe0 	ldr	x0, [sp, #24]
   84e60:	39400000 	ldrb	w0, [x0]
   84e64:	6b00003f 	cmp	w1, w0
   84e68:	54000081 	b.ne	84e78 <strtok+0x6c>  // b.any
   84e6c:	52800020 	mov	w0, #0x1                   	// #1
   84e70:	b90027e0 	str	w0, [sp, #36]
   84e74:	14000008 	b	84e94 <strtok+0x88>
   84e78:	f9400fe0 	ldr	x0, [sp, #24]
   84e7c:	91000400 	add	x0, x0, #0x1
   84e80:	f9000fe0 	str	x0, [sp, #24]
   84e84:	f9400fe0 	ldr	x0, [sp, #24]
   84e88:	39400000 	ldrb	w0, [x0]
   84e8c:	7100001f 	cmp	w0, #0x0
   84e90:	54fffde1 	b.ne	84e4c <strtok+0x40>  // b.any
   84e94:	b94027e0 	ldr	w0, [sp, #36]
   84e98:	7100001f 	cmp	w0, #0x0
   84e9c:	54000121 	b.ne	84ec0 <strtok+0xb4>  // b.any
   84ea0:	f94017e0 	ldr	x0, [sp, #40]
   84ea4:	f100001f 	cmp	x0, #0x0
   84ea8:	540000c1 	b.ne	84ec0 <strtok+0xb4>  // b.any
   84eac:	90000020 	adrp	x0, 88000 <get_current+0xce8>
   84eb0:	91360000 	add	x0, x0, #0xd80
   84eb4:	f9400000 	ldr	x0, [x0]
   84eb8:	f90017e0 	str	x0, [sp, #40]
   84ebc:	14000011 	b	84f00 <strtok+0xf4>
   84ec0:	b94027e0 	ldr	w0, [sp, #36]
   84ec4:	7100001f 	cmp	w0, #0x0
   84ec8:	540001c0 	b.eq	84f00 <strtok+0xf4>  // b.none
   84ecc:	f94017e0 	ldr	x0, [sp, #40]
   84ed0:	f100001f 	cmp	x0, #0x0
   84ed4:	54000160 	b.eq	84f00 <strtok+0xf4>  // b.none
   84ed8:	90000020 	adrp	x0, 88000 <get_current+0xce8>
   84edc:	91360000 	add	x0, x0, #0xd80
   84ee0:	f9400000 	ldr	x0, [x0]
   84ee4:	91000402 	add	x2, x0, #0x1
   84ee8:	90000021 	adrp	x1, 88000 <get_current+0xce8>
   84eec:	91360021 	add	x1, x1, #0xd80
   84ef0:	f9000022 	str	x2, [x1]
   84ef4:	3900001f 	strb	wzr, [x0]
   84ef8:	f94017e0 	ldr	x0, [sp, #40]
   84efc:	1400000f 	b	84f38 <strtok+0x12c>
   84f00:	90000020 	adrp	x0, 88000 <get_current+0xce8>
   84f04:	91360000 	add	x0, x0, #0xd80
   84f08:	f9400000 	ldr	x0, [x0]
   84f0c:	91000401 	add	x1, x0, #0x1
   84f10:	90000020 	adrp	x0, 88000 <get_current+0xce8>
   84f14:	91360000 	add	x0, x0, #0xd80
   84f18:	f9000001 	str	x1, [x0]
   84f1c:	90000020 	adrp	x0, 88000 <get_current+0xce8>
   84f20:	91360000 	add	x0, x0, #0xd80
   84f24:	f9400000 	ldr	x0, [x0]
   84f28:	39400000 	ldrb	w0, [x0]
   84f2c:	7100001f 	cmp	w0, #0x0
   84f30:	54fff861 	b.ne	84e3c <strtok+0x30>  // b.any
   84f34:	f94017e0 	ldr	x0, [sp, #40]
   84f38:	9100c3ff 	add	sp, sp, #0x30
   84f3c:	d65f03c0 	ret

0000000000084f40 <memcmp>:
   84f40:	d10103ff 	sub	sp, sp, #0x40
   84f44:	f9000fe0 	str	x0, [sp, #24]
   84f48:	f9000be1 	str	x1, [sp, #16]
   84f4c:	b9000fe2 	str	w2, [sp, #12]
   84f50:	f9400fe0 	ldr	x0, [sp, #24]
   84f54:	f9001be0 	str	x0, [sp, #48]
   84f58:	f9400be0 	ldr	x0, [sp, #16]
   84f5c:	f90017e0 	str	x0, [sp, #40]
   84f60:	b9003fff 	str	wzr, [sp, #60]
   84f64:	1400001c 	b	84fd4 <memcmp+0x94>
   84f68:	b9803fe0 	ldrsw	x0, [sp, #60]
   84f6c:	f9401be1 	ldr	x1, [sp, #48]
   84f70:	8b000020 	add	x0, x1, x0
   84f74:	39400001 	ldrb	w1, [x0]
   84f78:	b9803fe0 	ldrsw	x0, [sp, #60]
   84f7c:	f94017e2 	ldr	x2, [sp, #40]
   84f80:	8b000040 	add	x0, x2, x0
   84f84:	39400000 	ldrb	w0, [x0]
   84f88:	6b00003f 	cmp	w1, w0
   84f8c:	54000062 	b.cs	84f98 <memcmp+0x58>  // b.hs, b.nlast
   84f90:	12800000 	mov	w0, #0xffffffff            	// #-1
   84f94:	14000015 	b	84fe8 <memcmp+0xa8>
   84f98:	b9803fe0 	ldrsw	x0, [sp, #60]
   84f9c:	f9401be1 	ldr	x1, [sp, #48]
   84fa0:	8b000020 	add	x0, x1, x0
   84fa4:	39400001 	ldrb	w1, [x0]
   84fa8:	b9803fe0 	ldrsw	x0, [sp, #60]
   84fac:	f94017e2 	ldr	x2, [sp, #40]
   84fb0:	8b000040 	add	x0, x2, x0
   84fb4:	39400000 	ldrb	w0, [x0]
   84fb8:	6b00003f 	cmp	w1, w0
   84fbc:	54000069 	b.ls	84fc8 <memcmp+0x88>  // b.plast
   84fc0:	52800020 	mov	w0, #0x1                   	// #1
   84fc4:	14000009 	b	84fe8 <memcmp+0xa8>
   84fc8:	b9403fe0 	ldr	w0, [sp, #60]
   84fcc:	11000400 	add	w0, w0, #0x1
   84fd0:	b9003fe0 	str	w0, [sp, #60]
   84fd4:	b9403fe1 	ldr	w1, [sp, #60]
   84fd8:	b9400fe0 	ldr	w0, [sp, #12]
   84fdc:	6b00003f 	cmp	w1, w0
   84fe0:	54fffc4b 	b.lt	84f68 <memcmp+0x28>  // b.tstop
   84fe4:	52800000 	mov	w0, #0x0                   	// #0
   84fe8:	910103ff 	add	sp, sp, #0x40
   84fec:	d65f03c0 	ret

0000000000084ff0 <memset>:
   84ff0:	d10083ff 	sub	sp, sp, #0x20
   84ff4:	f90007e0 	str	x0, [sp, #8]
   84ff8:	b90007e1 	str	w1, [sp, #4]
   84ffc:	b90003e2 	str	w2, [sp]
   85000:	f94007e0 	ldr	x0, [sp, #8]
   85004:	f9000be0 	str	x0, [sp, #16]
   85008:	f9000fff 	str	xzr, [sp, #24]
   8500c:	1400000a 	b	85034 <memset+0x44>
   85010:	f9400be1 	ldr	x1, [sp, #16]
   85014:	f9400fe0 	ldr	x0, [sp, #24]
   85018:	8b000020 	add	x0, x1, x0
   8501c:	b94007e1 	ldr	w1, [sp, #4]
   85020:	12001c21 	and	w1, w1, #0xff
   85024:	39000001 	strb	w1, [x0]
   85028:	f9400fe0 	ldr	x0, [sp, #24]
   8502c:	91000400 	add	x0, x0, #0x1
   85030:	f9000fe0 	str	x0, [sp, #24]
   85034:	b98003e0 	ldrsw	x0, [sp]
   85038:	f9400fe1 	ldr	x1, [sp, #24]
   8503c:	eb00003f 	cmp	x1, x0
   85040:	54fffe83 	b.cc	85010 <memset+0x20>  // b.lo, b.ul, b.last
   85044:	d503201f 	nop
   85048:	910083ff 	add	sp, sp, #0x20
   8504c:	d65f03c0 	ret

0000000000085050 <hstr2int>:
   85050:	d10083ff 	sub	sp, sp, #0x20
   85054:	f90007e0 	str	x0, [sp, #8]
   85058:	b90007e1 	str	w1, [sp, #4]
   8505c:	b9001fff 	str	wzr, [sp, #28]
   85060:	14000036 	b	85138 <hstr2int+0xe8>
   85064:	f94007e0 	ldr	x0, [sp, #8]
   85068:	39400000 	ldrb	w0, [x0]
   8506c:	7100bc1f 	cmp	w0, #0x2f
   85070:	540001e9 	b.ls	850ac <hstr2int+0x5c>  // b.plast
   85074:	f94007e0 	ldr	x0, [sp, #8]
   85078:	39400000 	ldrb	w0, [x0]
   8507c:	7100e41f 	cmp	w0, #0x39
   85080:	54000168 	b.hi	850ac <hstr2int+0x5c>  // b.pmore
   85084:	b9401fe0 	ldr	w0, [sp, #28]
   85088:	531c6c01 	lsl	w1, w0, #4
   8508c:	f94007e0 	ldr	x0, [sp, #8]
   85090:	91000402 	add	x2, x0, #0x1
   85094:	f90007e2 	str	x2, [sp, #8]
   85098:	39400000 	ldrb	w0, [x0]
   8509c:	5100c000 	sub	w0, w0, #0x30
   850a0:	0b000020 	add	w0, w1, w0
   850a4:	b9001fe0 	str	w0, [sp, #28]
   850a8:	14000024 	b	85138 <hstr2int+0xe8>
   850ac:	f94007e0 	ldr	x0, [sp, #8]
   850b0:	39400000 	ldrb	w0, [x0]
   850b4:	7101801f 	cmp	w0, #0x60
   850b8:	540001e9 	b.ls	850f4 <hstr2int+0xa4>  // b.plast
   850bc:	f94007e0 	ldr	x0, [sp, #8]
   850c0:	39400000 	ldrb	w0, [x0]
   850c4:	7101981f 	cmp	w0, #0x66
   850c8:	54000168 	b.hi	850f4 <hstr2int+0xa4>  // b.pmore
   850cc:	b9401fe0 	ldr	w0, [sp, #28]
   850d0:	531c6c01 	lsl	w1, w0, #4
   850d4:	f94007e0 	ldr	x0, [sp, #8]
   850d8:	91000402 	add	x2, x0, #0x1
   850dc:	f90007e2 	str	x2, [sp, #8]
   850e0:	39400000 	ldrb	w0, [x0]
   850e4:	51015c00 	sub	w0, w0, #0x57
   850e8:	0b000020 	add	w0, w1, w0
   850ec:	b9001fe0 	str	w0, [sp, #28]
   850f0:	14000012 	b	85138 <hstr2int+0xe8>
   850f4:	f94007e0 	ldr	x0, [sp, #8]
   850f8:	39400000 	ldrb	w0, [x0]
   850fc:	7101001f 	cmp	w0, #0x40
   85100:	540001c9 	b.ls	85138 <hstr2int+0xe8>  // b.plast
   85104:	f94007e0 	ldr	x0, [sp, #8]
   85108:	39400000 	ldrb	w0, [x0]
   8510c:	7101181f 	cmp	w0, #0x46
   85110:	54000148 	b.hi	85138 <hstr2int+0xe8>  // b.pmore
   85114:	b9401fe0 	ldr	w0, [sp, #28]
   85118:	531c6c01 	lsl	w1, w0, #4
   8511c:	f94007e0 	ldr	x0, [sp, #8]
   85120:	91000402 	add	x2, x0, #0x1
   85124:	f90007e2 	str	x2, [sp, #8]
   85128:	39400000 	ldrb	w0, [x0]
   8512c:	5100dc00 	sub	w0, w0, #0x37
   85130:	0b000020 	add	w0, w1, w0
   85134:	b9001fe0 	str	w0, [sp, #28]
   85138:	b94007e0 	ldr	w0, [sp, #4]
   8513c:	51000401 	sub	w1, w0, #0x1
   85140:	b90007e1 	str	w1, [sp, #4]
   85144:	7100001f 	cmp	w0, #0x0
   85148:	54fff8e1 	b.ne	85064 <hstr2int+0x14>  // b.any
   8514c:	b9401fe0 	ldr	w0, [sp, #28]
   85150:	910083ff 	add	sp, sp, #0x20
   85154:	d65f03c0 	ret

0000000000085158 <gets>:
   85158:	a9bd7bfd 	stp	x29, x30, [sp, #-48]!
   8515c:	910003fd 	mov	x29, sp
   85160:	f9000fe0 	str	x0, [sp, #24]
   85164:	f9400fe0 	ldr	x0, [sp, #24]
   85168:	f90017e0 	str	x0, [sp, #40]
   8516c:	b90027ff 	str	wzr, [sp, #36]
   85170:	1400002a 	b	85218 <gets+0xc0>
   85174:	97fffc4e 	bl	842ac <uart_recv>
   85178:	12001c01 	and	w1, w0, #0xff
   8517c:	f94017e0 	ldr	x0, [sp, #40]
   85180:	39000001 	strb	w1, [x0]
   85184:	f94017e0 	ldr	x0, [sp, #40]
   85188:	39400000 	ldrb	w0, [x0]
   8518c:	97fffc85 	bl	843a0 <uart_sendc>
   85190:	f94017e0 	ldr	x0, [sp, #40]
   85194:	39400000 	ldrb	w0, [x0]
   85198:	7101fc1f 	cmp	w0, #0x7f
   8519c:	540002a1 	b.ne	851f0 <gets+0x98>  // b.any
   851a0:	b94027e0 	ldr	w0, [sp, #36]
   851a4:	51000400 	sub	w0, w0, #0x1
   851a8:	b90027e0 	str	w0, [sp, #36]
   851ac:	b94027e0 	ldr	w0, [sp, #36]
   851b0:	7100001f 	cmp	w0, #0x0
   851b4:	540002cb 	b.lt	8520c <gets+0xb4>  // b.tstop
   851b8:	b94027e0 	ldr	w0, [sp, #36]
   851bc:	51000400 	sub	w0, w0, #0x1
   851c0:	b90027e0 	str	w0, [sp, #36]
   851c4:	f94017e0 	ldr	x0, [sp, #40]
   851c8:	d1000401 	sub	x1, x0, #0x1
   851cc:	f90017e1 	str	x1, [sp, #40]
   851d0:	3900001f 	strb	wzr, [x0]
   851d4:	52800100 	mov	w0, #0x8                   	// #8
   851d8:	97fffc72 	bl	843a0 <uart_sendc>
   851dc:	52800400 	mov	w0, #0x20                  	// #32
   851e0:	97fffc70 	bl	843a0 <uart_sendc>
   851e4:	52800100 	mov	w0, #0x8                   	// #8
   851e8:	97fffc6e 	bl	843a0 <uart_sendc>
   851ec:	14000008 	b	8520c <gets+0xb4>
   851f0:	f94017e0 	ldr	x0, [sp, #40]
   851f4:	39400000 	ldrb	w0, [x0]
   851f8:	7100281f 	cmp	w0, #0xa
   851fc:	54000160 	b.eq	85228 <gets+0xd0>  // b.none
   85200:	f94017e0 	ldr	x0, [sp, #40]
   85204:	91000400 	add	x0, x0, #0x1
   85208:	f90017e0 	str	x0, [sp, #40]
   8520c:	b94027e0 	ldr	w0, [sp, #36]
   85210:	11000400 	add	w0, w0, #0x1
   85214:	b90027e0 	str	w0, [sp, #36]
   85218:	b94027e0 	ldr	w0, [sp, #36]
   8521c:	7103fc1f 	cmp	w0, #0xff
   85220:	54fffaad 	b.le	85174 <gets+0x1c>
   85224:	14000002 	b	8522c <gets+0xd4>
   85228:	d503201f 	nop
   8522c:	f94017e0 	ldr	x0, [sp, #40]
   85230:	3900001f 	strb	wzr, [x0]
   85234:	52800000 	mov	w0, #0x0                   	// #0
   85238:	a8c37bfd 	ldp	x29, x30, [sp], #48
   8523c:	d65f03c0 	ret

0000000000085240 <atoi>:
   85240:	d10083ff 	sub	sp, sp, #0x20
   85244:	f90007e0 	str	x0, [sp, #8]
   85248:	b9001fff 	str	wzr, [sp, #28]
   8524c:	1400000f 	b	85288 <atoi+0x48>
   85250:	b9401fe1 	ldr	w1, [sp, #28]
   85254:	2a0103e0 	mov	w0, w1
   85258:	531e7400 	lsl	w0, w0, #2
   8525c:	0b010000 	add	w0, w0, w1
   85260:	531f7800 	lsl	w0, w0, #1
   85264:	2a0003e1 	mov	w1, w0
   85268:	f94007e0 	ldr	x0, [sp, #8]
   8526c:	39400000 	ldrb	w0, [x0]
   85270:	5100c000 	sub	w0, w0, #0x30
   85274:	0b000020 	add	w0, w1, w0
   85278:	b9001fe0 	str	w0, [sp, #28]
   8527c:	f94007e0 	ldr	x0, [sp, #8]
   85280:	91000400 	add	x0, x0, #0x1
   85284:	f90007e0 	str	x0, [sp, #8]
   85288:	f94007e0 	ldr	x0, [sp, #8]
   8528c:	39400000 	ldrb	w0, [x0]
   85290:	7100001f 	cmp	w0, #0x0
   85294:	54fffde1 	b.ne	85250 <atoi+0x10>  // b.any
   85298:	b9401fe0 	ldr	w0, [sp, #28]
   8529c:	910083ff 	add	sp, sp, #0x20
   852a0:	d65f03c0 	ret

00000000000852a4 <sys_getpid>:
   852a4:	a9be7bfd 	stp	x29, x30, [sp, #-32]!
   852a8:	910003fd 	mov	x29, sp
   852ac:	9400081b 	bl	87318 <get_current>
   852b0:	f9000fe0 	str	x0, [sp, #24]
   852b4:	f9400fe0 	ldr	x0, [sp, #24]
   852b8:	b9406800 	ldr	w0, [x0, #104]
   852bc:	a8c27bfd 	ldp	x29, x30, [sp], #32
   852c0:	d65f03c0 	ret

00000000000852c4 <sys_uartread>:
   852c4:	a9bc7bfd 	stp	x29, x30, [sp, #-64]!
   852c8:	910003fd 	mov	x29, sp
   852cc:	f9000bf3 	str	x19, [sp, #16]
   852d0:	f90017e0 	str	x0, [sp, #40]
   852d4:	f90013e1 	str	x1, [sp, #32]
   852d8:	f9001fff 	str	xzr, [sp, #56]
   852dc:	1400000a 	b	85304 <sys_uartread+0x40>
   852e0:	f94017e1 	ldr	x1, [sp, #40]
   852e4:	f9401fe0 	ldr	x0, [sp, #56]
   852e8:	8b000033 	add	x19, x1, x0
   852ec:	97fffbf0 	bl	842ac <uart_recv>
   852f0:	12001c00 	and	w0, w0, #0xff
   852f4:	39000260 	strb	w0, [x19]
   852f8:	f9401fe0 	ldr	x0, [sp, #56]
   852fc:	91000400 	add	x0, x0, #0x1
   85300:	f9001fe0 	str	x0, [sp, #56]
   85304:	f9401fe1 	ldr	x1, [sp, #56]
   85308:	f94013e0 	ldr	x0, [sp, #32]
   8530c:	eb00003f 	cmp	x1, x0
   85310:	54fffe83 	b.cc	852e0 <sys_uartread+0x1c>  // b.lo, b.ul, b.last
   85314:	f9401fe0 	ldr	x0, [sp, #56]
   85318:	f9400bf3 	ldr	x19, [sp, #16]
   8531c:	a8c47bfd 	ldp	x29, x30, [sp], #64
   85320:	d65f03c0 	ret

0000000000085324 <sys_uartwrite>:
   85324:	a9bd7bfd 	stp	x29, x30, [sp, #-48]!
   85328:	910003fd 	mov	x29, sp
   8532c:	f9000fe0 	str	x0, [sp, #24]
   85330:	f9000be1 	str	x1, [sp, #16]
   85334:	f90017ff 	str	xzr, [sp, #40]
   85338:	14000009 	b	8535c <sys_uartwrite+0x38>
   8533c:	f9400fe1 	ldr	x1, [sp, #24]
   85340:	f94017e0 	ldr	x0, [sp, #40]
   85344:	8b000020 	add	x0, x1, x0
   85348:	39400000 	ldrb	w0, [x0]
   8534c:	97fffc15 	bl	843a0 <uart_sendc>
   85350:	f94017e0 	ldr	x0, [sp, #40]
   85354:	91000400 	add	x0, x0, #0x1
   85358:	f90017e0 	str	x0, [sp, #40]
   8535c:	f94017e1 	ldr	x1, [sp, #40]
   85360:	f9400be0 	ldr	x0, [sp, #16]
   85364:	eb00003f 	cmp	x1, x0
   85368:	54fffea3 	b.cc	8533c <sys_uartwrite+0x18>  // b.lo, b.ul, b.last
   8536c:	f94017e0 	ldr	x0, [sp, #40]
   85370:	a8c37bfd 	ldp	x29, x30, [sp], #48
   85374:	d65f03c0 	ret

0000000000085378 <sys_exec>:
   85378:	a9bb7bfd 	stp	x29, x30, [sp, #-80]!
   8537c:	910003fd 	mov	x29, sp
   85380:	f9000fe0 	str	x0, [sp, #24]
   85384:	f9000be1 	str	x1, [sp, #16]
   85388:	f9400fe0 	ldr	x0, [sp, #24]
   8538c:	97fff469 	bl	82530 <fetch_exec>
   85390:	f90023e0 	str	x0, [sp, #64]
   85394:	f9400fe0 	ldr	x0, [sp, #24]
   85398:	97fff4c4 	bl	826a8 <get_exec_size>
   8539c:	b9003fe0 	str	w0, [sp, #60]
   853a0:	b9403fe0 	ldr	w0, [sp, #60]
   853a4:	97fffb2e 	bl	8405c <kmalloc>
   853a8:	f9001be0 	str	x0, [sp, #48]
   853ac:	b9004fff 	str	wzr, [sp, #76]
   853b0:	1400000c 	b	853e0 <sys_exec+0x68>
   853b4:	b9804fe0 	ldrsw	x0, [sp, #76]
   853b8:	f94023e1 	ldr	x1, [sp, #64]
   853bc:	8b000021 	add	x1, x1, x0
   853c0:	b9804fe0 	ldrsw	x0, [sp, #76]
   853c4:	f9401be2 	ldr	x2, [sp, #48]
   853c8:	8b000040 	add	x0, x2, x0
   853cc:	39400021 	ldrb	w1, [x1]
   853d0:	39000001 	strb	w1, [x0]
   853d4:	b9404fe0 	ldr	w0, [sp, #76]
   853d8:	11000400 	add	w0, w0, #0x1
   853dc:	b9004fe0 	str	w0, [sp, #76]
   853e0:	b9404fe1 	ldr	w1, [sp, #76]
   853e4:	b9403fe0 	ldr	w0, [sp, #60]
   853e8:	6b00003f 	cmp	w1, w0
   853ec:	54fffe4b 	b.lt	853b4 <sys_exec+0x3c>  // b.tstop
   853f0:	940007ca 	bl	87318 <get_current>
   853f4:	f90017e0 	str	x0, [sp, #40]
   853f8:	f9401be1 	ldr	x1, [sp, #48]
   853fc:	f94017e0 	ldr	x0, [sp, #40]
   85400:	f9002c01 	str	x1, [x0, #88]
   85404:	97fff5b9 	bl	82ae8 <core_timer_enable>
   85408:	f94017e0 	ldr	x0, [sp, #40]
   8540c:	f9402c01 	ldr	x1, [x0, #88]
   85410:	f94017e0 	ldr	x0, [sp, #40]
   85414:	f9403002 	ldr	x2, [x0, #96]
   85418:	f94017e0 	ldr	x0, [sp, #40]
   8541c:	f9404000 	ldr	x0, [x0, #128]
   85420:	91400403 	add	x3, x0, #0x1, lsl #12
   85424:	f94017e0 	ldr	x0, [sp, #40]
   85428:	d518d080 	msr	tpidr_el1, x0
   8542c:	d2800004 	mov	x4, #0x0                   	// #0
   85430:	d5184004 	msr	spsr_el1, x4
   85434:	d5184021 	msr	elr_el1, x1
   85438:	d5184102 	msr	sp_el0, x2
   8543c:	9100007f 	mov	sp, x3
   85440:	d69f03e0 	eret
   85444:	52800000 	mov	w0, #0x0                   	// #0
   85448:	a8c57bfd 	ldp	x29, x30, [sp], #80
   8544c:	d65f03c0 	ret

0000000000085450 <set_child_lr>:
   85450:	d10083ff 	sub	sp, sp, #0x20
   85454:	f90007e0 	str	x0, [sp, #8]
   85458:	aa1e03e0 	mov	x0, x30
   8545c:	f9000fe0 	str	x0, [sp, #24]
   85460:	f94007e0 	ldr	x0, [sp, #8]
   85464:	f9400fe1 	ldr	x1, [sp, #24]
   85468:	f9002c01 	str	x1, [x0, #88]
   8546c:	d503201f 	nop
   85470:	910083ff 	add	sp, sp, #0x20
   85474:	d65f03c0 	ret

0000000000085478 <sys_fork>:
   85478:	a9ba7bfd 	stp	x29, x30, [sp, #-96]!
   8547c:	910003fd 	mov	x29, sp
   85480:	f9000fe0 	str	x0, [sp, #24]
   85484:	940007a5 	bl	87318 <get_current>
   85488:	f90027e0 	str	x0, [sp, #72]
   8548c:	d2800000 	mov	x0, #0x0                   	// #0
   85490:	940001ee 	bl	85c48 <thread_create>
   85494:	f90023e0 	str	x0, [sp, #64]
   85498:	f94023e0 	ldr	x0, [sp, #64]
   8549c:	b9406800 	ldr	w0, [x0, #104]
   854a0:	b9003fe0 	str	w0, [sp, #60]
   854a4:	b9005fff 	str	wzr, [sp, #92]
   854a8:	1400000e 	b	854e0 <sys_fork+0x68>
   854ac:	f94027e0 	ldr	x0, [sp, #72]
   854b0:	f9403c01 	ldr	x1, [x0, #120]
   854b4:	b9805fe0 	ldrsw	x0, [sp, #92]
   854b8:	8b000021 	add	x1, x1, x0
   854bc:	f94023e0 	ldr	x0, [sp, #64]
   854c0:	f9403c02 	ldr	x2, [x0, #120]
   854c4:	b9805fe0 	ldrsw	x0, [sp, #92]
   854c8:	8b000040 	add	x0, x2, x0
   854cc:	39400021 	ldrb	w1, [x1]
   854d0:	39000001 	strb	w1, [x0]
   854d4:	b9405fe0 	ldr	w0, [sp, #92]
   854d8:	11000400 	add	w0, w0, #0x1
   854dc:	b9005fe0 	str	w0, [sp, #92]
   854e0:	b9405fe0 	ldr	w0, [sp, #92]
   854e4:	713ffc1f 	cmp	w0, #0xfff
   854e8:	54fffe2d 	b.le	854ac <sys_fork+0x34>
   854ec:	b9005bff 	str	wzr, [sp, #88]
   854f0:	1400000e 	b	85528 <sys_fork+0xb0>
   854f4:	f94027e0 	ldr	x0, [sp, #72]
   854f8:	f9404001 	ldr	x1, [x0, #128]
   854fc:	b9805be0 	ldrsw	x0, [sp, #88]
   85500:	8b000021 	add	x1, x1, x0
   85504:	f94023e0 	ldr	x0, [sp, #64]
   85508:	f9404002 	ldr	x2, [x0, #128]
   8550c:	b9805be0 	ldrsw	x0, [sp, #88]
   85510:	8b000040 	add	x0, x2, x0
   85514:	39400021 	ldrb	w1, [x1]
   85518:	39000001 	strb	w1, [x0]
   8551c:	b9405be0 	ldr	w0, [sp, #88]
   85520:	11000400 	add	w0, w0, #0x1
   85524:	b9005be0 	str	w0, [sp, #88]
   85528:	b9405be0 	ldr	w0, [sp, #88]
   8552c:	713ffc1f 	cmp	w0, #0xfff
   85530:	54fffe2d 	b.le	854f4 <sys_fork+0x7c>
   85534:	f94027e0 	ldr	x0, [sp, #72]
   85538:	f9403801 	ldr	x1, [x0, #112]
   8553c:	f94023e0 	ldr	x0, [sp, #64]
   85540:	f9003801 	str	x1, [x0, #112]
   85544:	910003e0 	mov	x0, sp
   85548:	f9001be0 	str	x0, [sp, #48]
   8554c:	f94023e0 	ldr	x0, [sp, #64]
   85550:	f9404001 	ldr	x1, [x0, #128]
   85554:	f94027e0 	ldr	x0, [sp, #72]
   85558:	f9404000 	ldr	x0, [x0, #128]
   8555c:	cb000020 	sub	x0, x1, x0
   85560:	aa0003e1 	mov	x1, x0
   85564:	f9401be0 	ldr	x0, [sp, #48]
   85568:	8b000021 	add	x1, x1, x0
   8556c:	f94023e0 	ldr	x0, [sp, #64]
   85570:	f9003001 	str	x1, [x0, #96]
   85574:	f94023e0 	ldr	x0, [sp, #64]
   85578:	f9404000 	ldr	x0, [x0, #128]
   8557c:	f94027e1 	ldr	x1, [sp, #72]
   85580:	f9404021 	ldr	x1, [x1, #128]
   85584:	f9400fe2 	ldr	x2, [sp, #24]
   85588:	cb010041 	sub	x1, x2, x1
   8558c:	8b010000 	add	x0, x0, x1
   85590:	f90017e0 	str	x0, [sp, #40]
   85594:	f94017e0 	ldr	x0, [sp, #40]
   85598:	f900001f 	str	xzr, [x0]
   8559c:	f94023e0 	ldr	x0, [sp, #64]
   855a0:	f9403c00 	ldr	x0, [x0, #120]
   855a4:	f9400fe1 	ldr	x1, [sp, #24]
   855a8:	f9408421 	ldr	x1, [x1, #264]
   855ac:	aa0103e2 	mov	x2, x1
   855b0:	f94027e1 	ldr	x1, [sp, #72]
   855b4:	f9403c21 	ldr	x1, [x1, #120]
   855b8:	cb010041 	sub	x1, x2, x1
   855bc:	8b010000 	add	x0, x0, x1
   855c0:	aa0003e1 	mov	x1, x0
   855c4:	f94017e0 	ldr	x0, [sp, #40]
   855c8:	f9008401 	str	x1, [x0, #264]
   855cc:	f94023e0 	ldr	x0, [sp, #64]
   855d0:	97ffffa0 	bl	85450 <set_child_lr>
   855d4:	94000751 	bl	87318 <get_current>
   855d8:	b9406800 	ldr	w0, [x0, #104]
   855dc:	b9403fe1 	ldr	w1, [sp, #60]
   855e0:	6b00003f 	cmp	w1, w0
   855e4:	54000201 	b.ne	85624 <sys_fork+0x1ac>  // b.any
   855e8:	d0000000 	adrp	x0, 87000 <set_exception_vector_table>
   855ec:	91236000 	add	x0, x0, #0x8d8
   855f0:	97fffb55 	bl	84344 <uart_sends>
   855f4:	b90057ff 	str	wzr, [sp, #84]
   855f8:	14000004 	b	85608 <sys_fork+0x190>
   855fc:	b94057e0 	ldr	w0, [sp, #84]
   85600:	11000400 	add	w0, w0, #0x1
   85604:	b90057e0 	str	w0, [sp, #84]
   85608:	b94057e1 	ldr	w1, [sp, #84]
   8560c:	528847e0 	mov	w0, #0x423f                	// #16959
   85610:	72a001e0 	movk	w0, #0xf, lsl #16
   85614:	6b00003f 	cmp	w1, w0
   85618:	54ffff2d 	b.le	855fc <sys_fork+0x184>
   8561c:	52800000 	mov	w0, #0x0                   	// #0
   85620:	14000006 	b	85638 <sys_fork+0x1c0>
   85624:	b9803fe1 	ldrsw	x1, [sp, #60]
   85628:	f9400fe0 	ldr	x0, [sp, #24]
   8562c:	f9000001 	str	x1, [x0]
   85630:	f94023e0 	ldr	x0, [sp, #64]
   85634:	b9406800 	ldr	w0, [x0, #104]
   85638:	a8c67bfd 	ldp	x29, x30, [sp], #96
   8563c:	d65f03c0 	ret

0000000000085640 <sys_mbox_call>:
   85640:	a9be7bfd 	stp	x29, x30, [sp, #-32]!
   85644:	910003fd 	mov	x29, sp
   85648:	39007fe0 	strb	w0, [sp, #31]
   8564c:	f9000be1 	str	x1, [sp, #16]
   85650:	f9400be1 	ldr	x1, [sp, #16]
   85654:	39407fe0 	ldrb	w0, [sp, #31]
   85658:	97fff612 	bl	82ea0 <mailbox_call>
   8565c:	a8c27bfd 	ldp	x29, x30, [sp], #32
   85660:	d65f03c0 	ret

0000000000085664 <sys_exit>:
   85664:	a9be7bfd 	stp	x29, x30, [sp, #-32]!
   85668:	910003fd 	mov	x29, sp
   8566c:	b9001fe0 	str	w0, [sp, #28]
   85670:	940001dd 	bl	85de4 <thread_exit>
   85674:	d503201f 	nop
   85678:	a8c27bfd 	ldp	x29, x30, [sp], #32
   8567c:	d65f03c0 	ret

0000000000085680 <sys_kill>:
   85680:	a9be7bfd 	stp	x29, x30, [sp, #-32]!
   85684:	910003fd 	mov	x29, sp
   85688:	b9001fe0 	str	w0, [sp, #28]
   8568c:	b9401fe0 	ldr	w0, [sp, #28]
   85690:	940001ed 	bl	85e44 <thread_kill>
   85694:	d503201f 	nop
   85698:	a8c27bfd 	ldp	x29, x30, [sp], #32
   8569c:	d65f03c0 	ret

00000000000856a0 <getpid>:
   856a0:	d10043ff 	sub	sp, sp, #0x10
   856a4:	d2800008 	mov	x8, #0x0                   	// #0
   856a8:	d4000001 	svc	#0x0
   856ac:	aa0003e0 	mov	x0, x0
   856b0:	b9000fe0 	str	w0, [sp, #12]
   856b4:	b9400fe0 	ldr	w0, [sp, #12]
   856b8:	910043ff 	add	sp, sp, #0x10
   856bc:	d65f03c0 	ret

00000000000856c0 <fork>:
   856c0:	d10043ff 	sub	sp, sp, #0x10
   856c4:	d2800088 	mov	x8, #0x4                   	// #4
   856c8:	d4000001 	svc	#0x0
   856cc:	aa0003e0 	mov	x0, x0
   856d0:	b9000fe0 	str	w0, [sp, #12]
   856d4:	b9400fe0 	ldr	w0, [sp, #12]
   856d8:	910043ff 	add	sp, sp, #0x10
   856dc:	d65f03c0 	ret

00000000000856e0 <exit>:
   856e0:	d10043ff 	sub	sp, sp, #0x10
   856e4:	b9000fe0 	str	w0, [sp, #12]
   856e8:	d28000a8 	mov	x8, #0x5                   	// #5
   856ec:	d4000001 	svc	#0x0
   856f0:	d503201f 	nop
   856f4:	910043ff 	add	sp, sp, #0x10
   856f8:	d65f03c0 	ret

00000000000856fc <jump_to_el0>:
   856fc:	a9be7bfd 	stp	x29, x30, [sp, #-32]!
   85700:	910003fd 	mov	x29, sp
   85704:	94000705 	bl	87318 <get_current>
   85708:	f9000be0 	str	x0, [sp, #16]
   8570c:	f9400be0 	ldr	x0, [sp, #16]
   85710:	b9406800 	ldr	w0, [x0, #104]
   85714:	97fffb6e 	bl	844cc <uart_sendi>
   85718:	b9001fff 	str	wzr, [sp, #28]
   8571c:	14000004 	b	8572c <jump_to_el0+0x30>
   85720:	b9401fe0 	ldr	w0, [sp, #28]
   85724:	11000400 	add	w0, w0, #0x1
   85728:	b9001fe0 	str	w0, [sp, #28]
   8572c:	b9401fe1 	ldr	w1, [sp, #28]
   85730:	528847e0 	mov	w0, #0x423f                	// #16959
   85734:	72a001e0 	movk	w0, #0xf, lsl #16
   85738:	6b00003f 	cmp	w1, w0
   8573c:	54ffff2d 	b.le	85720 <jump_to_el0+0x24>
   85740:	52807800 	mov	w0, #0x3c0                 	// #960
   85744:	d5184000 	msr	spsr_el1, x0
   85748:	90000000 	adrp	x0, 85000 <memset+0x10>
   8574c:	911e0000 	add	x0, x0, #0x780
   85750:	d5184020 	msr	elr_el1, x0
   85754:	f9400be0 	ldr	x0, [sp, #16]
   85758:	f9403000 	ldr	x0, [x0, #96]
   8575c:	d5184100 	msr	sp_el0, x0
   85760:	f9400be0 	ldr	x0, [sp, #16]
   85764:	f9404000 	ldr	x0, [x0, #128]
   85768:	91400400 	add	x0, x0, #0x1, lsl #12
   8576c:	9100001f 	mov	sp, x0
   85770:	d69f03e0 	eret
   85774:	d503201f 	nop
   85778:	a8c27bfd 	ldp	x29, x30, [sp], #32
   8577c:	d65f03c0 	ret

0000000000085780 <fork_test>:
   85780:	a9bd7bfd 	stp	x29, x30, [sp, #-48]!
   85784:	910003fd 	mov	x29, sp
   85788:	d0000000 	adrp	x0, 87000 <set_exception_vector_table>
   8578c:	91238000 	add	x0, x0, #0x8e0
   85790:	97fffaed 	bl	84344 <uart_sends>
   85794:	97ffffc3 	bl	856a0 <getpid>
   85798:	97fffb4d 	bl	844cc <uart_sendi>
   8579c:	d0000000 	adrp	x0, 87000 <set_exception_vector_table>
   857a0:	9123e000 	add	x0, x0, #0x8f8
   857a4:	97fffae8 	bl	84344 <uart_sends>
   857a8:	b9002fff 	str	wzr, [sp, #44]
   857ac:	14000004 	b	857bc <fork_test+0x3c>
   857b0:	b9402fe0 	ldr	w0, [sp, #44]
   857b4:	11000400 	add	w0, w0, #0x1
   857b8:	b9002fe0 	str	w0, [sp, #44]
   857bc:	b9402fe1 	ldr	w1, [sp, #44]
   857c0:	528847e0 	mov	w0, #0x423f                	// #16959
   857c4:	72a001e0 	movk	w0, #0xf, lsl #16
   857c8:	6b00003f 	cmp	w1, w0
   857cc:	54ffff2d 	b.le	857b0 <fork_test+0x30>
   857d0:	52800020 	mov	w0, #0x1                   	// #1
   857d4:	b9001fe0 	str	w0, [sp, #28]
   857d8:	b9002bff 	str	wzr, [sp, #40]
   857dc:	97ffffb9 	bl	856c0 <fork>
   857e0:	b9002be0 	str	w0, [sp, #40]
   857e4:	b9402be0 	ldr	w0, [sp, #40]
   857e8:	7100001f 	cmp	w0, #0x0
   857ec:	54000bc1 	b.ne	85964 <fork_test+0x1e4>  // b.any
   857f0:	910003e0 	mov	x0, sp
   857f4:	f90013e0 	str	x0, [sp, #32]
   857f8:	d0000000 	adrp	x0, 87000 <set_exception_vector_table>
   857fc:	91240000 	add	x0, x0, #0x900
   85800:	97fffad1 	bl	84344 <uart_sends>
   85804:	97ffffa7 	bl	856a0 <getpid>
   85808:	97fffb31 	bl	844cc <uart_sendi>
   8580c:	d0000000 	adrp	x0, 87000 <set_exception_vector_table>
   85810:	91246000 	add	x0, x0, #0x918
   85814:	97fffacc 	bl	84344 <uart_sends>
   85818:	b9401fe0 	ldr	w0, [sp, #28]
   8581c:	97fffb2c 	bl	844cc <uart_sendi>
   85820:	d0000000 	adrp	x0, 87000 <set_exception_vector_table>
   85824:	91248000 	add	x0, x0, #0x920
   85828:	97fffac7 	bl	84344 <uart_sends>
   8582c:	910073e0 	add	x0, sp, #0x1c
   85830:	97fffae9 	bl	843d4 <uart_sendh>
   85834:	d0000000 	adrp	x0, 87000 <set_exception_vector_table>
   85838:	9124a000 	add	x0, x0, #0x928
   8583c:	97fffac2 	bl	84344 <uart_sends>
   85840:	f94013e0 	ldr	x0, [sp, #32]
   85844:	97fffae4 	bl	843d4 <uart_sendh>
   85848:	d0000000 	adrp	x0, 87000 <set_exception_vector_table>
   8584c:	9123e000 	add	x0, x0, #0x8f8
   85850:	97fffabd 	bl	84344 <uart_sends>
   85854:	b9401fe0 	ldr	w0, [sp, #28]
   85858:	11000400 	add	w0, w0, #0x1
   8585c:	b9001fe0 	str	w0, [sp, #28]
   85860:	97ffff98 	bl	856c0 <fork>
   85864:	b9002be0 	str	w0, [sp, #40]
   85868:	b9402be0 	ldr	w0, [sp, #40]
   8586c:	7100001f 	cmp	w0, #0x0
   85870:	540006e0 	b.eq	8594c <fork_test+0x1cc>  // b.none
   85874:	910003e0 	mov	x0, sp
   85878:	f90013e0 	str	x0, [sp, #32]
   8587c:	d0000000 	adrp	x0, 87000 <set_exception_vector_table>
   85880:	91240000 	add	x0, x0, #0x900
   85884:	97fffab0 	bl	84344 <uart_sends>
   85888:	97ffff86 	bl	856a0 <getpid>
   8588c:	97fffb10 	bl	844cc <uart_sendi>
   85890:	d0000000 	adrp	x0, 87000 <set_exception_vector_table>
   85894:	91246000 	add	x0, x0, #0x918
   85898:	97fffaab 	bl	84344 <uart_sends>
   8589c:	b9401fe0 	ldr	w0, [sp, #28]
   858a0:	97fffb0b 	bl	844cc <uart_sendi>
   858a4:	d0000000 	adrp	x0, 87000 <set_exception_vector_table>
   858a8:	91248000 	add	x0, x0, #0x920
   858ac:	97fffaa6 	bl	84344 <uart_sends>
   858b0:	910073e0 	add	x0, sp, #0x1c
   858b4:	97fffac8 	bl	843d4 <uart_sendh>
   858b8:	d0000000 	adrp	x0, 87000 <set_exception_vector_table>
   858bc:	9124a000 	add	x0, x0, #0x928
   858c0:	97fffaa1 	bl	84344 <uart_sends>
   858c4:	f94013e0 	ldr	x0, [sp, #32]
   858c8:	97fffac3 	bl	843d4 <uart_sendh>
   858cc:	d0000000 	adrp	x0, 87000 <set_exception_vector_table>
   858d0:	9123e000 	add	x0, x0, #0x8f8
   858d4:	97fffa9c 	bl	84344 <uart_sends>
   858d8:	14000020 	b	85958 <fork_test+0x1d8>
   858dc:	910003e0 	mov	x0, sp
   858e0:	f90013e0 	str	x0, [sp, #32]
   858e4:	d0000000 	adrp	x0, 87000 <set_exception_vector_table>
   858e8:	9124c000 	add	x0, x0, #0x930
   858ec:	97fffa96 	bl	84344 <uart_sends>
   858f0:	97ffff6c 	bl	856a0 <getpid>
   858f4:	97fffaf6 	bl	844cc <uart_sendi>
   858f8:	d0000000 	adrp	x0, 87000 <set_exception_vector_table>
   858fc:	91246000 	add	x0, x0, #0x918
   85900:	97fffa91 	bl	84344 <uart_sends>
   85904:	b9401fe0 	ldr	w0, [sp, #28]
   85908:	97fffaf1 	bl	844cc <uart_sendi>
   8590c:	d0000000 	adrp	x0, 87000 <set_exception_vector_table>
   85910:	91248000 	add	x0, x0, #0x920
   85914:	97fffa8c 	bl	84344 <uart_sends>
   85918:	910073e0 	add	x0, sp, #0x1c
   8591c:	97fffaae 	bl	843d4 <uart_sendh>
   85920:	d0000000 	adrp	x0, 87000 <set_exception_vector_table>
   85924:	9124a000 	add	x0, x0, #0x928
   85928:	97fffa87 	bl	84344 <uart_sends>
   8592c:	f94013e0 	ldr	x0, [sp, #32]
   85930:	97fffaa9 	bl	843d4 <uart_sendh>
   85934:	d0000000 	adrp	x0, 87000 <set_exception_vector_table>
   85938:	9123e000 	add	x0, x0, #0x8f8
   8593c:	97fffa82 	bl	84344 <uart_sends>
   85940:	b9401fe0 	ldr	w0, [sp, #28]
   85944:	11000400 	add	w0, w0, #0x1
   85948:	b9001fe0 	str	w0, [sp, #28]
   8594c:	b9401fe0 	ldr	w0, [sp, #28]
   85950:	7100101f 	cmp	w0, #0x4
   85954:	54fffc4d 	b.le	858dc <fork_test+0x15c>
   85958:	52800000 	mov	w0, #0x0                   	// #0
   8595c:	97ffff61 	bl	856e0 <exit>
   85960:	14000010 	b	859a0 <fork_test+0x220>
   85964:	d0000000 	adrp	x0, 87000 <set_exception_vector_table>
   85968:	91252000 	add	x0, x0, #0x948
   8596c:	97fffa76 	bl	84344 <uart_sends>
   85970:	97ffff4c 	bl	856a0 <getpid>
   85974:	97fffad6 	bl	844cc <uart_sendi>
   85978:	d0000000 	adrp	x0, 87000 <set_exception_vector_table>
   8597c:	91258000 	add	x0, x0, #0x960
   85980:	97fffa71 	bl	84344 <uart_sends>
   85984:	b9402be0 	ldr	w0, [sp, #40]
   85988:	97fffad1 	bl	844cc <uart_sendi>
   8598c:	d0000000 	adrp	x0, 87000 <set_exception_vector_table>
   85990:	9123e000 	add	x0, x0, #0x8f8
   85994:	97fffa6c 	bl	84344 <uart_sends>
   85998:	52800000 	mov	w0, #0x0                   	// #0
   8599c:	97ffff51 	bl	856e0 <exit>
   859a0:	d503201f 	nop
   859a4:	a8c37bfd 	ldp	x29, x30, [sp], #48
   859a8:	d65f03c0 	ret

00000000000859ac <sys_fork_test>:
   859ac:	a9be7bfd 	stp	x29, x30, [sp, #-32]!
   859b0:	910003fd 	mov	x29, sp
   859b4:	90000000 	adrp	x0, 85000 <memset+0x10>
   859b8:	911bf000 	add	x0, x0, #0x6fc
   859bc:	940000a3 	bl	85c48 <thread_create>
   859c0:	f9000fe0 	str	x0, [sp, #24]
   859c4:	940000eb 	bl	85d70 <idle>
   859c8:	d503201f 	nop
   859cc:	a8c27bfd 	ldp	x29, x30, [sp], #32
   859d0:	d65f03c0 	ret

00000000000859d4 <enqueue>:
   859d4:	d10043ff 	sub	sp, sp, #0x10
   859d8:	f90007e0 	str	x0, [sp, #8]
   859dc:	f90003e1 	str	x1, [sp]
   859e0:	f94007e0 	ldr	x0, [sp, #8]
   859e4:	f9400000 	ldr	x0, [x0]
   859e8:	f100001f 	cmp	x0, #0x0
   859ec:	54000161 	b.ne	85a18 <enqueue+0x44>  // b.any
   859f0:	f94003e0 	ldr	x0, [sp]
   859f4:	f94003e1 	ldr	x1, [sp]
   859f8:	f9004801 	str	x1, [x0, #144]
   859fc:	f94003e0 	ldr	x0, [sp]
   85a00:	f94003e1 	ldr	x1, [sp]
   85a04:	f9004401 	str	x1, [x0, #136]
   85a08:	f94007e0 	ldr	x0, [sp, #8]
   85a0c:	f94003e1 	ldr	x1, [sp]
   85a10:	f9000001 	str	x1, [x0]
   85a14:	14000013 	b	85a60 <enqueue+0x8c>
   85a18:	f94007e0 	ldr	x0, [sp, #8]
   85a1c:	f9400000 	ldr	x0, [x0]
   85a20:	f9404801 	ldr	x1, [x0, #144]
   85a24:	f94003e0 	ldr	x0, [sp]
   85a28:	f9004801 	str	x1, [x0, #144]
   85a2c:	f94007e0 	ldr	x0, [sp, #8]
   85a30:	f9400001 	ldr	x1, [x0]
   85a34:	f94003e0 	ldr	x0, [sp]
   85a38:	f9004401 	str	x1, [x0, #136]
   85a3c:	f94007e0 	ldr	x0, [sp, #8]
   85a40:	f9400000 	ldr	x0, [x0]
   85a44:	f9404800 	ldr	x0, [x0, #144]
   85a48:	f94003e1 	ldr	x1, [sp]
   85a4c:	f9004401 	str	x1, [x0, #136]
   85a50:	f94007e0 	ldr	x0, [sp, #8]
   85a54:	f9400000 	ldr	x0, [x0]
   85a58:	f94003e1 	ldr	x1, [sp]
   85a5c:	f9004801 	str	x1, [x0, #144]
   85a60:	d503201f 	nop
   85a64:	910043ff 	add	sp, sp, #0x10
   85a68:	d65f03c0 	ret

0000000000085a6c <dequeue>:
   85a6c:	d10083ff 	sub	sp, sp, #0x20
   85a70:	f90007e0 	str	x0, [sp, #8]
   85a74:	f94007e0 	ldr	x0, [sp, #8]
   85a78:	f9400000 	ldr	x0, [x0]
   85a7c:	f100001f 	cmp	x0, #0x0
   85a80:	54000061 	b.ne	85a8c <dequeue+0x20>  // b.any
   85a84:	d2800000 	mov	x0, #0x0                   	// #0
   85a88:	1400001b 	b	85af4 <dequeue+0x88>
   85a8c:	f94007e0 	ldr	x0, [sp, #8]
   85a90:	f9400000 	ldr	x0, [x0]
   85a94:	f9000fe0 	str	x0, [sp, #24]
   85a98:	f9400fe0 	ldr	x0, [sp, #24]
   85a9c:	f9404400 	ldr	x0, [x0, #136]
   85aa0:	f9400fe1 	ldr	x1, [sp, #24]
   85aa4:	eb00003f 	cmp	x1, x0
   85aa8:	54000081 	b.ne	85ab8 <dequeue+0x4c>  // b.any
   85aac:	f94007e0 	ldr	x0, [sp, #8]
   85ab0:	f900001f 	str	xzr, [x0]
   85ab4:	1400000f 	b	85af0 <dequeue+0x84>
   85ab8:	f9400fe0 	ldr	x0, [sp, #24]
   85abc:	f9404800 	ldr	x0, [x0, #144]
   85ac0:	f9400fe1 	ldr	x1, [sp, #24]
   85ac4:	f9404421 	ldr	x1, [x1, #136]
   85ac8:	f9004401 	str	x1, [x0, #136]
   85acc:	f9400fe0 	ldr	x0, [sp, #24]
   85ad0:	f9404400 	ldr	x0, [x0, #136]
   85ad4:	f9400fe1 	ldr	x1, [sp, #24]
   85ad8:	f9404821 	ldr	x1, [x1, #144]
   85adc:	f9004801 	str	x1, [x0, #144]
   85ae0:	f9400fe0 	ldr	x0, [sp, #24]
   85ae4:	f9404401 	ldr	x1, [x0, #136]
   85ae8:	f94007e0 	ldr	x0, [sp, #8]
   85aec:	f9000001 	str	x1, [x0]
   85af0:	f9400fe0 	ldr	x0, [sp, #24]
   85af4:	910083ff 	add	sp, sp, #0x20
   85af8:	d65f03c0 	ret

0000000000085afc <dequeue_t>:
   85afc:	d10043ff 	sub	sp, sp, #0x10
   85b00:	f90007e0 	str	x0, [sp, #8]
   85b04:	f90003e1 	str	x1, [sp]
   85b08:	f94007e0 	ldr	x0, [sp, #8]
   85b0c:	f9400000 	ldr	x0, [x0]
   85b10:	f100001f 	cmp	x0, #0x0
   85b14:	54000280 	b.eq	85b64 <dequeue_t+0x68>  // b.none
   85b18:	f94003e0 	ldr	x0, [sp]
   85b1c:	f9404400 	ldr	x0, [x0, #136]
   85b20:	f94003e1 	ldr	x1, [sp]
   85b24:	eb00003f 	cmp	x1, x0
   85b28:	54000081 	b.ne	85b38 <dequeue_t+0x3c>  // b.any
   85b2c:	f94007e0 	ldr	x0, [sp, #8]
   85b30:	f900001f 	str	xzr, [x0]
   85b34:	1400000d 	b	85b68 <dequeue_t+0x6c>
   85b38:	f94003e0 	ldr	x0, [sp]
   85b3c:	f9404800 	ldr	x0, [x0, #144]
   85b40:	f94003e1 	ldr	x1, [sp]
   85b44:	f9404421 	ldr	x1, [x1, #136]
   85b48:	f9004401 	str	x1, [x0, #136]
   85b4c:	f94003e0 	ldr	x0, [sp]
   85b50:	f9404400 	ldr	x0, [x0, #136]
   85b54:	f94003e1 	ldr	x1, [sp]
   85b58:	f9404821 	ldr	x1, [x1, #144]
   85b5c:	f9004801 	str	x1, [x0, #144]
   85b60:	14000002 	b	85b68 <dequeue_t+0x6c>
   85b64:	d503201f 	nop
   85b68:	910043ff 	add	sp, sp, #0x10
   85b6c:	d65f03c0 	ret

0000000000085b70 <front>:
   85b70:	d10043ff 	sub	sp, sp, #0x10
   85b74:	f90007e0 	str	x0, [sp, #8]
   85b78:	f94007e0 	ldr	x0, [sp, #8]
   85b7c:	f100001f 	cmp	x0, #0x0
   85b80:	54000061 	b.ne	85b8c <front+0x1c>  // b.any
   85b84:	d2800000 	mov	x0, #0x0                   	// #0
   85b88:	14000002 	b	85b90 <front+0x20>
   85b8c:	f94007e0 	ldr	x0, [sp, #8]
   85b90:	910043ff 	add	sp, sp, #0x10
   85b94:	d65f03c0 	ret

0000000000085b98 <show_queue>:
   85b98:	a9bd7bfd 	stp	x29, x30, [sp, #-48]!
   85b9c:	910003fd 	mov	x29, sp
   85ba0:	f9000fe0 	str	x0, [sp, #24]
   85ba4:	f9400fe0 	ldr	x0, [sp, #24]
   85ba8:	f90017e0 	str	x0, [sp, #40]
   85bac:	f9400fe0 	ldr	x0, [sp, #24]
   85bb0:	f100001f 	cmp	x0, #0x0
   85bb4:	54000240 	b.eq	85bfc <show_queue+0x64>  // b.none
   85bb8:	f94017e0 	ldr	x0, [sp, #40]
   85bbc:	b9406800 	ldr	w0, [x0, #104]
   85bc0:	97fffa43 	bl	844cc <uart_sendi>
   85bc4:	d0000000 	adrp	x0, 87000 <set_exception_vector_table>
   85bc8:	9125c000 	add	x0, x0, #0x970
   85bcc:	97fff9de 	bl	84344 <uart_sends>
   85bd0:	f94017e0 	ldr	x0, [sp, #40]
   85bd4:	f9404400 	ldr	x0, [x0, #136]
   85bd8:	f90017e0 	str	x0, [sp, #40]
   85bdc:	f94017e1 	ldr	x1, [sp, #40]
   85be0:	f9400fe0 	ldr	x0, [sp, #24]
   85be4:	eb00003f 	cmp	x1, x0
   85be8:	54fffe81 	b.ne	85bb8 <show_queue+0x20>  // b.any
   85bec:	d0000000 	adrp	x0, 87000 <set_exception_vector_table>
   85bf0:	9125e000 	add	x0, x0, #0x978
   85bf4:	97fff9d4 	bl	84344 <uart_sends>
   85bf8:	14000002 	b	85c00 <show_queue+0x68>
   85bfc:	d503201f 	nop
   85c00:	a8c37bfd 	ldp	x29, x30, [sp], #48
   85c04:	d65f03c0 	ret

0000000000085c08 <thread_init>:
   85c08:	a9bf7bfd 	stp	x29, x30, [sp, #-16]!
   85c0c:	910003fd 	mov	x29, sp
   85c10:	90000000 	adrp	x0, 85000 <memset+0x10>
   85c14:	9135c000 	add	x0, x0, #0xd70
   85c18:	9400000c 	bl	85c48 <thread_create>
   85c1c:	aa0003e1 	mov	x1, x0
   85c20:	f0000000 	adrp	x0, 88000 <get_current+0xce8>
   85c24:	91366000 	add	x0, x0, #0xd98
   85c28:	f9000001 	str	x1, [x0]
   85c2c:	f0000000 	adrp	x0, 88000 <get_current+0xce8>
   85c30:	91366000 	add	x0, x0, #0xd98
   85c34:	f9400000 	ldr	x0, [x0]
   85c38:	d518d080 	msr	tpidr_el1, x0
   85c3c:	d503201f 	nop
   85c40:	a8c17bfd 	ldp	x29, x30, [sp], #16
   85c44:	d65f03c0 	ret

0000000000085c48 <thread_create>:
   85c48:	a9bd7bfd 	stp	x29, x30, [sp, #-48]!
   85c4c:	910003fd 	mov	x29, sp
   85c50:	f9000fe0 	str	x0, [sp, #24]
   85c54:	52801300 	mov	w0, #0x98                  	// #152
   85c58:	97fff901 	bl	8405c <kmalloc>
   85c5c:	f90017e0 	str	x0, [sp, #40]
   85c60:	f0000000 	adrp	x0, 88000 <get_current+0xce8>
   85c64:	91368000 	add	x0, x0, #0xda0
   85c68:	b9400000 	ldr	w0, [x0]
   85c6c:	11000402 	add	w2, w0, #0x1
   85c70:	f0000001 	adrp	x1, 88000 <get_current+0xce8>
   85c74:	91368021 	add	x1, x1, #0xda0
   85c78:	b9000022 	str	w2, [x1]
   85c7c:	f94017e1 	ldr	x1, [sp, #40]
   85c80:	b9006820 	str	w0, [x1, #104]
   85c84:	f94017e0 	ldr	x0, [sp, #40]
   85c88:	b9006c1f 	str	wzr, [x0, #108]
   85c8c:	f94017e0 	ldr	x0, [sp, #40]
   85c90:	f900381f 	str	xzr, [x0, #112]
   85c94:	f9400fe1 	ldr	x1, [sp, #24]
   85c98:	f94017e0 	ldr	x0, [sp, #40]
   85c9c:	f9002c01 	str	x1, [x0, #88]
   85ca0:	52820000 	mov	w0, #0x1000                	// #4096
   85ca4:	97fff8ee 	bl	8405c <kmalloc>
   85ca8:	aa0003e1 	mov	x1, x0
   85cac:	f94017e0 	ldr	x0, [sp, #40]
   85cb0:	f9003c01 	str	x1, [x0, #120]
   85cb4:	52820000 	mov	w0, #0x1000                	// #4096
   85cb8:	97fff8e9 	bl	8405c <kmalloc>
   85cbc:	aa0003e1 	mov	x1, x0
   85cc0:	f94017e0 	ldr	x0, [sp, #40]
   85cc4:	f9004001 	str	x1, [x0, #128]
   85cc8:	f94017e0 	ldr	x0, [sp, #40]
   85ccc:	f9403c00 	ldr	x0, [x0, #120]
   85cd0:	91400400 	add	x0, x0, #0x1, lsl #12
   85cd4:	aa0003e1 	mov	x1, x0
   85cd8:	f94017e0 	ldr	x0, [sp, #40]
   85cdc:	f9003001 	str	x1, [x0, #96]
   85ce0:	f94017e0 	ldr	x0, [sp, #40]
   85ce4:	f9403001 	ldr	x1, [x0, #96]
   85ce8:	f94017e0 	ldr	x0, [sp, #40]
   85cec:	f9002801 	str	x1, [x0, #80]
   85cf0:	f94017e1 	ldr	x1, [sp, #40]
   85cf4:	f0000000 	adrp	x0, 88000 <get_current+0xce8>
   85cf8:	91362000 	add	x0, x0, #0xd88
   85cfc:	97ffff36 	bl	859d4 <enqueue>
   85d00:	f94017e0 	ldr	x0, [sp, #40]
   85d04:	a8c37bfd 	ldp	x29, x30, [sp], #48
   85d08:	d65f03c0 	ret

0000000000085d0c <schedule>:
   85d0c:	a9be7bfd 	stp	x29, x30, [sp, #-32]!
   85d10:	910003fd 	mov	x29, sp
   85d14:	94000581 	bl	87318 <get_current>
   85d18:	f9000fe0 	str	x0, [sp, #24]
   85d1c:	f9400fe0 	ldr	x0, [sp, #24]
   85d20:	b9406c00 	ldr	w0, [x0, #108]
   85d24:	7100001f 	cmp	w0, #0x0
   85d28:	54000120 	b.eq	85d4c <schedule+0x40>  // b.none
   85d2c:	f0000000 	adrp	x0, 88000 <get_current+0xce8>
   85d30:	91362000 	add	x0, x0, #0xd88
   85d34:	f9400000 	ldr	x0, [x0]
   85d38:	97ffff8e 	bl	85b70 <front>
   85d3c:	aa0003e1 	mov	x1, x0
   85d40:	f9400fe0 	ldr	x0, [sp, #24]
   85d44:	94000563 	bl	872d0 <switch_to>
   85d48:	14000007 	b	85d64 <schedule+0x58>
   85d4c:	f9400fe0 	ldr	x0, [sp, #24]
   85d50:	f9404400 	ldr	x0, [x0, #136]
   85d54:	f9000be0 	str	x0, [sp, #16]
   85d58:	f9400be1 	ldr	x1, [sp, #16]
   85d5c:	f9400fe0 	ldr	x0, [sp, #24]
   85d60:	9400055c 	bl	872d0 <switch_to>
   85d64:	d503201f 	nop
   85d68:	a8c27bfd 	ldp	x29, x30, [sp], #32
   85d6c:	d65f03c0 	ret

0000000000085d70 <idle>:
   85d70:	a9bf7bfd 	stp	x29, x30, [sp, #-16]!
   85d74:	910003fd 	mov	x29, sp
   85d78:	94000003 	bl	85d84 <kill_zombies>
   85d7c:	97ffffe4 	bl	85d0c <schedule>
   85d80:	17fffffe 	b	85d78 <idle+0x8>

0000000000085d84 <kill_zombies>:
   85d84:	a9be7bfd 	stp	x29, x30, [sp, #-32]!
   85d88:	910003fd 	mov	x29, sp
   85d8c:	1400000d 	b	85dc0 <kill_zombies+0x3c>
   85d90:	f0000000 	adrp	x0, 88000 <get_current+0xce8>
   85d94:	91364000 	add	x0, x0, #0xd90
   85d98:	97ffff35 	bl	85a6c <dequeue>
   85d9c:	f9000fe0 	str	x0, [sp, #24]
   85da0:	f9400fe0 	ldr	x0, [sp, #24]
   85da4:	f9403c00 	ldr	x0, [x0, #120]
   85da8:	97fff8cb 	bl	840d4 <kfree>
   85dac:	f9400fe0 	ldr	x0, [sp, #24]
   85db0:	f9404000 	ldr	x0, [x0, #128]
   85db4:	97fff8c8 	bl	840d4 <kfree>
   85db8:	f9400fe0 	ldr	x0, [sp, #24]
   85dbc:	97fff8c6 	bl	840d4 <kfree>
   85dc0:	f0000000 	adrp	x0, 88000 <get_current+0xce8>
   85dc4:	91364000 	add	x0, x0, #0xd90
   85dc8:	f9400000 	ldr	x0, [x0]
   85dcc:	f100001f 	cmp	x0, #0x0
   85dd0:	54fffe01 	b.ne	85d90 <kill_zombies+0xc>  // b.any
   85dd4:	d503201f 	nop
   85dd8:	d503201f 	nop
   85ddc:	a8c27bfd 	ldp	x29, x30, [sp], #32
   85de0:	d65f03c0 	ret

0000000000085de4 <thread_exit>:
   85de4:	a9be7bfd 	stp	x29, x30, [sp, #-32]!
   85de8:	910003fd 	mov	x29, sp
   85dec:	9400054b 	bl	87318 <get_current>
   85df0:	f9000fe0 	str	x0, [sp, #24]
   85df4:	f9400fe0 	ldr	x0, [sp, #24]
   85df8:	52800041 	mov	w1, #0x2                   	// #2
   85dfc:	b9006c01 	str	w1, [x0, #108]
   85e00:	f9400fe0 	ldr	x0, [sp, #24]
   85e04:	f9404401 	ldr	x1, [x0, #136]
   85e08:	f0000000 	adrp	x0, 88000 <get_current+0xce8>
   85e0c:	91362000 	add	x0, x0, #0xd88
   85e10:	f9000001 	str	x1, [x0]
   85e14:	f9400fe1 	ldr	x1, [sp, #24]
   85e18:	f0000000 	adrp	x0, 88000 <get_current+0xce8>
   85e1c:	91362000 	add	x0, x0, #0xd88
   85e20:	97ffff37 	bl	85afc <dequeue_t>
   85e24:	f9400fe1 	ldr	x1, [sp, #24]
   85e28:	f0000000 	adrp	x0, 88000 <get_current+0xce8>
   85e2c:	91364000 	add	x0, x0, #0xd90
   85e30:	97fffee9 	bl	859d4 <enqueue>
   85e34:	97ffffb6 	bl	85d0c <schedule>
   85e38:	d503201f 	nop
   85e3c:	a8c27bfd 	ldp	x29, x30, [sp], #32
   85e40:	d65f03c0 	ret

0000000000085e44 <thread_kill>:
   85e44:	a9bd7bfd 	stp	x29, x30, [sp, #-48]!
   85e48:	910003fd 	mov	x29, sp
   85e4c:	b9001fe0 	str	w0, [sp, #28]
   85e50:	f0000000 	adrp	x0, 88000 <get_current+0xce8>
   85e54:	91362000 	add	x0, x0, #0xd88
   85e58:	f9400000 	ldr	x0, [x0]
   85e5c:	f90017e0 	str	x0, [sp, #40]
   85e60:	14000016 	b	85eb8 <thread_kill+0x74>
   85e64:	f94017e0 	ldr	x0, [sp, #40]
   85e68:	b9406800 	ldr	w0, [x0, #104]
   85e6c:	b9401fe1 	ldr	w1, [sp, #28]
   85e70:	6b00003f 	cmp	w1, w0
   85e74:	540001c1 	b.ne	85eac <thread_kill+0x68>  // b.any
   85e78:	f94017e0 	ldr	x0, [sp, #40]
   85e7c:	52800041 	mov	w1, #0x2                   	// #2
   85e80:	b9006c01 	str	w1, [x0, #108]
   85e84:	f94017e1 	ldr	x1, [sp, #40]
   85e88:	f0000000 	adrp	x0, 88000 <get_current+0xce8>
   85e8c:	91362000 	add	x0, x0, #0xd88
   85e90:	97ffff1b 	bl	85afc <dequeue_t>
   85e94:	f94017e1 	ldr	x1, [sp, #40]
   85e98:	f0000000 	adrp	x0, 88000 <get_current+0xce8>
   85e9c:	91364000 	add	x0, x0, #0xd90
   85ea0:	97fffecd 	bl	859d4 <enqueue>
   85ea4:	52800000 	mov	w0, #0x0                   	// #0
   85ea8:	14000008 	b	85ec8 <thread_kill+0x84>
   85eac:	f94017e0 	ldr	x0, [sp, #40]
   85eb0:	f9404400 	ldr	x0, [x0, #136]
   85eb4:	f90017e0 	str	x0, [sp, #40]
   85eb8:	f94017e0 	ldr	x0, [sp, #40]
   85ebc:	f100001f 	cmp	x0, #0x0
   85ec0:	54fffd21 	b.ne	85e64 <thread_kill+0x20>  // b.any
   85ec4:	52800020 	mov	w0, #0x1                   	// #1
   85ec8:	a8c37bfd 	ldp	x29, x30, [sp], #48
   85ecc:	d65f03c0 	ret

0000000000085ed0 <do_scheduler>:
   85ed0:	a9bf7bfd 	stp	x29, x30, [sp, #-16]!
   85ed4:	910003fd 	mov	x29, sp
   85ed8:	97ffff8d 	bl	85d0c <schedule>
   85edc:	d503201f 	nop
   85ee0:	a8c17bfd 	ldp	x29, x30, [sp], #16
   85ee4:	d65f03c0 	ret

0000000000085ee8 <add_scheduler>:
   85ee8:	a9be7bfd 	stp	x29, x30, [sp, #-32]!
   85eec:	910003fd 	mov	x29, sp
   85ef0:	94000057 	bl	8604c <get_freq>
   85ef4:	f9000fe0 	str	x0, [sp, #24]
   85ef8:	d2800002 	mov	x2, #0x0                   	// #0
   85efc:	90000000 	adrp	x0, 85000 <memset+0x10>
   85f00:	913ba001 	add	x1, x0, #0xee8
   85f04:	d2800020 	mov	x0, #0x1                   	// #1
   85f08:	9400006a 	bl	860b0 <add_timer>
   85f0c:	d2800002 	mov	x2, #0x0                   	// #0
   85f10:	90000000 	adrp	x0, 85000 <memset+0x10>
   85f14:	913b4001 	add	x1, x0, #0xed0
   85f18:	f9400fe0 	ldr	x0, [sp, #24]
   85f1c:	94000065 	bl	860b0 <add_timer>
   85f20:	d503201f 	nop
   85f24:	a8c27bfd 	ldp	x29, x30, [sp], #32
   85f28:	d65f03c0 	ret

0000000000085f2c <foo>:
   85f2c:	a9be7bfd 	stp	x29, x30, [sp, #-32]!
   85f30:	910003fd 	mov	x29, sp
   85f34:	b9001fff 	str	wzr, [sp, #28]
   85f38:	1400001d 	b	85fac <foo+0x80>
   85f3c:	d0000000 	adrp	x0, 87000 <set_exception_vector_table>
   85f40:	91260000 	add	x0, x0, #0x980
   85f44:	97fff900 	bl	84344 <uart_sends>
   85f48:	940004f4 	bl	87318 <get_current>
   85f4c:	b9406800 	ldr	w0, [x0, #104]
   85f50:	97fff95f 	bl	844cc <uart_sendi>
   85f54:	d0000000 	adrp	x0, 87000 <set_exception_vector_table>
   85f58:	91264000 	add	x0, x0, #0x990
   85f5c:	97fff8fa 	bl	84344 <uart_sends>
   85f60:	b9401fe0 	ldr	w0, [sp, #28]
   85f64:	97fff95a 	bl	844cc <uart_sendi>
   85f68:	d0000000 	adrp	x0, 87000 <set_exception_vector_table>
   85f6c:	9125e000 	add	x0, x0, #0x978
   85f70:	97fff8f5 	bl	84344 <uart_sends>
   85f74:	b9001bff 	str	wzr, [sp, #24]
   85f78:	14000004 	b	85f88 <foo+0x5c>
   85f7c:	b9401be0 	ldr	w0, [sp, #24]
   85f80:	11000400 	add	w0, w0, #0x1
   85f84:	b9001be0 	str	w0, [sp, #24]
   85f88:	b9401be1 	ldr	w1, [sp, #24]
   85f8c:	528847e0 	mov	w0, #0x423f                	// #16959
   85f90:	72a001e0 	movk	w0, #0xf, lsl #16
   85f94:	6b00003f 	cmp	w1, w0
   85f98:	54ffff2d 	b.le	85f7c <foo+0x50>
   85f9c:	97ffff5c 	bl	85d0c <schedule>
   85fa0:	b9401fe0 	ldr	w0, [sp, #28]
   85fa4:	11000400 	add	w0, w0, #0x1
   85fa8:	b9001fe0 	str	w0, [sp, #28]
   85fac:	b9401fe0 	ldr	w0, [sp, #28]
   85fb0:	7100241f 	cmp	w0, #0x9
   85fb4:	54fffc4d 	b.le	85f3c <foo+0x10>
   85fb8:	97ffff8b 	bl	85de4 <thread_exit>
   85fbc:	d503201f 	nop
   85fc0:	a8c27bfd 	ldp	x29, x30, [sp], #32
   85fc4:	d65f03c0 	ret

0000000000085fc8 <thread_test>:
   85fc8:	a9be7bfd 	stp	x29, x30, [sp, #-32]!
   85fcc:	910003fd 	mov	x29, sp
   85fd0:	b9001fff 	str	wzr, [sp, #28]
   85fd4:	14000007 	b	85ff0 <thread_test+0x28>
   85fd8:	90000000 	adrp	x0, 85000 <memset+0x10>
   85fdc:	913cb000 	add	x0, x0, #0xf2c
   85fe0:	97ffff1a 	bl	85c48 <thread_create>
   85fe4:	b9401fe0 	ldr	w0, [sp, #28]
   85fe8:	11000400 	add	w0, w0, #0x1
   85fec:	b9001fe0 	str	w0, [sp, #28]
   85ff0:	b9401fe0 	ldr	w0, [sp, #28]
   85ff4:	7100081f 	cmp	w0, #0x2
   85ff8:	54ffff0d 	b.le	85fd8 <thread_test+0x10>
   85ffc:	97ffff5d 	bl	85d70 <idle>
   86000:	d503201f 	nop
   86004:	a8c27bfd 	ldp	x29, x30, [sp], #32
   86008:	d65f03c0 	ret

000000000008600c <get_time_s>:
   8600c:	a9be7bfd 	stp	x29, x30, [sp, #-32]!
   86010:	910003fd 	mov	x29, sp
   86014:	f9000bf3 	str	x19, [sp, #16]
   86018:	94000007 	bl	86034 <get_time>
   8601c:	aa0003f3 	mov	x19, x0
   86020:	9400000b 	bl	8604c <get_freq>
   86024:	9ac00a60 	udiv	x0, x19, x0
   86028:	f9400bf3 	ldr	x19, [sp, #16]
   8602c:	a8c27bfd 	ldp	x29, x30, [sp], #32
   86030:	d65f03c0 	ret

0000000000086034 <get_time>:
   86034:	d10043ff 	sub	sp, sp, #0x10
   86038:	d53be020 	mrs	x0, cntpct_el0
   8603c:	f90007e0 	str	x0, [sp, #8]
   86040:	f94007e0 	ldr	x0, [sp, #8]
   86044:	910043ff 	add	sp, sp, #0x10
   86048:	d65f03c0 	ret

000000000008604c <get_freq>:
   8604c:	d10043ff 	sub	sp, sp, #0x10
   86050:	d53be000 	mrs	x0, cntfrq_el0
   86054:	f90007e0 	str	x0, [sp, #8]
   86058:	f94007e0 	ldr	x0, [sp, #8]
   8605c:	910043ff 	add	sp, sp, #0x10
   86060:	d65f03c0 	ret

0000000000086064 <set_timeout>:
   86064:	a9bd7bfd 	stp	x29, x30, [sp, #-48]!
   86068:	910003fd 	mov	x29, sp
   8606c:	f9000fe0 	str	x0, [sp, #24]
   86070:	f9000be1 	str	x1, [sp, #16]
   86074:	97fffff6 	bl	8604c <get_freq>
   86078:	aa0003e1 	mov	x1, x0
   8607c:	f9400be0 	ldr	x0, [sp, #16]
   86080:	9b017c00 	mul	x0, x0, x1
   86084:	f90017e0 	str	x0, [sp, #40]
   86088:	f9400fe0 	ldr	x0, [sp, #24]
   8608c:	97fffb4d 	bl	84dc0 <strdup>
   86090:	aa0003e2 	mov	x2, x0
   86094:	90000000 	adrp	x0, 86000 <thread_test+0x38>
   86098:	91075001 	add	x1, x0, #0x1d4
   8609c:	f94017e0 	ldr	x0, [sp, #40]
   860a0:	94000004 	bl	860b0 <add_timer>
   860a4:	d503201f 	nop
   860a8:	a8c37bfd 	ldp	x29, x30, [sp], #48
   860ac:	d65f03c0 	ret

00000000000860b0 <add_timer>:
   860b0:	a9bb7bfd 	stp	x29, x30, [sp, #-80]!
   860b4:	910003fd 	mov	x29, sp
   860b8:	f90017e0 	str	x0, [sp, #40]
   860bc:	f90013e1 	str	x1, [sp, #32]
   860c0:	f9000fe2 	str	x2, [sp, #24]
   860c4:	52800400 	mov	w0, #0x20                  	// #32
   860c8:	97fff7e5 	bl	8405c <kmalloc>
   860cc:	f9001fe0 	str	x0, [sp, #56]
   860d0:	f9401fe0 	ldr	x0, [sp, #56]
   860d4:	f100001f 	cmp	x0, #0x0
   860d8:	540000c1 	b.ne	860f0 <add_timer+0x40>  // b.any
   860dc:	b0000000 	adrp	x0, 87000 <set_exception_vector_table>
   860e0:	91266000 	add	x0, x0, #0x998
   860e4:	97fff898 	bl	84344 <uart_sends>
   860e8:	12800000 	mov	w0, #0xffffffff            	// #-1
   860ec:	14000038 	b	861cc <add_timer+0x11c>
   860f0:	97ffffd1 	bl	86034 <get_time>
   860f4:	aa0003e1 	mov	x1, x0
   860f8:	f94017e0 	ldr	x0, [sp, #40]
   860fc:	8b000021 	add	x1, x1, x0
   86100:	f9401fe0 	ldr	x0, [sp, #56]
   86104:	f9000001 	str	x1, [x0]
   86108:	f9401fe0 	ldr	x0, [sp, #56]
   8610c:	f94013e1 	ldr	x1, [sp, #32]
   86110:	f9000401 	str	x1, [x0, #8]
   86114:	f9401fe0 	ldr	x0, [sp, #56]
   86118:	f9400fe1 	ldr	x1, [sp, #24]
   8611c:	f9000801 	str	x1, [x0, #16]
   86120:	f9401fe0 	ldr	x0, [sp, #56]
   86124:	f9000c1f 	str	xzr, [x0, #24]
   86128:	d0000000 	adrp	x0, 88000 <get_current+0xce8>
   8612c:	9136a000 	add	x0, x0, #0xda8
   86130:	f9400000 	ldr	x0, [x0]
   86134:	f90027e0 	str	x0, [sp, #72]
   86138:	f90023ff 	str	xzr, [sp, #64]
   8613c:	14000006 	b	86154 <add_timer+0xa4>
   86140:	f94027e0 	ldr	x0, [sp, #72]
   86144:	f90023e0 	str	x0, [sp, #64]
   86148:	f94027e0 	ldr	x0, [sp, #72]
   8614c:	f9400c00 	ldr	x0, [x0, #24]
   86150:	f90027e0 	str	x0, [sp, #72]
   86154:	f94027e0 	ldr	x0, [sp, #72]
   86158:	f100001f 	cmp	x0, #0x0
   8615c:	540000e0 	b.eq	86178 <add_timer+0xc8>  // b.none
   86160:	f94027e0 	ldr	x0, [sp, #72]
   86164:	f9400001 	ldr	x1, [x0]
   86168:	f9401fe0 	ldr	x0, [sp, #56]
   8616c:	f9400000 	ldr	x0, [x0]
   86170:	eb00003f 	cmp	x1, x0
   86174:	54fffe63 	b.cc	86140 <add_timer+0x90>  // b.lo, b.ul, b.last
   86178:	f94023e0 	ldr	x0, [sp, #64]
   8617c:	f100001f 	cmp	x0, #0x0
   86180:	54000161 	b.ne	861ac <add_timer+0xfc>  // b.any
   86184:	d0000000 	adrp	x0, 88000 <get_current+0xce8>
   86188:	9136a000 	add	x0, x0, #0xda8
   8618c:	f9400001 	ldr	x1, [x0]
   86190:	f9401fe0 	ldr	x0, [sp, #56]
   86194:	f9000c01 	str	x1, [x0, #24]
   86198:	d0000000 	adrp	x0, 88000 <get_current+0xce8>
   8619c:	9136a000 	add	x0, x0, #0xda8
   861a0:	f9401fe1 	ldr	x1, [sp, #56]
   861a4:	f9000001 	str	x1, [x0]
   861a8:	14000007 	b	861c4 <add_timer+0x114>
   861ac:	f9401fe0 	ldr	x0, [sp, #56]
   861b0:	f94027e1 	ldr	x1, [sp, #72]
   861b4:	f9000c01 	str	x1, [x0, #24]
   861b8:	f94023e0 	ldr	x0, [sp, #64]
   861bc:	f9401fe1 	ldr	x1, [sp, #56]
   861c0:	f9000c01 	str	x1, [x0, #24]
   861c4:	97fff249 	bl	82ae8 <core_timer_enable>
   861c8:	52800000 	mov	w0, #0x0                   	// #0
   861cc:	a8c57bfd 	ldp	x29, x30, [sp], #80
   861d0:	d65f03c0 	ret

00000000000861d4 <print_message>:
   861d4:	a9bd7bfd 	stp	x29, x30, [sp, #-48]!
   861d8:	910003fd 	mov	x29, sp
   861dc:	f9000fe0 	str	x0, [sp, #24]
   861e0:	f9400fe0 	ldr	x0, [sp, #24]
   861e4:	f90017e0 	str	x0, [sp, #40]
   861e8:	b0000000 	adrp	x0, 87000 <set_exception_vector_table>
   861ec:	9126a000 	add	x0, x0, #0x9a8
   861f0:	97fff855 	bl	84344 <uart_sends>
   861f4:	f94017e0 	ldr	x0, [sp, #40]
   861f8:	97fff853 	bl	84344 <uart_sends>
   861fc:	b0000000 	adrp	x0, 87000 <set_exception_vector_table>
   86200:	9126e000 	add	x0, x0, #0x9b8
   86204:	97fff850 	bl	84344 <uart_sends>
   86208:	d503201f 	nop
   8620c:	a8c37bfd 	ldp	x29, x30, [sp], #48
   86210:	d65f03c0 	ret
	...

0000000000086800 <exception_vector_table>:
   86800:	14000203 	b	8700c <exception_handler>
   86804:	d503201f 	nop
   86808:	d503201f 	nop
   8680c:	d503201f 	nop
   86810:	d503201f 	nop
   86814:	d503201f 	nop
   86818:	d503201f 	nop
   8681c:	d503201f 	nop
   86820:	d503201f 	nop
   86824:	d503201f 	nop
   86828:	d503201f 	nop
   8682c:	d503201f 	nop
   86830:	d503201f 	nop
   86834:	d503201f 	nop
   86838:	d503201f 	nop
   8683c:	d503201f 	nop
   86840:	d503201f 	nop
   86844:	d503201f 	nop
   86848:	d503201f 	nop
   8684c:	d503201f 	nop
   86850:	d503201f 	nop
   86854:	d503201f 	nop
   86858:	d503201f 	nop
   8685c:	d503201f 	nop
   86860:	d503201f 	nop
   86864:	d503201f 	nop
   86868:	d503201f 	nop
   8686c:	d503201f 	nop
   86870:	d503201f 	nop
   86874:	d503201f 	nop
   86878:	d503201f 	nop
   8687c:	d503201f 	nop
   86880:	140001e3 	b	8700c <exception_handler>
   86884:	d503201f 	nop
   86888:	d503201f 	nop
   8688c:	d503201f 	nop
   86890:	d503201f 	nop
   86894:	d503201f 	nop
   86898:	d503201f 	nop
   8689c:	d503201f 	nop
   868a0:	d503201f 	nop
   868a4:	d503201f 	nop
   868a8:	d503201f 	nop
   868ac:	d503201f 	nop
   868b0:	d503201f 	nop
   868b4:	d503201f 	nop
   868b8:	d503201f 	nop
   868bc:	d503201f 	nop
   868c0:	d503201f 	nop
   868c4:	d503201f 	nop
   868c8:	d503201f 	nop
   868cc:	d503201f 	nop
   868d0:	d503201f 	nop
   868d4:	d503201f 	nop
   868d8:	d503201f 	nop
   868dc:	d503201f 	nop
   868e0:	d503201f 	nop
   868e4:	d503201f 	nop
   868e8:	d503201f 	nop
   868ec:	d503201f 	nop
   868f0:	d503201f 	nop
   868f4:	d503201f 	nop
   868f8:	d503201f 	nop
   868fc:	d503201f 	nop
   86900:	140001c3 	b	8700c <exception_handler>
   86904:	d503201f 	nop
   86908:	d503201f 	nop
   8690c:	d503201f 	nop
   86910:	d503201f 	nop
   86914:	d503201f 	nop
   86918:	d503201f 	nop
   8691c:	d503201f 	nop
   86920:	d503201f 	nop
   86924:	d503201f 	nop
   86928:	d503201f 	nop
   8692c:	d503201f 	nop
   86930:	d503201f 	nop
   86934:	d503201f 	nop
   86938:	d503201f 	nop
   8693c:	d503201f 	nop
   86940:	d503201f 	nop
   86944:	d503201f 	nop
   86948:	d503201f 	nop
   8694c:	d503201f 	nop
   86950:	d503201f 	nop
   86954:	d503201f 	nop
   86958:	d503201f 	nop
   8695c:	d503201f 	nop
   86960:	d503201f 	nop
   86964:	d503201f 	nop
   86968:	d503201f 	nop
   8696c:	d503201f 	nop
   86970:	d503201f 	nop
   86974:	d503201f 	nop
   86978:	d503201f 	nop
   8697c:	d503201f 	nop
   86980:	140001a3 	b	8700c <exception_handler>
   86984:	d503201f 	nop
   86988:	d503201f 	nop
   8698c:	d503201f 	nop
   86990:	d503201f 	nop
   86994:	d503201f 	nop
   86998:	d503201f 	nop
   8699c:	d503201f 	nop
   869a0:	d503201f 	nop
   869a4:	d503201f 	nop
   869a8:	d503201f 	nop
   869ac:	d503201f 	nop
   869b0:	d503201f 	nop
   869b4:	d503201f 	nop
   869b8:	d503201f 	nop
   869bc:	d503201f 	nop
   869c0:	d503201f 	nop
   869c4:	d503201f 	nop
   869c8:	d503201f 	nop
   869cc:	d503201f 	nop
   869d0:	d503201f 	nop
   869d4:	d503201f 	nop
   869d8:	d503201f 	nop
   869dc:	d503201f 	nop
   869e0:	d503201f 	nop
   869e4:	d503201f 	nop
   869e8:	d503201f 	nop
   869ec:	d503201f 	nop
   869f0:	d503201f 	nop
   869f4:	d503201f 	nop
   869f8:	d503201f 	nop
   869fc:	d503201f 	nop
   86a00:	14000183 	b	8700c <exception_handler>
   86a04:	d503201f 	nop
   86a08:	d503201f 	nop
   86a0c:	d503201f 	nop
   86a10:	d503201f 	nop
   86a14:	d503201f 	nop
   86a18:	d503201f 	nop
   86a1c:	d503201f 	nop
   86a20:	d503201f 	nop
   86a24:	d503201f 	nop
   86a28:	d503201f 	nop
   86a2c:	d503201f 	nop
   86a30:	d503201f 	nop
   86a34:	d503201f 	nop
   86a38:	d503201f 	nop
   86a3c:	d503201f 	nop
   86a40:	d503201f 	nop
   86a44:	d503201f 	nop
   86a48:	d503201f 	nop
   86a4c:	d503201f 	nop
   86a50:	d503201f 	nop
   86a54:	d503201f 	nop
   86a58:	d503201f 	nop
   86a5c:	d503201f 	nop
   86a60:	d503201f 	nop
   86a64:	d503201f 	nop
   86a68:	d503201f 	nop
   86a6c:	d503201f 	nop
   86a70:	d503201f 	nop
   86a74:	d503201f 	nop
   86a78:	d503201f 	nop
   86a7c:	d503201f 	nop
   86a80:	1400018f 	b	870bc <irq_handler>
   86a84:	d503201f 	nop
   86a88:	d503201f 	nop
   86a8c:	d503201f 	nop
   86a90:	d503201f 	nop
   86a94:	d503201f 	nop
   86a98:	d503201f 	nop
   86a9c:	d503201f 	nop
   86aa0:	d503201f 	nop
   86aa4:	d503201f 	nop
   86aa8:	d503201f 	nop
   86aac:	d503201f 	nop
   86ab0:	d503201f 	nop
   86ab4:	d503201f 	nop
   86ab8:	d503201f 	nop
   86abc:	d503201f 	nop
   86ac0:	d503201f 	nop
   86ac4:	d503201f 	nop
   86ac8:	d503201f 	nop
   86acc:	d503201f 	nop
   86ad0:	d503201f 	nop
   86ad4:	d503201f 	nop
   86ad8:	d503201f 	nop
   86adc:	d503201f 	nop
   86ae0:	d503201f 	nop
   86ae4:	d503201f 	nop
   86ae8:	d503201f 	nop
   86aec:	d503201f 	nop
   86af0:	d503201f 	nop
   86af4:	d503201f 	nop
   86af8:	d503201f 	nop
   86afc:	d503201f 	nop
   86b00:	14000143 	b	8700c <exception_handler>
   86b04:	d503201f 	nop
   86b08:	d503201f 	nop
   86b0c:	d503201f 	nop
   86b10:	d503201f 	nop
   86b14:	d503201f 	nop
   86b18:	d503201f 	nop
   86b1c:	d503201f 	nop
   86b20:	d503201f 	nop
   86b24:	d503201f 	nop
   86b28:	d503201f 	nop
   86b2c:	d503201f 	nop
   86b30:	d503201f 	nop
   86b34:	d503201f 	nop
   86b38:	d503201f 	nop
   86b3c:	d503201f 	nop
   86b40:	d503201f 	nop
   86b44:	d503201f 	nop
   86b48:	d503201f 	nop
   86b4c:	d503201f 	nop
   86b50:	d503201f 	nop
   86b54:	d503201f 	nop
   86b58:	d503201f 	nop
   86b5c:	d503201f 	nop
   86b60:	d503201f 	nop
   86b64:	d503201f 	nop
   86b68:	d503201f 	nop
   86b6c:	d503201f 	nop
   86b70:	d503201f 	nop
   86b74:	d503201f 	nop
   86b78:	d503201f 	nop
   86b7c:	d503201f 	nop
   86b80:	14000123 	b	8700c <exception_handler>
   86b84:	d503201f 	nop
   86b88:	d503201f 	nop
   86b8c:	d503201f 	nop
   86b90:	d503201f 	nop
   86b94:	d503201f 	nop
   86b98:	d503201f 	nop
   86b9c:	d503201f 	nop
   86ba0:	d503201f 	nop
   86ba4:	d503201f 	nop
   86ba8:	d503201f 	nop
   86bac:	d503201f 	nop
   86bb0:	d503201f 	nop
   86bb4:	d503201f 	nop
   86bb8:	d503201f 	nop
   86bbc:	d503201f 	nop
   86bc0:	d503201f 	nop
   86bc4:	d503201f 	nop
   86bc8:	d503201f 	nop
   86bcc:	d503201f 	nop
   86bd0:	d503201f 	nop
   86bd4:	d503201f 	nop
   86bd8:	d503201f 	nop
   86bdc:	d503201f 	nop
   86be0:	d503201f 	nop
   86be4:	d503201f 	nop
   86be8:	d503201f 	nop
   86bec:	d503201f 	nop
   86bf0:	d503201f 	nop
   86bf4:	d503201f 	nop
   86bf8:	d503201f 	nop
   86bfc:	d503201f 	nop
   86c00:	1400015b 	b	8716c <lower_exception_handler>
   86c04:	d503201f 	nop
   86c08:	d503201f 	nop
   86c0c:	d503201f 	nop
   86c10:	d503201f 	nop
   86c14:	d503201f 	nop
   86c18:	d503201f 	nop
   86c1c:	d503201f 	nop
   86c20:	d503201f 	nop
   86c24:	d503201f 	nop
   86c28:	d503201f 	nop
   86c2c:	d503201f 	nop
   86c30:	d503201f 	nop
   86c34:	d503201f 	nop
   86c38:	d503201f 	nop
   86c3c:	d503201f 	nop
   86c40:	d503201f 	nop
   86c44:	d503201f 	nop
   86c48:	d503201f 	nop
   86c4c:	d503201f 	nop
   86c50:	d503201f 	nop
   86c54:	d503201f 	nop
   86c58:	d503201f 	nop
   86c5c:	d503201f 	nop
   86c60:	d503201f 	nop
   86c64:	d503201f 	nop
   86c68:	d503201f 	nop
   86c6c:	d503201f 	nop
   86c70:	d503201f 	nop
   86c74:	d503201f 	nop
   86c78:	d503201f 	nop
   86c7c:	d503201f 	nop
   86c80:	14000168 	b	87220 <lower_irq_hadler>
   86c84:	d503201f 	nop
   86c88:	d503201f 	nop
   86c8c:	d503201f 	nop
   86c90:	d503201f 	nop
   86c94:	d503201f 	nop
   86c98:	d503201f 	nop
   86c9c:	d503201f 	nop
   86ca0:	d503201f 	nop
   86ca4:	d503201f 	nop
   86ca8:	d503201f 	nop
   86cac:	d503201f 	nop
   86cb0:	d503201f 	nop
   86cb4:	d503201f 	nop
   86cb8:	d503201f 	nop
   86cbc:	d503201f 	nop
   86cc0:	d503201f 	nop
   86cc4:	d503201f 	nop
   86cc8:	d503201f 	nop
   86ccc:	d503201f 	nop
   86cd0:	d503201f 	nop
   86cd4:	d503201f 	nop
   86cd8:	d503201f 	nop
   86cdc:	d503201f 	nop
   86ce0:	d503201f 	nop
   86ce4:	d503201f 	nop
   86ce8:	d503201f 	nop
   86cec:	d503201f 	nop
   86cf0:	d503201f 	nop
   86cf4:	d503201f 	nop
   86cf8:	d503201f 	nop
   86cfc:	d503201f 	nop
   86d00:	140000c3 	b	8700c <exception_handler>
   86d04:	d503201f 	nop
   86d08:	d503201f 	nop
   86d0c:	d503201f 	nop
   86d10:	d503201f 	nop
   86d14:	d503201f 	nop
   86d18:	d503201f 	nop
   86d1c:	d503201f 	nop
   86d20:	d503201f 	nop
   86d24:	d503201f 	nop
   86d28:	d503201f 	nop
   86d2c:	d503201f 	nop
   86d30:	d503201f 	nop
   86d34:	d503201f 	nop
   86d38:	d503201f 	nop
   86d3c:	d503201f 	nop
   86d40:	d503201f 	nop
   86d44:	d503201f 	nop
   86d48:	d503201f 	nop
   86d4c:	d503201f 	nop
   86d50:	d503201f 	nop
   86d54:	d503201f 	nop
   86d58:	d503201f 	nop
   86d5c:	d503201f 	nop
   86d60:	d503201f 	nop
   86d64:	d503201f 	nop
   86d68:	d503201f 	nop
   86d6c:	d503201f 	nop
   86d70:	d503201f 	nop
   86d74:	d503201f 	nop
   86d78:	d503201f 	nop
   86d7c:	d503201f 	nop
   86d80:	140000a3 	b	8700c <exception_handler>
   86d84:	d503201f 	nop
   86d88:	d503201f 	nop
   86d8c:	d503201f 	nop
   86d90:	d503201f 	nop
   86d94:	d503201f 	nop
   86d98:	d503201f 	nop
   86d9c:	d503201f 	nop
   86da0:	d503201f 	nop
   86da4:	d503201f 	nop
   86da8:	d503201f 	nop
   86dac:	d503201f 	nop
   86db0:	d503201f 	nop
   86db4:	d503201f 	nop
   86db8:	d503201f 	nop
   86dbc:	d503201f 	nop
   86dc0:	d503201f 	nop
   86dc4:	d503201f 	nop
   86dc8:	d503201f 	nop
   86dcc:	d503201f 	nop
   86dd0:	d503201f 	nop
   86dd4:	d503201f 	nop
   86dd8:	d503201f 	nop
   86ddc:	d503201f 	nop
   86de0:	d503201f 	nop
   86de4:	d503201f 	nop
   86de8:	d503201f 	nop
   86dec:	d503201f 	nop
   86df0:	d503201f 	nop
   86df4:	d503201f 	nop
   86df8:	d503201f 	nop
   86dfc:	d503201f 	nop
   86e00:	14000083 	b	8700c <exception_handler>
   86e04:	d503201f 	nop
   86e08:	d503201f 	nop
   86e0c:	d503201f 	nop
   86e10:	d503201f 	nop
   86e14:	d503201f 	nop
   86e18:	d503201f 	nop
   86e1c:	d503201f 	nop
   86e20:	d503201f 	nop
   86e24:	d503201f 	nop
   86e28:	d503201f 	nop
   86e2c:	d503201f 	nop
   86e30:	d503201f 	nop
   86e34:	d503201f 	nop
   86e38:	d503201f 	nop
   86e3c:	d503201f 	nop
   86e40:	d503201f 	nop
   86e44:	d503201f 	nop
   86e48:	d503201f 	nop
   86e4c:	d503201f 	nop
   86e50:	d503201f 	nop
   86e54:	d503201f 	nop
   86e58:	d503201f 	nop
   86e5c:	d503201f 	nop
   86e60:	d503201f 	nop
   86e64:	d503201f 	nop
   86e68:	d503201f 	nop
   86e6c:	d503201f 	nop
   86e70:	d503201f 	nop
   86e74:	d503201f 	nop
   86e78:	d503201f 	nop
   86e7c:	d503201f 	nop
   86e80:	14000063 	b	8700c <exception_handler>
   86e84:	d503201f 	nop
   86e88:	d503201f 	nop
   86e8c:	d503201f 	nop
   86e90:	d503201f 	nop
   86e94:	d503201f 	nop
   86e98:	d503201f 	nop
   86e9c:	d503201f 	nop
   86ea0:	d503201f 	nop
   86ea4:	d503201f 	nop
   86ea8:	d503201f 	nop
   86eac:	d503201f 	nop
   86eb0:	d503201f 	nop
   86eb4:	d503201f 	nop
   86eb8:	d503201f 	nop
   86ebc:	d503201f 	nop
   86ec0:	d503201f 	nop
   86ec4:	d503201f 	nop
   86ec8:	d503201f 	nop
   86ecc:	d503201f 	nop
   86ed0:	d503201f 	nop
   86ed4:	d503201f 	nop
   86ed8:	d503201f 	nop
   86edc:	d503201f 	nop
   86ee0:	d503201f 	nop
   86ee4:	d503201f 	nop
   86ee8:	d503201f 	nop
   86eec:	d503201f 	nop
   86ef0:	d503201f 	nop
   86ef4:	d503201f 	nop
   86ef8:	d503201f 	nop
   86efc:	d503201f 	nop
   86f00:	14000043 	b	8700c <exception_handler>
   86f04:	d503201f 	nop
   86f08:	d503201f 	nop
   86f0c:	d503201f 	nop
   86f10:	d503201f 	nop
   86f14:	d503201f 	nop
   86f18:	d503201f 	nop
   86f1c:	d503201f 	nop
   86f20:	d503201f 	nop
   86f24:	d503201f 	nop
   86f28:	d503201f 	nop
   86f2c:	d503201f 	nop
   86f30:	d503201f 	nop
   86f34:	d503201f 	nop
   86f38:	d503201f 	nop
   86f3c:	d503201f 	nop
   86f40:	d503201f 	nop
   86f44:	d503201f 	nop
   86f48:	d503201f 	nop
   86f4c:	d503201f 	nop
   86f50:	d503201f 	nop
   86f54:	d503201f 	nop
   86f58:	d503201f 	nop
   86f5c:	d503201f 	nop
   86f60:	d503201f 	nop
   86f64:	d503201f 	nop
   86f68:	d503201f 	nop
   86f6c:	d503201f 	nop
   86f70:	d503201f 	nop
   86f74:	d503201f 	nop
   86f78:	d503201f 	nop
   86f7c:	d503201f 	nop
   86f80:	14000023 	b	8700c <exception_handler>
   86f84:	d503201f 	nop
   86f88:	d503201f 	nop
