
kernel8.elf:     file format elf64-littleaarch64


Disassembly of section .text.boot:

0000000000080000 <_start>:
   80000:	d53800a1 	mrs	x1, mpidr_el1
   80004:	92400421 	and	x1, x1, #0x3
   80008:	b5000161 	cbnz	x1, 80034 <halt>
   8000c:	9400000c 	bl	8003c <from_el2_to_el1>
   80010:	58000241 	ldr	x1, 80058 <from_el2_to_el1+0x1c>
   80014:	9100003f 	mov	sp, x1
   80018:	58000241 	ldr	x1, 80060 <from_el2_to_el1+0x24>
   8001c:	180001c2 	ldr	w2, 80054 <from_el2_to_el1+0x18>

0000000000080020 <bss_init>:
   80020:	34000082 	cbz	w2, 80030 <run_main>
   80024:	f800843f 	str	xzr, [x1], #8
   80028:	51000442 	sub	w2, w2, #0x1
   8002c:	35ffffa2 	cbnz	w2, 80020 <bss_init>

0000000000080030 <run_main>:
   80030:	94000c05 	bl	83044 <main>

0000000000080034 <halt>:
   80034:	d503205f 	wfe
   80038:	17ffffff 	b	80034 <halt>

000000000008003c <from_el2_to_el1>:
   8003c:	d2b00004 	mov	x4, #0x80000000            	// #2147483648
   80040:	d51c1104 	msr	hcr_el2, x4
   80044:	d28078a4 	mov	x4, #0x3c5                 	// #965
   80048:	d51c4004 	msr	spsr_el2, x4
   8004c:	d51c403e 	msr	elr_el2, x30
   80050:	d69f03e0 	eret
   80054:	00000061 	udf	#97
   80058:	00080000 	.inst	0x00080000 ; undefined
   8005c:	00000000 	udf	#0
   80060:	00088aa8 	.inst	0x00088aa8 ; undefined
   80064:	00000000 	udf	#0

Disassembly of section .text:

0000000000080800 <leftRotate>:
   80800:	d10083ff 	sub	sp, sp, #0x20
   80804:	f90007e0 	str	x0, [sp, #8]
   80808:	f94007e0 	ldr	x0, [sp, #8]
   8080c:	f9400800 	ldr	x0, [x0, #16]
   80810:	f9000fe0 	str	x0, [sp, #24]
   80814:	f9400fe0 	ldr	x0, [sp, #24]
   80818:	f9400400 	ldr	x0, [x0, #8]
   8081c:	f9000be0 	str	x0, [sp, #16]
   80820:	f9400fe0 	ldr	x0, [sp, #24]
   80824:	f94007e1 	ldr	x1, [sp, #8]
   80828:	f9000401 	str	x1, [x0, #8]
   8082c:	f94007e0 	ldr	x0, [sp, #8]
   80830:	f9400be1 	ldr	x1, [sp, #16]
   80834:	f9000801 	str	x1, [x0, #16]
   80838:	f94007e0 	ldr	x0, [sp, #8]
   8083c:	f9400400 	ldr	x0, [x0, #8]
   80840:	f100001f 	cmp	x0, #0x0
   80844:	54000121 	b.ne	80868 <leftRotate+0x68>  // b.any
   80848:	f94007e0 	ldr	x0, [sp, #8]
   8084c:	f9400800 	ldr	x0, [x0, #16]
   80850:	f100001f 	cmp	x0, #0x0
   80854:	540000a1 	b.ne	80868 <leftRotate+0x68>  // b.any
   80858:	f94007e0 	ldr	x0, [sp, #8]
   8085c:	52800021 	mov	w1, #0x1                   	// #1
   80860:	b9000401 	str	w1, [x0, #4]
   80864:	14000022 	b	808ec <leftRotate+0xec>
   80868:	f94007e0 	ldr	x0, [sp, #8]
   8086c:	f9400400 	ldr	x0, [x0, #8]
   80870:	f100001f 	cmp	x0, #0x0
   80874:	54000101 	b.ne	80894 <leftRotate+0x94>  // b.any
   80878:	f94007e0 	ldr	x0, [sp, #8]
   8087c:	f9400800 	ldr	x0, [x0, #16]
   80880:	b9400400 	ldr	w0, [x0, #4]
   80884:	11000401 	add	w1, w0, #0x1
   80888:	f94007e0 	ldr	x0, [sp, #8]
   8088c:	b9000401 	str	w1, [x0, #4]
   80890:	14000017 	b	808ec <leftRotate+0xec>
   80894:	f94007e0 	ldr	x0, [sp, #8]
   80898:	f9400800 	ldr	x0, [x0, #16]
   8089c:	f100001f 	cmp	x0, #0x0
   808a0:	54000101 	b.ne	808c0 <leftRotate+0xc0>  // b.any
   808a4:	f94007e0 	ldr	x0, [sp, #8]
   808a8:	f9400400 	ldr	x0, [x0, #8]
   808ac:	b9400400 	ldr	w0, [x0, #4]
   808b0:	11000401 	add	w1, w0, #0x1
   808b4:	f94007e0 	ldr	x0, [sp, #8]
   808b8:	b9000401 	str	w1, [x0, #4]
   808bc:	1400000c 	b	808ec <leftRotate+0xec>
   808c0:	f94007e0 	ldr	x0, [sp, #8]
   808c4:	f9400800 	ldr	x0, [x0, #16]
   808c8:	b9400401 	ldr	w1, [x0, #4]
   808cc:	f94007e0 	ldr	x0, [sp, #8]
   808d0:	f9400400 	ldr	x0, [x0, #8]
   808d4:	b9400400 	ldr	w0, [x0, #4]
   808d8:	6b00003f 	cmp	w1, w0
   808dc:	1a80a020 	csel	w0, w1, w0, ge  // ge = tcont
   808e0:	11000401 	add	w1, w0, #0x1
   808e4:	f94007e0 	ldr	x0, [sp, #8]
   808e8:	b9000401 	str	w1, [x0, #4]
   808ec:	f9400fe0 	ldr	x0, [sp, #24]
   808f0:	f9400800 	ldr	x0, [x0, #16]
   808f4:	f100001f 	cmp	x0, #0x0
   808f8:	54000101 	b.ne	80918 <leftRotate+0x118>  // b.any
   808fc:	f9400fe0 	ldr	x0, [sp, #24]
   80900:	f9400400 	ldr	x0, [x0, #8]
   80904:	b9400400 	ldr	w0, [x0, #4]
   80908:	11000401 	add	w1, w0, #0x1
   8090c:	f9400fe0 	ldr	x0, [sp, #24]
   80910:	b9000401 	str	w1, [x0, #4]
   80914:	1400000c 	b	80944 <leftRotate+0x144>
   80918:	f9400fe0 	ldr	x0, [sp, #24]
   8091c:	f9400800 	ldr	x0, [x0, #16]
   80920:	b9400401 	ldr	w1, [x0, #4]
   80924:	f9400fe0 	ldr	x0, [sp, #24]
   80928:	f9400400 	ldr	x0, [x0, #8]
   8092c:	b9400400 	ldr	w0, [x0, #4]
   80930:	6b00003f 	cmp	w1, w0
   80934:	1a80a020 	csel	w0, w1, w0, ge  // ge = tcont
   80938:	11000401 	add	w1, w0, #0x1
   8093c:	f9400fe0 	ldr	x0, [sp, #24]
   80940:	b9000401 	str	w1, [x0, #4]
   80944:	f9400fe0 	ldr	x0, [sp, #24]
   80948:	910083ff 	add	sp, sp, #0x20
   8094c:	d65f03c0 	ret

0000000000080950 <rightRotate>:
   80950:	d10083ff 	sub	sp, sp, #0x20
   80954:	f90007e0 	str	x0, [sp, #8]
   80958:	f94007e0 	ldr	x0, [sp, #8]
   8095c:	f9400400 	ldr	x0, [x0, #8]
   80960:	f9000fe0 	str	x0, [sp, #24]
   80964:	f9400fe0 	ldr	x0, [sp, #24]
   80968:	f9400800 	ldr	x0, [x0, #16]
   8096c:	f9000be0 	str	x0, [sp, #16]
   80970:	f9400fe0 	ldr	x0, [sp, #24]
   80974:	f94007e1 	ldr	x1, [sp, #8]
   80978:	f9000801 	str	x1, [x0, #16]
   8097c:	f94007e0 	ldr	x0, [sp, #8]
   80980:	f9400be1 	ldr	x1, [sp, #16]
   80984:	f9000401 	str	x1, [x0, #8]
   80988:	f94007e0 	ldr	x0, [sp, #8]
   8098c:	f9400800 	ldr	x0, [x0, #16]
   80990:	f100001f 	cmp	x0, #0x0
   80994:	54000121 	b.ne	809b8 <rightRotate+0x68>  // b.any
   80998:	f94007e0 	ldr	x0, [sp, #8]
   8099c:	f9400400 	ldr	x0, [x0, #8]
   809a0:	f100001f 	cmp	x0, #0x0
   809a4:	540000a1 	b.ne	809b8 <rightRotate+0x68>  // b.any
   809a8:	f94007e0 	ldr	x0, [sp, #8]
   809ac:	52800021 	mov	w1, #0x1                   	// #1
   809b0:	b9000401 	str	w1, [x0, #4]
   809b4:	14000022 	b	80a3c <rightRotate+0xec>
   809b8:	f94007e0 	ldr	x0, [sp, #8]
   809bc:	f9400800 	ldr	x0, [x0, #16]
   809c0:	f100001f 	cmp	x0, #0x0
   809c4:	54000101 	b.ne	809e4 <rightRotate+0x94>  // b.any
   809c8:	f94007e0 	ldr	x0, [sp, #8]
   809cc:	f9400400 	ldr	x0, [x0, #8]
   809d0:	b9400400 	ldr	w0, [x0, #4]
   809d4:	11000401 	add	w1, w0, #0x1
   809d8:	f94007e0 	ldr	x0, [sp, #8]
   809dc:	b9000401 	str	w1, [x0, #4]
   809e0:	14000017 	b	80a3c <rightRotate+0xec>
   809e4:	f94007e0 	ldr	x0, [sp, #8]
   809e8:	f9400400 	ldr	x0, [x0, #8]
   809ec:	f100001f 	cmp	x0, #0x0
   809f0:	54000101 	b.ne	80a10 <rightRotate+0xc0>  // b.any
   809f4:	f94007e0 	ldr	x0, [sp, #8]
   809f8:	f9400800 	ldr	x0, [x0, #16]
   809fc:	b9400400 	ldr	w0, [x0, #4]
   80a00:	11000401 	add	w1, w0, #0x1
   80a04:	f94007e0 	ldr	x0, [sp, #8]
   80a08:	b9000401 	str	w1, [x0, #4]
   80a0c:	1400000c 	b	80a3c <rightRotate+0xec>
   80a10:	f94007e0 	ldr	x0, [sp, #8]
   80a14:	f9400800 	ldr	x0, [x0, #16]
   80a18:	b9400401 	ldr	w1, [x0, #4]
   80a1c:	f94007e0 	ldr	x0, [sp, #8]
   80a20:	f9400400 	ldr	x0, [x0, #8]
   80a24:	b9400400 	ldr	w0, [x0, #4]
   80a28:	6b00003f 	cmp	w1, w0
   80a2c:	1a80a020 	csel	w0, w1, w0, ge  // ge = tcont
   80a30:	11000401 	add	w1, w0, #0x1
   80a34:	f94007e0 	ldr	x0, [sp, #8]
   80a38:	b9000401 	str	w1, [x0, #4]
   80a3c:	f9400fe0 	ldr	x0, [sp, #24]
   80a40:	f9400400 	ldr	x0, [x0, #8]
   80a44:	f100001f 	cmp	x0, #0x0
   80a48:	54000101 	b.ne	80a68 <rightRotate+0x118>  // b.any
   80a4c:	f9400fe0 	ldr	x0, [sp, #24]
   80a50:	f9400800 	ldr	x0, [x0, #16]
   80a54:	b9400400 	ldr	w0, [x0, #4]
   80a58:	11000401 	add	w1, w0, #0x1
   80a5c:	f9400fe0 	ldr	x0, [sp, #24]
   80a60:	b9000401 	str	w1, [x0, #4]
   80a64:	1400000c 	b	80a94 <rightRotate+0x144>
   80a68:	f9400fe0 	ldr	x0, [sp, #24]
   80a6c:	f9400800 	ldr	x0, [x0, #16]
   80a70:	b9400401 	ldr	w1, [x0, #4]
   80a74:	f9400fe0 	ldr	x0, [sp, #24]
   80a78:	f9400400 	ldr	x0, [x0, #8]
   80a7c:	b9400400 	ldr	w0, [x0, #4]
   80a80:	6b00003f 	cmp	w1, w0
   80a84:	1a80a020 	csel	w0, w1, w0, ge  // ge = tcont
   80a88:	11000401 	add	w1, w0, #0x1
   80a8c:	f9400fe0 	ldr	x0, [sp, #24]
   80a90:	b9000401 	str	w1, [x0, #4]
   80a94:	f9400fe0 	ldr	x0, [sp, #24]
   80a98:	910083ff 	add	sp, sp, #0x20
   80a9c:	d65f03c0 	ret

0000000000080aa0 <getBalance>:
   80aa0:	d10043ff 	sub	sp, sp, #0x10
   80aa4:	f90007e0 	str	x0, [sp, #8]
   80aa8:	f94007e0 	ldr	x0, [sp, #8]
   80aac:	f100001f 	cmp	x0, #0x0
   80ab0:	54000061 	b.ne	80abc <getBalance+0x1c>  // b.any
   80ab4:	52800000 	mov	w0, #0x0                   	// #0
   80ab8:	14000023 	b	80b44 <getBalance+0xa4>
   80abc:	f94007e0 	ldr	x0, [sp, #8]
   80ac0:	f9400400 	ldr	x0, [x0, #8]
   80ac4:	f100001f 	cmp	x0, #0x0
   80ac8:	540000e1 	b.ne	80ae4 <getBalance+0x44>  // b.any
   80acc:	f94007e0 	ldr	x0, [sp, #8]
   80ad0:	f9400800 	ldr	x0, [x0, #16]
   80ad4:	f100001f 	cmp	x0, #0x0
   80ad8:	54000061 	b.ne	80ae4 <getBalance+0x44>  // b.any
   80adc:	52800000 	mov	w0, #0x0                   	// #0
   80ae0:	14000019 	b	80b44 <getBalance+0xa4>
   80ae4:	f94007e0 	ldr	x0, [sp, #8]
   80ae8:	f9400400 	ldr	x0, [x0, #8]
   80aec:	f100001f 	cmp	x0, #0x0
   80af0:	540000c1 	b.ne	80b08 <getBalance+0x68>  // b.any
   80af4:	f94007e0 	ldr	x0, [sp, #8]
   80af8:	f9400800 	ldr	x0, [x0, #16]
   80afc:	b9400400 	ldr	w0, [x0, #4]
   80b00:	4b0003e0 	neg	w0, w0
   80b04:	14000010 	b	80b44 <getBalance+0xa4>
   80b08:	f94007e0 	ldr	x0, [sp, #8]
   80b0c:	f9400800 	ldr	x0, [x0, #16]
   80b10:	f100001f 	cmp	x0, #0x0
   80b14:	540000a1 	b.ne	80b28 <getBalance+0x88>  // b.any
   80b18:	f94007e0 	ldr	x0, [sp, #8]
   80b1c:	f9400400 	ldr	x0, [x0, #8]
   80b20:	b9400400 	ldr	w0, [x0, #4]
   80b24:	14000008 	b	80b44 <getBalance+0xa4>
   80b28:	f94007e0 	ldr	x0, [sp, #8]
   80b2c:	f9400400 	ldr	x0, [x0, #8]
   80b30:	b9400401 	ldr	w1, [x0, #4]
   80b34:	f94007e0 	ldr	x0, [sp, #8]
   80b38:	f9400800 	ldr	x0, [x0, #16]
   80b3c:	b9400400 	ldr	w0, [x0, #4]
   80b40:	4b000020 	sub	w0, w1, w0
   80b44:	910043ff 	add	sp, sp, #0x10
   80b48:	d65f03c0 	ret

0000000000080b4c <minimum>:
   80b4c:	d10083ff 	sub	sp, sp, #0x20
   80b50:	f90007e0 	str	x0, [sp, #8]
   80b54:	f94007e0 	ldr	x0, [sp, #8]
   80b58:	f9000fe0 	str	x0, [sp, #24]
   80b5c:	14000004 	b	80b6c <minimum+0x20>
   80b60:	f9400fe0 	ldr	x0, [sp, #24]
   80b64:	f9400400 	ldr	x0, [x0, #8]
   80b68:	f9000fe0 	str	x0, [sp, #24]
   80b6c:	f9400fe0 	ldr	x0, [sp, #24]
   80b70:	f9400400 	ldr	x0, [x0, #8]
   80b74:	f100001f 	cmp	x0, #0x0
   80b78:	54ffff41 	b.ne	80b60 <minimum+0x14>  // b.any
   80b7c:	f9400fe0 	ldr	x0, [sp, #24]
   80b80:	b9400000 	ldr	w0, [x0]
   80b84:	910083ff 	add	sp, sp, #0x20
   80b88:	d65f03c0 	ret

0000000000080b8c <insert>:
   80b8c:	a9bc7bfd 	stp	x29, x30, [sp, #-64]!
   80b90:	910003fd 	mov	x29, sp
   80b94:	f9000bf3 	str	x19, [sp, #16]
   80b98:	f90017e0 	str	x0, [sp, #40]
   80b9c:	b90027e1 	str	w1, [sp, #36]
   80ba0:	f94017e0 	ldr	x0, [sp, #40]
   80ba4:	f9400000 	ldr	x0, [x0]
   80ba8:	f100001f 	cmp	x0, #0x0
   80bac:	54000341 	b.ne	80c14 <insert+0x88>  // b.any
   80bb0:	d2800300 	mov	x0, #0x18                  	// #24
   80bb4:	94000559 	bl	82118 <simple_malloc>
   80bb8:	93407c00 	sxtw	x0, w0
   80bbc:	f9001be0 	str	x0, [sp, #48]
   80bc0:	f9401be0 	ldr	x0, [sp, #48]
   80bc4:	f100001f 	cmp	x0, #0x0
   80bc8:	540000a1 	b.ne	80bdc <insert+0x50>  // b.any
   80bcc:	f0000020 	adrp	x0, 87000 <set_exception_vector_table>
   80bd0:	910c8000 	add	x0, x0, #0x320
   80bd4:	94000ddc 	bl	84344 <uart_sends>
   80bd8:	140000ca 	b	80f00 <insert+0x374>
   80bdc:	f9401be0 	ldr	x0, [sp, #48]
   80be0:	b94027e1 	ldr	w1, [sp, #36]
   80be4:	b9000001 	str	w1, [x0]
   80be8:	f9401be0 	ldr	x0, [sp, #48]
   80bec:	f900041f 	str	xzr, [x0, #8]
   80bf0:	f9401be0 	ldr	x0, [sp, #48]
   80bf4:	f900081f 	str	xzr, [x0, #16]
   80bf8:	f9401be0 	ldr	x0, [sp, #48]
   80bfc:	52800021 	mov	w1, #0x1                   	// #1
   80c00:	b9000401 	str	w1, [x0, #4]
   80c04:	f94017e0 	ldr	x0, [sp, #40]
   80c08:	f9401be1 	ldr	x1, [sp, #48]
   80c0c:	f9000001 	str	x1, [x0]
   80c10:	140000bc 	b	80f00 <insert+0x374>
   80c14:	f94017e0 	ldr	x0, [sp, #40]
   80c18:	f9400000 	ldr	x0, [x0]
   80c1c:	b9400000 	ldr	w0, [x0]
   80c20:	b94027e1 	ldr	w1, [sp, #36]
   80c24:	6b00003f 	cmp	w1, w0
   80c28:	540000ea 	b.ge	80c44 <insert+0xb8>  // b.tcont
   80c2c:	f94017e0 	ldr	x0, [sp, #40]
   80c30:	f9400000 	ldr	x0, [x0]
   80c34:	91002000 	add	x0, x0, #0x8
   80c38:	b94027e1 	ldr	w1, [sp, #36]
   80c3c:	97ffffd4 	bl	80b8c <insert>
   80c40:	1400000c 	b	80c70 <insert+0xe4>
   80c44:	f94017e0 	ldr	x0, [sp, #40]
   80c48:	f9400000 	ldr	x0, [x0]
   80c4c:	b9400000 	ldr	w0, [x0]
   80c50:	b94027e1 	ldr	w1, [sp, #36]
   80c54:	6b00003f 	cmp	w1, w0
   80c58:	5400152d 	b.le	80efc <insert+0x370>
   80c5c:	f94017e0 	ldr	x0, [sp, #40]
   80c60:	f9400000 	ldr	x0, [x0]
   80c64:	91004000 	add	x0, x0, #0x10
   80c68:	b94027e1 	ldr	w1, [sp, #36]
   80c6c:	97ffffc8 	bl	80b8c <insert>
   80c70:	b9003fff 	str	wzr, [sp, #60]
   80c74:	f94017e0 	ldr	x0, [sp, #40]
   80c78:	f9400000 	ldr	x0, [x0]
   80c7c:	f9400400 	ldr	x0, [x0, #8]
   80c80:	f100001f 	cmp	x0, #0x0
   80c84:	54000161 	b.ne	80cb0 <insert+0x124>  // b.any
   80c88:	f94017e0 	ldr	x0, [sp, #40]
   80c8c:	f9400000 	ldr	x0, [x0]
   80c90:	f9400800 	ldr	x0, [x0, #16]
   80c94:	f100001f 	cmp	x0, #0x0
   80c98:	540000c1 	b.ne	80cb0 <insert+0x124>  // b.any
   80c9c:	f94017e0 	ldr	x0, [sp, #40]
   80ca0:	f9400000 	ldr	x0, [x0]
   80ca4:	52800021 	mov	w1, #0x1                   	// #1
   80ca8:	b9000401 	str	w1, [x0, #4]
   80cac:	14000040 	b	80dac <insert+0x220>
   80cb0:	f94017e0 	ldr	x0, [sp, #40]
   80cb4:	f9400000 	ldr	x0, [x0]
   80cb8:	f9400400 	ldr	x0, [x0, #8]
   80cbc:	f100001f 	cmp	x0, #0x0
   80cc0:	54000201 	b.ne	80d00 <insert+0x174>  // b.any
   80cc4:	f94017e0 	ldr	x0, [sp, #40]
   80cc8:	f9400000 	ldr	x0, [x0]
   80ccc:	f9400800 	ldr	x0, [x0, #16]
   80cd0:	b9400401 	ldr	w1, [x0, #4]
   80cd4:	f94017e0 	ldr	x0, [sp, #40]
   80cd8:	f9400000 	ldr	x0, [x0]
   80cdc:	11000421 	add	w1, w1, #0x1
   80ce0:	b9000401 	str	w1, [x0, #4]
   80ce4:	f94017e0 	ldr	x0, [sp, #40]
   80ce8:	f9400000 	ldr	x0, [x0]
   80cec:	f9400800 	ldr	x0, [x0, #16]
   80cf0:	b9400400 	ldr	w0, [x0, #4]
   80cf4:	4b0003e0 	neg	w0, w0
   80cf8:	b9003fe0 	str	w0, [sp, #60]
   80cfc:	1400002c 	b	80dac <insert+0x220>
   80d00:	f94017e0 	ldr	x0, [sp, #40]
   80d04:	f9400000 	ldr	x0, [x0]
   80d08:	f9400800 	ldr	x0, [x0, #16]
   80d0c:	f100001f 	cmp	x0, #0x0
   80d10:	540001e1 	b.ne	80d4c <insert+0x1c0>  // b.any
   80d14:	f94017e0 	ldr	x0, [sp, #40]
   80d18:	f9400000 	ldr	x0, [x0]
   80d1c:	f9400400 	ldr	x0, [x0, #8]
   80d20:	b9400401 	ldr	w1, [x0, #4]
   80d24:	f94017e0 	ldr	x0, [sp, #40]
   80d28:	f9400000 	ldr	x0, [x0]
   80d2c:	11000421 	add	w1, w1, #0x1
   80d30:	b9000401 	str	w1, [x0, #4]
   80d34:	f94017e0 	ldr	x0, [sp, #40]
   80d38:	f9400000 	ldr	x0, [x0]
   80d3c:	f9400400 	ldr	x0, [x0, #8]
   80d40:	b9400400 	ldr	w0, [x0, #4]
   80d44:	b9003fe0 	str	w0, [sp, #60]
   80d48:	14000019 	b	80dac <insert+0x220>
   80d4c:	f94017e0 	ldr	x0, [sp, #40]
   80d50:	f9400000 	ldr	x0, [x0]
   80d54:	f9400800 	ldr	x0, [x0, #16]
   80d58:	b9400401 	ldr	w1, [x0, #4]
   80d5c:	f94017e0 	ldr	x0, [sp, #40]
   80d60:	f9400000 	ldr	x0, [x0]
   80d64:	f9400400 	ldr	x0, [x0, #8]
   80d68:	b9400400 	ldr	w0, [x0, #4]
   80d6c:	6b00003f 	cmp	w1, w0
   80d70:	1a80a021 	csel	w1, w1, w0, ge  // ge = tcont
   80d74:	f94017e0 	ldr	x0, [sp, #40]
   80d78:	f9400000 	ldr	x0, [x0]
   80d7c:	11000421 	add	w1, w1, #0x1
   80d80:	b9000401 	str	w1, [x0, #4]
   80d84:	f94017e0 	ldr	x0, [sp, #40]
   80d88:	f9400000 	ldr	x0, [x0]
   80d8c:	f9400400 	ldr	x0, [x0, #8]
   80d90:	b9400401 	ldr	w1, [x0, #4]
   80d94:	f94017e0 	ldr	x0, [sp, #40]
   80d98:	f9400000 	ldr	x0, [x0]
   80d9c:	f9400800 	ldr	x0, [x0, #16]
   80da0:	b9400400 	ldr	w0, [x0, #4]
   80da4:	4b000020 	sub	w0, w1, w0
   80da8:	b9003fe0 	str	w0, [sp, #60]
   80dac:	b9403fe0 	ldr	w0, [sp, #60]
   80db0:	7100041f 	cmp	w0, #0x1
   80db4:	540001ed 	b.le	80df0 <insert+0x264>
   80db8:	f94017e0 	ldr	x0, [sp, #40]
   80dbc:	f9400000 	ldr	x0, [x0]
   80dc0:	f9400400 	ldr	x0, [x0, #8]
   80dc4:	b9400000 	ldr	w0, [x0]
   80dc8:	b94027e1 	ldr	w1, [sp, #36]
   80dcc:	6b00003f 	cmp	w1, w0
   80dd0:	5400010a 	b.ge	80df0 <insert+0x264>  // b.tcont
   80dd4:	f94017e0 	ldr	x0, [sp, #40]
   80dd8:	f9400000 	ldr	x0, [x0]
   80ddc:	97fffedd 	bl	80950 <rightRotate>
   80de0:	aa0003e1 	mov	x1, x0
   80de4:	f94017e0 	ldr	x0, [sp, #40]
   80de8:	f9000001 	str	x1, [x0]
   80dec:	14000045 	b	80f00 <insert+0x374>
   80df0:	b9403fe0 	ldr	w0, [sp, #60]
   80df4:	7100041f 	cmp	w0, #0x1
   80df8:	540002ed 	b.le	80e54 <insert+0x2c8>
   80dfc:	f94017e0 	ldr	x0, [sp, #40]
   80e00:	f9400000 	ldr	x0, [x0]
   80e04:	f9400400 	ldr	x0, [x0, #8]
   80e08:	b9400000 	ldr	w0, [x0]
   80e0c:	b94027e1 	ldr	w1, [sp, #36]
   80e10:	6b00003f 	cmp	w1, w0
   80e14:	5400020d 	b.le	80e54 <insert+0x2c8>
   80e18:	f94017e0 	ldr	x0, [sp, #40]
   80e1c:	f9400000 	ldr	x0, [x0]
   80e20:	f9400401 	ldr	x1, [x0, #8]
   80e24:	f94017e0 	ldr	x0, [sp, #40]
   80e28:	f9400013 	ldr	x19, [x0]
   80e2c:	aa0103e0 	mov	x0, x1
   80e30:	97fffe74 	bl	80800 <leftRotate>
   80e34:	f9000660 	str	x0, [x19, #8]
   80e38:	f94017e0 	ldr	x0, [sp, #40]
   80e3c:	f9400000 	ldr	x0, [x0]
   80e40:	97fffec4 	bl	80950 <rightRotate>
   80e44:	aa0003e1 	mov	x1, x0
   80e48:	f94017e0 	ldr	x0, [sp, #40]
   80e4c:	f9000001 	str	x1, [x0]
   80e50:	1400002c 	b	80f00 <insert+0x374>
   80e54:	b9403fe0 	ldr	w0, [sp, #60]
   80e58:	3100041f 	cmn	w0, #0x1
   80e5c:	540001ea 	b.ge	80e98 <insert+0x30c>  // b.tcont
   80e60:	f94017e0 	ldr	x0, [sp, #40]
   80e64:	f9400000 	ldr	x0, [x0]
   80e68:	f9400800 	ldr	x0, [x0, #16]
   80e6c:	b9400000 	ldr	w0, [x0]
   80e70:	b94027e1 	ldr	w1, [sp, #36]
   80e74:	6b00003f 	cmp	w1, w0
   80e78:	5400010d 	b.le	80e98 <insert+0x30c>
   80e7c:	f94017e0 	ldr	x0, [sp, #40]
   80e80:	f9400000 	ldr	x0, [x0]
   80e84:	97fffe5f 	bl	80800 <leftRotate>
   80e88:	aa0003e1 	mov	x1, x0
   80e8c:	f94017e0 	ldr	x0, [sp, #40]
   80e90:	f9000001 	str	x1, [x0]
   80e94:	1400001b 	b	80f00 <insert+0x374>
   80e98:	b9403fe0 	ldr	w0, [sp, #60]
   80e9c:	3100041f 	cmn	w0, #0x1
   80ea0:	5400030a 	b.ge	80f00 <insert+0x374>  // b.tcont
   80ea4:	f94017e0 	ldr	x0, [sp, #40]
   80ea8:	f9400000 	ldr	x0, [x0]
   80eac:	f9400800 	ldr	x0, [x0, #16]
   80eb0:	b9400000 	ldr	w0, [x0]
   80eb4:	b94027e1 	ldr	w1, [sp, #36]
   80eb8:	6b00003f 	cmp	w1, w0
   80ebc:	5400022a 	b.ge	80f00 <insert+0x374>  // b.tcont
   80ec0:	f94017e0 	ldr	x0, [sp, #40]
   80ec4:	f9400000 	ldr	x0, [x0]
   80ec8:	f9400801 	ldr	x1, [x0, #16]
   80ecc:	f94017e0 	ldr	x0, [sp, #40]
   80ed0:	f9400013 	ldr	x19, [x0]
   80ed4:	aa0103e0 	mov	x0, x1
   80ed8:	97fffe9e 	bl	80950 <rightRotate>
   80edc:	f9000a60 	str	x0, [x19, #16]
   80ee0:	f94017e0 	ldr	x0, [sp, #40]
   80ee4:	f9400000 	ldr	x0, [x0]
   80ee8:	97fffe46 	bl	80800 <leftRotate>
   80eec:	aa0003e1 	mov	x1, x0
   80ef0:	f94017e0 	ldr	x0, [sp, #40]
   80ef4:	f9000001 	str	x1, [x0]
   80ef8:	14000002 	b	80f00 <insert+0x374>
   80efc:	d503201f 	nop
   80f00:	f9400bf3 	ldr	x19, [sp, #16]
   80f04:	a8c47bfd 	ldp	x29, x30, [sp], #64
   80f08:	d65f03c0 	ret

0000000000080f0c <delete>:
   80f0c:	a9bb7bfd 	stp	x29, x30, [sp, #-80]!
   80f10:	910003fd 	mov	x29, sp
   80f14:	f9000bf3 	str	x19, [sp, #16]
   80f18:	f90017e0 	str	x0, [sp, #40]
   80f1c:	b90027e1 	str	w1, [sp, #36]
   80f20:	f94017e0 	ldr	x0, [sp, #40]
   80f24:	f9400000 	ldr	x0, [x0]
   80f28:	f100001f 	cmp	x0, #0x0
   80f2c:	54000061 	b.ne	80f38 <delete+0x2c>  // b.any
   80f30:	d2800000 	mov	x0, #0x0                   	// #0
   80f34:	14000106 	b	8134c <delete+0x440>
   80f38:	f94017e0 	ldr	x0, [sp, #40]
   80f3c:	f9400000 	ldr	x0, [x0]
   80f40:	b9400000 	ldr	w0, [x0]
   80f44:	b94027e1 	ldr	w1, [sp, #36]
   80f48:	6b00003f 	cmp	w1, w0
   80f4c:	5400016a 	b.ge	80f78 <delete+0x6c>  // b.tcont
   80f50:	f94017e0 	ldr	x0, [sp, #40]
   80f54:	f9400000 	ldr	x0, [x0]
   80f58:	91002002 	add	x2, x0, #0x8
   80f5c:	f94017e0 	ldr	x0, [sp, #40]
   80f60:	f9400013 	ldr	x19, [x0]
   80f64:	b94027e1 	ldr	w1, [sp, #36]
   80f68:	aa0203e0 	mov	x0, x2
   80f6c:	97ffffe8 	bl	80f0c <delete>
   80f70:	f9000660 	str	x0, [x19, #8]
   80f74:	14000050 	b	810b4 <delete+0x1a8>
   80f78:	f94017e0 	ldr	x0, [sp, #40]
   80f7c:	f9400000 	ldr	x0, [x0]
   80f80:	b9400000 	ldr	w0, [x0]
   80f84:	b94027e1 	ldr	w1, [sp, #36]
   80f88:	6b00003f 	cmp	w1, w0
   80f8c:	5400016d 	b.le	80fb8 <delete+0xac>
   80f90:	f94017e0 	ldr	x0, [sp, #40]
   80f94:	f9400000 	ldr	x0, [x0]
   80f98:	91004002 	add	x2, x0, #0x10
   80f9c:	f94017e0 	ldr	x0, [sp, #40]
   80fa0:	f9400013 	ldr	x19, [x0]
   80fa4:	b94027e1 	ldr	w1, [sp, #36]
   80fa8:	aa0203e0 	mov	x0, x2
   80fac:	97ffffd8 	bl	80f0c <delete>
   80fb0:	f9000a60 	str	x0, [x19, #16]
   80fb4:	14000040 	b	810b4 <delete+0x1a8>
   80fb8:	f94017e0 	ldr	x0, [sp, #40]
   80fbc:	f9400000 	ldr	x0, [x0]
   80fc0:	f9400400 	ldr	x0, [x0, #8]
   80fc4:	f100001f 	cmp	x0, #0x0
   80fc8:	540000c0 	b.eq	80fe0 <delete+0xd4>  // b.none
   80fcc:	f94017e0 	ldr	x0, [sp, #40]
   80fd0:	f9400000 	ldr	x0, [x0]
   80fd4:	f9400800 	ldr	x0, [x0, #16]
   80fd8:	f100001f 	cmp	x0, #0x0
   80fdc:	54000361 	b.ne	81048 <delete+0x13c>  // b.any
   80fe0:	f94017e0 	ldr	x0, [sp, #40]
   80fe4:	f9400000 	ldr	x0, [x0]
   80fe8:	f9400400 	ldr	x0, [x0, #8]
   80fec:	f100001f 	cmp	x0, #0x0
   80ff0:	540000a0 	b.eq	81004 <delete+0xf8>  // b.none
   80ff4:	f94017e0 	ldr	x0, [sp, #40]
   80ff8:	f9400000 	ldr	x0, [x0]
   80ffc:	f9400400 	ldr	x0, [x0, #8]
   81000:	14000004 	b	81010 <delete+0x104>
   81004:	f94017e0 	ldr	x0, [sp, #40]
   81008:	f9400000 	ldr	x0, [x0]
   8100c:	f9400800 	ldr	x0, [x0, #16]
   81010:	f9001fe0 	str	x0, [sp, #56]
   81014:	f9401fe0 	ldr	x0, [sp, #56]
   81018:	f100001f 	cmp	x0, #0x0
   8101c:	540000e1 	b.ne	81038 <delete+0x12c>  // b.any
   81020:	f94017e0 	ldr	x0, [sp, #40]
   81024:	f9400000 	ldr	x0, [x0]
   81028:	f9001fe0 	str	x0, [sp, #56]
   8102c:	f94017e0 	ldr	x0, [sp, #40]
   81030:	f900001f 	str	xzr, [x0]
   81034:	14000020 	b	810b4 <delete+0x1a8>
   81038:	f94017e0 	ldr	x0, [sp, #40]
   8103c:	f9401fe1 	ldr	x1, [sp, #56]
   81040:	f9000001 	str	x1, [x0]
   81044:	1400001c 	b	810b4 <delete+0x1a8>
   81048:	f94017e0 	ldr	x0, [sp, #40]
   8104c:	f9400000 	ldr	x0, [x0]
   81050:	f9400800 	ldr	x0, [x0, #16]
   81054:	f90027e0 	str	x0, [sp, #72]
   81058:	14000004 	b	81068 <delete+0x15c>
   8105c:	f94027e0 	ldr	x0, [sp, #72]
   81060:	f9400400 	ldr	x0, [x0, #8]
   81064:	f90027e0 	str	x0, [sp, #72]
   81068:	f94027e0 	ldr	x0, [sp, #72]
   8106c:	f9400400 	ldr	x0, [x0, #8]
   81070:	f100001f 	cmp	x0, #0x0
   81074:	54ffff41 	b.ne	8105c <delete+0x150>  // b.any
   81078:	f94017e0 	ldr	x0, [sp, #40]
   8107c:	f9400000 	ldr	x0, [x0]
   81080:	f94027e1 	ldr	x1, [sp, #72]
   81084:	b9400021 	ldr	w1, [x1]
   81088:	b9000001 	str	w1, [x0]
   8108c:	f94017e0 	ldr	x0, [sp, #40]
   81090:	f9400000 	ldr	x0, [x0]
   81094:	91004002 	add	x2, x0, #0x10
   81098:	f94027e0 	ldr	x0, [sp, #72]
   8109c:	b9400001 	ldr	w1, [x0]
   810a0:	f94017e0 	ldr	x0, [sp, #40]
   810a4:	f9400013 	ldr	x19, [x0]
   810a8:	aa0203e0 	mov	x0, x2
   810ac:	97ffff98 	bl	80f0c <delete>
   810b0:	f9000a60 	str	x0, [x19, #16]
   810b4:	f94017e0 	ldr	x0, [sp, #40]
   810b8:	f9400000 	ldr	x0, [x0]
   810bc:	f100001f 	cmp	x0, #0x0
   810c0:	54000061 	b.ne	810cc <delete+0x1c0>  // b.any
   810c4:	d2800000 	mov	x0, #0x0                   	// #0
   810c8:	140000a1 	b	8134c <delete+0x440>
   810cc:	b90047ff 	str	wzr, [sp, #68]
   810d0:	f94017e0 	ldr	x0, [sp, #40]
   810d4:	f9400000 	ldr	x0, [x0]
   810d8:	f9400400 	ldr	x0, [x0, #8]
   810dc:	f100001f 	cmp	x0, #0x0
   810e0:	54000161 	b.ne	8110c <delete+0x200>  // b.any
   810e4:	f94017e0 	ldr	x0, [sp, #40]
   810e8:	f9400000 	ldr	x0, [x0]
   810ec:	f9400800 	ldr	x0, [x0, #16]
   810f0:	f100001f 	cmp	x0, #0x0
   810f4:	540000c1 	b.ne	8110c <delete+0x200>  // b.any
   810f8:	f94017e0 	ldr	x0, [sp, #40]
   810fc:	f9400000 	ldr	x0, [x0]
   81100:	52800021 	mov	w1, #0x1                   	// #1
   81104:	b9000401 	str	w1, [x0, #4]
   81108:	14000040 	b	81208 <delete+0x2fc>
   8110c:	f94017e0 	ldr	x0, [sp, #40]
   81110:	f9400000 	ldr	x0, [x0]
   81114:	f9400400 	ldr	x0, [x0, #8]
   81118:	f100001f 	cmp	x0, #0x0
   8111c:	54000201 	b.ne	8115c <delete+0x250>  // b.any
   81120:	f94017e0 	ldr	x0, [sp, #40]
   81124:	f9400000 	ldr	x0, [x0]
   81128:	f9400800 	ldr	x0, [x0, #16]
   8112c:	b9400401 	ldr	w1, [x0, #4]
   81130:	f94017e0 	ldr	x0, [sp, #40]
   81134:	f9400000 	ldr	x0, [x0]
   81138:	11000421 	add	w1, w1, #0x1
   8113c:	b9000401 	str	w1, [x0, #4]
   81140:	f94017e0 	ldr	x0, [sp, #40]
   81144:	f9400000 	ldr	x0, [x0]
   81148:	f9400800 	ldr	x0, [x0, #16]
   8114c:	b9400400 	ldr	w0, [x0, #4]
   81150:	4b0003e0 	neg	w0, w0
   81154:	b90047e0 	str	w0, [sp, #68]
   81158:	1400002c 	b	81208 <delete+0x2fc>
   8115c:	f94017e0 	ldr	x0, [sp, #40]
   81160:	f9400000 	ldr	x0, [x0]
   81164:	f9400800 	ldr	x0, [x0, #16]
   81168:	f100001f 	cmp	x0, #0x0
   8116c:	540001e1 	b.ne	811a8 <delete+0x29c>  // b.any
   81170:	f94017e0 	ldr	x0, [sp, #40]
   81174:	f9400000 	ldr	x0, [x0]
   81178:	f9400400 	ldr	x0, [x0, #8]
   8117c:	b9400401 	ldr	w1, [x0, #4]
   81180:	f94017e0 	ldr	x0, [sp, #40]
   81184:	f9400000 	ldr	x0, [x0]
   81188:	11000421 	add	w1, w1, #0x1
   8118c:	b9000401 	str	w1, [x0, #4]
   81190:	f94017e0 	ldr	x0, [sp, #40]
   81194:	f9400000 	ldr	x0, [x0]
   81198:	f9400400 	ldr	x0, [x0, #8]
   8119c:	b9400400 	ldr	w0, [x0, #4]
   811a0:	b90047e0 	str	w0, [sp, #68]
   811a4:	14000019 	b	81208 <delete+0x2fc>
   811a8:	f94017e0 	ldr	x0, [sp, #40]
   811ac:	f9400000 	ldr	x0, [x0]
   811b0:	f9400800 	ldr	x0, [x0, #16]
   811b4:	b9400401 	ldr	w1, [x0, #4]
   811b8:	f94017e0 	ldr	x0, [sp, #40]
   811bc:	f9400000 	ldr	x0, [x0]
   811c0:	f9400400 	ldr	x0, [x0, #8]
   811c4:	b9400400 	ldr	w0, [x0, #4]
   811c8:	6b00003f 	cmp	w1, w0
   811cc:	1a80a021 	csel	w1, w1, w0, ge  // ge = tcont
   811d0:	f94017e0 	ldr	x0, [sp, #40]
   811d4:	f9400000 	ldr	x0, [x0]
   811d8:	11000421 	add	w1, w1, #0x1
   811dc:	b9000401 	str	w1, [x0, #4]
   811e0:	f94017e0 	ldr	x0, [sp, #40]
   811e4:	f9400000 	ldr	x0, [x0]
   811e8:	f9400400 	ldr	x0, [x0, #8]
   811ec:	b9400401 	ldr	w1, [x0, #4]
   811f0:	f94017e0 	ldr	x0, [sp, #40]
   811f4:	f9400000 	ldr	x0, [x0]
   811f8:	f9400800 	ldr	x0, [x0, #16]
   811fc:	b9400400 	ldr	w0, [x0, #4]
   81200:	4b000020 	sub	w0, w1, w0
   81204:	b90047e0 	str	w0, [sp, #68]
   81208:	b94047e0 	ldr	w0, [sp, #68]
   8120c:	7100041f 	cmp	w0, #0x1
   81210:	540001cd 	b.le	81248 <delete+0x33c>
   81214:	f94017e0 	ldr	x0, [sp, #40]
   81218:	f9400000 	ldr	x0, [x0]
   8121c:	f9400400 	ldr	x0, [x0, #8]
   81220:	97fffe20 	bl	80aa0 <getBalance>
   81224:	7100001f 	cmp	w0, #0x0
   81228:	5400010b 	b.lt	81248 <delete+0x33c>  // b.tstop
   8122c:	f94017e0 	ldr	x0, [sp, #40]
   81230:	f9400000 	ldr	x0, [x0]
   81234:	97fffdc7 	bl	80950 <rightRotate>
   81238:	aa0003e1 	mov	x1, x0
   8123c:	f94017e0 	ldr	x0, [sp, #40]
   81240:	f9000001 	str	x1, [x0]
   81244:	14000040 	b	81344 <delete+0x438>
   81248:	b94047e0 	ldr	w0, [sp, #68]
   8124c:	7100041f 	cmp	w0, #0x1
   81250:	540002cd 	b.le	812a8 <delete+0x39c>
   81254:	f94017e0 	ldr	x0, [sp, #40]
   81258:	f9400000 	ldr	x0, [x0]
   8125c:	f9400400 	ldr	x0, [x0, #8]
   81260:	97fffe10 	bl	80aa0 <getBalance>
   81264:	7100001f 	cmp	w0, #0x0
   81268:	5400020a 	b.ge	812a8 <delete+0x39c>  // b.tcont
   8126c:	f94017e0 	ldr	x0, [sp, #40]
   81270:	f9400000 	ldr	x0, [x0]
   81274:	f9400401 	ldr	x1, [x0, #8]
   81278:	f94017e0 	ldr	x0, [sp, #40]
   8127c:	f9400013 	ldr	x19, [x0]
   81280:	aa0103e0 	mov	x0, x1
   81284:	97fffd5f 	bl	80800 <leftRotate>
   81288:	f9000660 	str	x0, [x19, #8]
   8128c:	f94017e0 	ldr	x0, [sp, #40]
   81290:	f9400000 	ldr	x0, [x0]
   81294:	97fffdaf 	bl	80950 <rightRotate>
   81298:	aa0003e1 	mov	x1, x0
   8129c:	f94017e0 	ldr	x0, [sp, #40]
   812a0:	f9000001 	str	x1, [x0]
   812a4:	14000028 	b	81344 <delete+0x438>
   812a8:	b94047e0 	ldr	w0, [sp, #68]
   812ac:	3100041f 	cmn	w0, #0x1
   812b0:	540001ca 	b.ge	812e8 <delete+0x3dc>  // b.tcont
   812b4:	f94017e0 	ldr	x0, [sp, #40]
   812b8:	f9400000 	ldr	x0, [x0]
   812bc:	f9400800 	ldr	x0, [x0, #16]
   812c0:	97fffdf8 	bl	80aa0 <getBalance>
   812c4:	7100001f 	cmp	w0, #0x0
   812c8:	5400010c 	b.gt	812e8 <delete+0x3dc>
   812cc:	f94017e0 	ldr	x0, [sp, #40]
   812d0:	f9400000 	ldr	x0, [x0]
   812d4:	97fffd4b 	bl	80800 <leftRotate>
   812d8:	aa0003e1 	mov	x1, x0
   812dc:	f94017e0 	ldr	x0, [sp, #40]
   812e0:	f9000001 	str	x1, [x0]
   812e4:	14000018 	b	81344 <delete+0x438>
   812e8:	b94047e0 	ldr	w0, [sp, #68]
   812ec:	3100041f 	cmn	w0, #0x1
   812f0:	540002aa 	b.ge	81344 <delete+0x438>  // b.tcont
   812f4:	f94017e0 	ldr	x0, [sp, #40]
   812f8:	f9400000 	ldr	x0, [x0]
   812fc:	f9400800 	ldr	x0, [x0, #16]
   81300:	97fffde8 	bl	80aa0 <getBalance>
   81304:	7100001f 	cmp	w0, #0x0
   81308:	540001ed 	b.le	81344 <delete+0x438>
   8130c:	f94017e0 	ldr	x0, [sp, #40]
   81310:	f9400000 	ldr	x0, [x0]
   81314:	f9400801 	ldr	x1, [x0, #16]
   81318:	f94017e0 	ldr	x0, [sp, #40]
   8131c:	f9400013 	ldr	x19, [x0]
   81320:	aa0103e0 	mov	x0, x1
   81324:	97fffd8b 	bl	80950 <rightRotate>
   81328:	f9000a60 	str	x0, [x19, #16]
   8132c:	f94017e0 	ldr	x0, [sp, #40]
   81330:	f9400000 	ldr	x0, [x0]
   81334:	97fffd33 	bl	80800 <leftRotate>
   81338:	aa0003e1 	mov	x1, x0
   8133c:	f94017e0 	ldr	x0, [sp, #40]
   81340:	f9000001 	str	x1, [x0]
   81344:	f94017e0 	ldr	x0, [sp, #40]
   81348:	f9400000 	ldr	x0, [x0]
   8134c:	f9400bf3 	ldr	x19, [sp, #16]
   81350:	a8c57bfd 	ldp	x29, x30, [sp], #80
   81354:	d65f03c0 	ret

0000000000081358 <inOrder>:
   81358:	a9be7bfd 	stp	x29, x30, [sp, #-32]!
   8135c:	910003fd 	mov	x29, sp
   81360:	f9000fe0 	str	x0, [sp, #24]
   81364:	f9400fe0 	ldr	x0, [sp, #24]
   81368:	f100001f 	cmp	x0, #0x0
   8136c:	540001a0 	b.eq	813a0 <inOrder+0x48>  // b.none
   81370:	f9400fe0 	ldr	x0, [sp, #24]
   81374:	f9400400 	ldr	x0, [x0, #8]
   81378:	97fffff8 	bl	81358 <inOrder>
   8137c:	f9400fe0 	ldr	x0, [sp, #24]
   81380:	b9400000 	ldr	w0, [x0]
   81384:	94000c52 	bl	844cc <uart_sendi>
   81388:	d0000020 	adrp	x0, 87000 <set_exception_vector_table>
   8138c:	910ce000 	add	x0, x0, #0x338
   81390:	94000bed 	bl	84344 <uart_sends>
   81394:	f9400fe0 	ldr	x0, [sp, #24]
   81398:	f9400800 	ldr	x0, [x0, #16]
   8139c:	97ffffef 	bl	81358 <inOrder>
   813a0:	d503201f 	nop
   813a4:	a8c27bfd 	ldp	x29, x30, [sp], #32
   813a8:	d65f03c0 	ret

00000000000813ac <preOrder>:
   813ac:	a9be7bfd 	stp	x29, x30, [sp, #-32]!
   813b0:	910003fd 	mov	x29, sp
   813b4:	f9000fe0 	str	x0, [sp, #24]
   813b8:	f9400fe0 	ldr	x0, [sp, #24]
   813bc:	f100001f 	cmp	x0, #0x0
   813c0:	540001a0 	b.eq	813f4 <preOrder+0x48>  // b.none
   813c4:	f9400fe0 	ldr	x0, [sp, #24]
   813c8:	b9400000 	ldr	w0, [x0]
   813cc:	94000c40 	bl	844cc <uart_sendi>
   813d0:	d0000020 	adrp	x0, 87000 <set_exception_vector_table>
   813d4:	910ce000 	add	x0, x0, #0x338
   813d8:	94000bdb 	bl	84344 <uart_sends>
   813dc:	f9400fe0 	ldr	x0, [sp, #24]
   813e0:	f9400400 	ldr	x0, [x0, #8]
   813e4:	97fffff2 	bl	813ac <preOrder>
   813e8:	f9400fe0 	ldr	x0, [sp, #24]
   813ec:	f9400800 	ldr	x0, [x0, #16]
   813f0:	97ffffef 	bl	813ac <preOrder>
   813f4:	d503201f 	nop
   813f8:	a8c27bfd 	ldp	x29, x30, [sp], #32
   813fc:	d65f03c0 	ret

0000000000081400 <help>:
   81400:	a9bd7bfd 	stp	x29, x30, [sp, #-48]!
   81404:	910003fd 	mov	x29, sp
   81408:	f9000fe0 	str	x0, [sp, #24]
   8140c:	b9002fff 	str	wzr, [sp, #44]
   81410:	1400001d 	b	81484 <help+0x84>
   81414:	f0000020 	adrp	x0, 88000 <get_current+0xce8>
   81418:	91274002 	add	x2, x0, #0x9d0
   8141c:	b9802fe1 	ldrsw	x1, [sp, #44]
   81420:	aa0103e0 	mov	x0, x1
   81424:	d37ff800 	lsl	x0, x0, #1
   81428:	8b010000 	add	x0, x0, x1
   8142c:	d37df000 	lsl	x0, x0, #3
   81430:	8b000040 	add	x0, x2, x0
   81434:	f9400000 	ldr	x0, [x0]
   81438:	94000bc3 	bl	84344 <uart_sends>
   8143c:	d0000020 	adrp	x0, 87000 <set_exception_vector_table>
   81440:	9112e000 	add	x0, x0, #0x4b8
   81444:	94000bc0 	bl	84344 <uart_sends>
   81448:	f0000020 	adrp	x0, 88000 <get_current+0xce8>
   8144c:	91274002 	add	x2, x0, #0x9d0
   81450:	b9802fe1 	ldrsw	x1, [sp, #44]
   81454:	aa0103e0 	mov	x0, x1
   81458:	d37ff800 	lsl	x0, x0, #1
   8145c:	8b010000 	add	x0, x0, x1
   81460:	d37df000 	lsl	x0, x0, #3
   81464:	8b000040 	add	x0, x2, x0
   81468:	f9400400 	ldr	x0, [x0, #8]
   8146c:	94000bb6 	bl	84344 <uart_sends>
   81470:	52800140 	mov	w0, #0xa                   	// #10
   81474:	94000bcb 	bl	843a0 <uart_sendc>
   81478:	b9402fe0 	ldr	w0, [sp, #44]
   8147c:	11000400 	add	w0, w0, #0x1
   81480:	b9002fe0 	str	w0, [sp, #44]
   81484:	b9402fe0 	ldr	w0, [sp, #44]
   81488:	7100201f 	cmp	w0, #0x8
   8148c:	54fffc4d 	b.le	81414 <help+0x14>
   81490:	52800000 	mov	w0, #0x0                   	// #0
   81494:	a8c37bfd 	ldp	x29, x30, [sp], #48
   81498:	d65f03c0 	ret

000000000008149c <hello>:
   8149c:	a9be7bfd 	stp	x29, x30, [sp, #-32]!
   814a0:	910003fd 	mov	x29, sp
   814a4:	f9000fe0 	str	x0, [sp, #24]
   814a8:	d0000020 	adrp	x0, 87000 <set_exception_vector_table>
   814ac:	91130000 	add	x0, x0, #0x4c0
   814b0:	94000ba5 	bl	84344 <uart_sends>
   814b4:	52800000 	mov	w0, #0x0                   	// #0
   814b8:	a8c27bfd 	ldp	x29, x30, [sp], #32
   814bc:	d65f03c0 	ret

00000000000814c0 <lshw>:
   814c0:	a9be7bfd 	stp	x29, x30, [sp, #-32]!
   814c4:	910003fd 	mov	x29, sp
   814c8:	f9000fe0 	str	x0, [sp, #24]
   814cc:	9400069e 	bl	82f44 <get_board_revision>
   814d0:	940006ba 	bl	82fb8 <get_arm_memory>
   814d4:	52800000 	mov	w0, #0x0                   	// #0
   814d8:	a8c27bfd 	ldp	x29, x30, [sp], #32
   814dc:	d65f03c0 	ret

00000000000814e0 <reboot>:
   814e0:	d10043ff 	sub	sp, sp, #0x10
   814e4:	f90007e0 	str	x0, [sp, #8]
   814e8:	d2800380 	mov	x0, #0x1c                  	// #28
   814ec:	f2a7e200 	movk	x0, #0x3f10, lsl #16
   814f0:	52800401 	mov	w1, #0x20                  	// #32
   814f4:	72ab4001 	movk	w1, #0x5a00, lsl #16
   814f8:	b9000001 	str	w1, [x0]
   814fc:	d2800480 	mov	x0, #0x24                  	// #36
   81500:	f2a7e200 	movk	x0, #0x3f10, lsl #16
   81504:	52800281 	mov	w1, #0x14                  	// #20
   81508:	72ab4001 	movk	w1, #0x5a00, lsl #16
   8150c:	b9000001 	str	w1, [x0]
   81510:	52800000 	mov	w0, #0x0                   	// #0
   81514:	910043ff 	add	sp, sp, #0x10
   81518:	d65f03c0 	ret

000000000008151c <ls>:
   8151c:	a9be7bfd 	stp	x29, x30, [sp, #-32]!
   81520:	910003fd 	mov	x29, sp
   81524:	f9000fe0 	str	x0, [sp, #24]
   81528:	94000323 	bl	821b4 <initrd_list>
   8152c:	52800000 	mov	w0, #0x0                   	// #0
   81530:	a8c27bfd 	ldp	x29, x30, [sp], #32
   81534:	d65f03c0 	ret

0000000000081538 <cat>:
   81538:	a9ad7bfd 	stp	x29, x30, [sp, #-304]!
   8153c:	910003fd 	mov	x29, sp
   81540:	f9000fe0 	str	x0, [sp, #24]
   81544:	f9400fe0 	ldr	x0, [sp, #24]
   81548:	f100001f 	cmp	x0, #0x0
   8154c:	54000061 	b.ne	81558 <cat+0x20>  // b.any
   81550:	12800000 	mov	w0, #0xffffffff            	// #-1
   81554:	14000009 	b	81578 <cat+0x40>
   81558:	f9400fe0 	ldr	x0, [sp, #24]
   8155c:	91002000 	add	x0, x0, #0x8
   81560:	f9400001 	ldr	x1, [x0]
   81564:	9100a3e0 	add	x0, sp, #0x28
   81568:	94000dfc 	bl	84d58 <strcpy>
   8156c:	9100a3e0 	add	x0, sp, #0x28
   81570:	94000361 	bl	822f4 <initrd_cat>
   81574:	52800000 	mov	w0, #0x0                   	// #0
   81578:	a8d37bfd 	ldp	x29, x30, [sp], #304
   8157c:	d65f03c0 	ret

0000000000081580 <exec>:
   81580:	a9ab7bfd 	stp	x29, x30, [sp, #-336]!
   81584:	910003fd 	mov	x29, sp
   81588:	f9000fe0 	str	x0, [sp, #24]
   8158c:	f9400fe0 	ldr	x0, [sp, #24]
   81590:	f100001f 	cmp	x0, #0x0
   81594:	54000061 	b.ne	815a0 <exec+0x20>  // b.any
   81598:	12800000 	mov	w0, #0xffffffff            	// #-1
   8159c:	1400003f 	b	81698 <exec+0x118>
   815a0:	f9400fe0 	ldr	x0, [sp, #24]
   815a4:	91002000 	add	x0, x0, #0x8
   815a8:	f9400001 	ldr	x1, [x0]
   815ac:	9100a3e0 	add	x0, sp, #0x28
   815b0:	94000dea 	bl	84d58 <strcpy>
   815b4:	9100a3e0 	add	x0, sp, #0x28
   815b8:	940003de 	bl	82530 <fetch_exec>
   815bc:	f900a3e0 	str	x0, [sp, #320]
   815c0:	f940a3e0 	ldr	x0, [sp, #320]
   815c4:	f100001f 	cmp	x0, #0x0
   815c8:	54000560 	b.eq	81674 <exec+0xf4>  // b.none
   815cc:	94000437 	bl	826a8 <get_exec_size>
   815d0:	94000aa3 	bl	8405c <kmalloc>
   815d4:	93407c00 	sxtw	x0, w0
   815d8:	f9009fe0 	str	x0, [sp, #312]
   815dc:	b9014fff 	str	wzr, [sp, #332]
   815e0:	1400000c 	b	81610 <exec+0x90>
   815e4:	b9814fe0 	ldrsw	x0, [sp, #332]
   815e8:	f940a3e1 	ldr	x1, [sp, #320]
   815ec:	8b000021 	add	x1, x1, x0
   815f0:	b9814fe0 	ldrsw	x0, [sp, #332]
   815f4:	f9409fe2 	ldr	x2, [sp, #312]
   815f8:	8b000040 	add	x0, x2, x0
   815fc:	39400021 	ldrb	w1, [x1]
   81600:	39000001 	strb	w1, [x0]
   81604:	b9414fe0 	ldr	w0, [sp, #332]
   81608:	11000400 	add	w0, w0, #0x1
   8160c:	b9014fe0 	str	w0, [sp, #332]
   81610:	94000426 	bl	826a8 <get_exec_size>
   81614:	2a0003e1 	mov	w1, w0
   81618:	b9414fe0 	ldr	w0, [sp, #332]
   8161c:	6b01001f 	cmp	w0, w1
   81620:	54fffe2b 	b.lt	815e4 <exec+0x64>  // b.tstop
   81624:	f9409fe0 	ldr	x0, [sp, #312]
   81628:	94001188 	bl	85c48 <thread_create>
   8162c:	f9009be0 	str	x0, [sp, #304]
   81630:	9400122e 	bl	85ee8 <add_scheduler>
   81634:	f9409be0 	ldr	x0, [sp, #304]
   81638:	f9402c01 	ldr	x1, [x0, #88]
   8163c:	f9409be0 	ldr	x0, [sp, #304]
   81640:	f9403002 	ldr	x2, [x0, #96]
   81644:	f9409be0 	ldr	x0, [sp, #304]
   81648:	f9404000 	ldr	x0, [x0, #128]
   8164c:	91400403 	add	x3, x0, #0x1, lsl #12
   81650:	f9409be0 	ldr	x0, [sp, #304]
   81654:	d518d080 	msr	tpidr_el1, x0
   81658:	d2800004 	mov	x4, #0x0                   	// #0
   8165c:	d5184004 	msr	spsr_el1, x4
   81660:	d5184021 	msr	elr_el1, x1
   81664:	d5184102 	msr	sp_el0, x2
   81668:	9100007f 	mov	sp, x3
   8166c:	d69f03e0 	eret
   81670:	14000009 	b	81694 <exec+0x114>
   81674:	d0000020 	adrp	x0, 87000 <set_exception_vector_table>
   81678:	91134000 	add	x0, x0, #0x4d0
   8167c:	94000b32 	bl	84344 <uart_sends>
   81680:	9100a3e0 	add	x0, sp, #0x28
   81684:	94000b30 	bl	84344 <uart_sends>
   81688:	d0000020 	adrp	x0, 87000 <set_exception_vector_table>
   8168c:	91136000 	add	x0, x0, #0x4d8
   81690:	94000b2d 	bl	84344 <uart_sends>
   81694:	52800000 	mov	w0, #0x0                   	// #0
   81698:	a8d57bfd 	ldp	x29, x30, [sp], #336
   8169c:	d65f03c0 	ret

00000000000816a0 <setTimeout>:
   816a0:	a9bd7bfd 	stp	x29, x30, [sp, #-48]!
   816a4:	910003fd 	mov	x29, sp
   816a8:	f9000bf3 	str	x19, [sp, #16]
   816ac:	f90017e0 	str	x0, [sp, #40]
   816b0:	f94017e0 	ldr	x0, [sp, #40]
   816b4:	f100001f 	cmp	x0, #0x0
   816b8:	54000061 	b.ne	816c4 <setTimeout+0x24>  // b.any
   816bc:	12800000 	mov	w0, #0xffffffff            	// #-1
   816c0:	1400000d 	b	816f4 <setTimeout+0x54>
   816c4:	f94017e0 	ldr	x0, [sp, #40]
   816c8:	91002000 	add	x0, x0, #0x8
   816cc:	f9400013 	ldr	x19, [x0]
   816d0:	f94017e0 	ldr	x0, [sp, #40]
   816d4:	91004000 	add	x0, x0, #0x10
   816d8:	f9400000 	ldr	x0, [x0]
   816dc:	94000ed9 	bl	85240 <atoi>
   816e0:	93407c00 	sxtw	x0, w0
   816e4:	aa0003e1 	mov	x1, x0
   816e8:	aa1303e0 	mov	x0, x19
   816ec:	9400125e 	bl	86064 <set_timeout>
   816f0:	52800000 	mov	w0, #0x0                   	// #0
   816f4:	f9400bf3 	ldr	x19, [sp, #16]
   816f8:	a8c37bfd 	ldp	x29, x30, [sp], #48
   816fc:	d65f03c0 	ret

0000000000081700 <test>:
   81700:	a9ae7bfd 	stp	x29, x30, [sp, #-288]!
   81704:	910003fd 	mov	x29, sp
   81708:	f9000fe0 	str	x0, [sp, #24]
   8170c:	d0000020 	adrp	x0, 87000 <set_exception_vector_table>
   81710:	9113e000 	add	x0, x0, #0x4f8
   81714:	94000b0c 	bl	84344 <uart_sends>
   81718:	d0000020 	adrp	x0, 87000 <set_exception_vector_table>
   8171c:	91142000 	add	x0, x0, #0x508
   81720:	94000b09 	bl	84344 <uart_sends>
   81724:	d0000020 	adrp	x0, 87000 <set_exception_vector_table>
   81728:	91148000 	add	x0, x0, #0x520
   8172c:	94000b06 	bl	84344 <uart_sends>
   81730:	d0000020 	adrp	x0, 87000 <set_exception_vector_table>
   81734:	9114c000 	add	x0, x0, #0x530
   81738:	94000b03 	bl	84344 <uart_sends>
   8173c:	d0000020 	adrp	x0, 87000 <set_exception_vector_table>
   81740:	91150000 	add	x0, x0, #0x540
   81744:	94000b00 	bl	84344 <uart_sends>
   81748:	910083e0 	add	x0, sp, #0x20
   8174c:	94000e83 	bl	85158 <gets>
   81750:	910083e0 	add	x0, sp, #0x20
   81754:	94000ebb 	bl	85240 <atoi>
   81758:	71000c1f 	cmp	w0, #0x3
   8175c:	54000180 	b.eq	8178c <test+0x8c>  // b.none
   81760:	71000c1f 	cmp	w0, #0x3
   81764:	5400018c 	b.gt	81794 <test+0x94>
   81768:	7100041f 	cmp	w0, #0x1
   8176c:	54000080 	b.eq	8177c <test+0x7c>  // b.none
   81770:	7100081f 	cmp	w0, #0x2
   81774:	54000080 	b.eq	81784 <test+0x84>  // b.none
   81778:	14000007 	b	81794 <test+0x94>
   8177c:	94000c92 	bl	849c4 <uart_async_test>
   81780:	14000005 	b	81794 <test+0x94>
   81784:	94001211 	bl	85fc8 <thread_test>
   81788:	14000003 	b	81794 <test+0x94>
   8178c:	94001088 	bl	859ac <sys_fork_test>
   81790:	d503201f 	nop
   81794:	52800000 	mov	w0, #0x0                   	// #0
   81798:	a8d27bfd 	ldp	x29, x30, [sp], #288
   8179c:	d65f03c0 	ret

00000000000817a0 <swap32>:
   817a0:	d10043ff 	sub	sp, sp, #0x10
   817a4:	b9000fe0 	str	w0, [sp, #12]
   817a8:	b9400fe0 	ldr	w0, [sp, #12]
   817ac:	53187c01 	lsr	w1, w0, #24
   817b0:	b9400fe0 	ldr	w0, [sp, #12]
   817b4:	53087c00 	lsr	w0, w0, #8
   817b8:	12181c00 	and	w0, w0, #0xff00
   817bc:	2a000021 	orr	w1, w1, w0
   817c0:	b9400fe0 	ldr	w0, [sp, #12]
   817c4:	53185c00 	lsl	w0, w0, #8
   817c8:	12101c00 	and	w0, w0, #0xff0000
   817cc:	2a000021 	orr	w1, w1, w0
   817d0:	b9400fe0 	ldr	w0, [sp, #12]
   817d4:	53081c00 	lsl	w0, w0, #24
   817d8:	2a000020 	orr	w0, w1, w0
   817dc:	910043ff 	add	sp, sp, #0x10
   817e0:	d65f03c0 	ret

00000000000817e4 <fdt_header_b2l>:
   817e4:	a9be7bfd 	stp	x29, x30, [sp, #-32]!
   817e8:	910003fd 	mov	x29, sp
   817ec:	f9000fe0 	str	x0, [sp, #24]
   817f0:	f9400fe0 	ldr	x0, [sp, #24]
   817f4:	b9400001 	ldr	w1, [x0]
   817f8:	529fdda0 	mov	w0, #0xfeed                	// #65261
   817fc:	72ba01a0 	movk	w0, #0xd00d, lsl #16
   81800:	6b00003f 	cmp	w1, w0
   81804:	540007c0 	b.eq	818fc <fdt_header_b2l+0x118>  // b.none
   81808:	f9400fe0 	ldr	x0, [sp, #24]
   8180c:	b9400000 	ldr	w0, [x0]
   81810:	97ffffe4 	bl	817a0 <swap32>
   81814:	2a0003e1 	mov	w1, w0
   81818:	f9400fe0 	ldr	x0, [sp, #24]
   8181c:	b9000001 	str	w1, [x0]
   81820:	f9400fe0 	ldr	x0, [sp, #24]
   81824:	b9400400 	ldr	w0, [x0, #4]
   81828:	97ffffde 	bl	817a0 <swap32>
   8182c:	2a0003e1 	mov	w1, w0
   81830:	f9400fe0 	ldr	x0, [sp, #24]
   81834:	b9000401 	str	w1, [x0, #4]
   81838:	f9400fe0 	ldr	x0, [sp, #24]
   8183c:	b9400800 	ldr	w0, [x0, #8]
   81840:	97ffffd8 	bl	817a0 <swap32>
   81844:	2a0003e1 	mov	w1, w0
   81848:	f9400fe0 	ldr	x0, [sp, #24]
   8184c:	b9000801 	str	w1, [x0, #8]
   81850:	f9400fe0 	ldr	x0, [sp, #24]
   81854:	b9400c00 	ldr	w0, [x0, #12]
   81858:	97ffffd2 	bl	817a0 <swap32>
   8185c:	2a0003e1 	mov	w1, w0
   81860:	f9400fe0 	ldr	x0, [sp, #24]
   81864:	b9000c01 	str	w1, [x0, #12]
   81868:	f9400fe0 	ldr	x0, [sp, #24]
   8186c:	b9401000 	ldr	w0, [x0, #16]
   81870:	97ffffcc 	bl	817a0 <swap32>
   81874:	2a0003e1 	mov	w1, w0
   81878:	f9400fe0 	ldr	x0, [sp, #24]
   8187c:	b9001001 	str	w1, [x0, #16]
   81880:	f9400fe0 	ldr	x0, [sp, #24]
   81884:	b9401400 	ldr	w0, [x0, #20]
   81888:	97ffffc6 	bl	817a0 <swap32>
   8188c:	2a0003e1 	mov	w1, w0
   81890:	f9400fe0 	ldr	x0, [sp, #24]
   81894:	b9001401 	str	w1, [x0, #20]
   81898:	f9400fe0 	ldr	x0, [sp, #24]
   8189c:	b9401800 	ldr	w0, [x0, #24]
   818a0:	97ffffc0 	bl	817a0 <swap32>
   818a4:	2a0003e1 	mov	w1, w0
   818a8:	f9400fe0 	ldr	x0, [sp, #24]
   818ac:	b9001801 	str	w1, [x0, #24]
   818b0:	f9400fe0 	ldr	x0, [sp, #24]
   818b4:	b9401c00 	ldr	w0, [x0, #28]
   818b8:	97ffffba 	bl	817a0 <swap32>
   818bc:	2a0003e1 	mov	w1, w0
   818c0:	f9400fe0 	ldr	x0, [sp, #24]
   818c4:	b9001c01 	str	w1, [x0, #28]
   818c8:	f9400fe0 	ldr	x0, [sp, #24]
   818cc:	b9402000 	ldr	w0, [x0, #32]
   818d0:	97ffffb4 	bl	817a0 <swap32>
   818d4:	2a0003e1 	mov	w1, w0
   818d8:	f9400fe0 	ldr	x0, [sp, #24]
   818dc:	b9002001 	str	w1, [x0, #32]
   818e0:	f9400fe0 	ldr	x0, [sp, #24]
   818e4:	b9402400 	ldr	w0, [x0, #36]
   818e8:	97ffffae 	bl	817a0 <swap32>
   818ec:	2a0003e1 	mov	w1, w0
   818f0:	f9400fe0 	ldr	x0, [sp, #24]
   818f4:	b9002401 	str	w1, [x0, #36]
   818f8:	14000002 	b	81900 <fdt_header_b2l+0x11c>
   818fc:	d503201f 	nop
   81900:	a8c27bfd 	ldp	x29, x30, [sp], #32
   81904:	d65f03c0 	ret

0000000000081908 <parse_dtb>:
   81908:	a9b87bfd 	stp	x29, x30, [sp, #-128]!
   8190c:	910003fd 	mov	x29, sp
   81910:	f9000fe0 	str	x0, [sp, #24]
   81914:	d0000020 	adrp	x0, 87000 <set_exception_vector_table>
   81918:	91152000 	add	x0, x0, #0x548
   8191c:	94000a8a 	bl	84344 <uart_sends>
   81920:	f9400fe0 	ldr	x0, [sp, #24]
   81924:	f9002fe0 	str	x0, [sp, #88]
   81928:	f9402fe0 	ldr	x0, [sp, #88]
   8192c:	97ffffae 	bl	817e4 <fdt_header_b2l>
   81930:	f9402fe0 	ldr	x0, [sp, #88]
   81934:	b9400800 	ldr	w0, [x0, #8]
   81938:	2a0003e1 	mov	w1, w0
   8193c:	f9402fe0 	ldr	x0, [sp, #88]
   81940:	8b000020 	add	x0, x1, x0
   81944:	f9003fe0 	str	x0, [sp, #120]
   81948:	f9402fe0 	ldr	x0, [sp, #88]
   8194c:	b9400c00 	ldr	w0, [x0, #12]
   81950:	2a0003e1 	mov	w1, w0
   81954:	f9402fe0 	ldr	x0, [sp, #88]
   81958:	8b000020 	add	x0, x1, x0
   8195c:	f9002be0 	str	x0, [sp, #80]
   81960:	f9402fe0 	ldr	x0, [sp, #88]
   81964:	b9400800 	ldr	w0, [x0, #8]
   81968:	2a0003e1 	mov	w1, w0
   8196c:	f9402fe0 	ldr	x0, [sp, #88]
   81970:	8b000021 	add	x1, x1, x0
   81974:	f9402fe0 	ldr	x0, [sp, #88]
   81978:	b9402400 	ldr	w0, [x0, #36]
   8197c:	2a0003e0 	mov	w0, w0
   81980:	8b000020 	add	x0, x1, x0
   81984:	f90027e0 	str	x0, [sp, #72]
   81988:	f9403fe0 	ldr	x0, [sp, #120]
   8198c:	f9003be0 	str	x0, [sp, #112]
   81990:	b90047ff 	str	wzr, [sp, #68]
   81994:	14000099 	b	81bf8 <parse_dtb+0x2f0>
   81998:	f9403be0 	ldr	x0, [sp, #112]
   8199c:	b9400000 	ldr	w0, [x0]
   819a0:	97ffff80 	bl	817a0 <swap32>
   819a4:	7100101f 	cmp	w0, #0x4
   819a8:	540011c0 	b.eq	81be0 <parse_dtb+0x2d8>  // b.none
   819ac:	7100101f 	cmp	w0, #0x4
   819b0:	54001208 	b.hi	81bf0 <parse_dtb+0x2e8>  // b.pmore
   819b4:	71000c1f 	cmp	w0, #0x3
   819b8:	54000680 	b.eq	81a88 <parse_dtb+0x180>  // b.none
   819bc:	71000c1f 	cmp	w0, #0x3
   819c0:	54001188 	b.hi	81bf0 <parse_dtb+0x2e8>  // b.pmore
   819c4:	7100041f 	cmp	w0, #0x1
   819c8:	54000080 	b.eq	819d8 <parse_dtb+0xd0>  // b.none
   819cc:	7100081f 	cmp	w0, #0x2
   819d0:	540004e0 	b.eq	81a6c <parse_dtb+0x164>  // b.none
   819d4:	14000087 	b	81bf0 <parse_dtb+0x2e8>
   819d8:	d0000020 	adrp	x0, 87000 <set_exception_vector_table>
   819dc:	91156000 	add	x0, x0, #0x558
   819e0:	94000a59 	bl	84344 <uart_sends>
   819e4:	f9403fe0 	ldr	x0, [sp, #120]
   819e8:	91001000 	add	x0, x0, #0x4
   819ec:	f9003fe0 	str	x0, [sp, #120]
   819f0:	f9403fe0 	ldr	x0, [sp, #120]
   819f4:	94000a54 	bl	84344 <uart_sends>
   819f8:	52800140 	mov	w0, #0xa                   	// #10
   819fc:	94000a69 	bl	843a0 <uart_sendc>
   81a00:	b90047ff 	str	wzr, [sp, #68]
   81a04:	f9403fe0 	ldr	x0, [sp, #120]
   81a08:	94000c9f 	bl	84c84 <strlen>
   81a0c:	b90037e0 	str	w0, [sp, #52]
   81a10:	b94037e0 	ldr	w0, [sp, #52]
   81a14:	11000400 	add	w0, w0, #0x1
   81a18:	b90037e0 	str	w0, [sp, #52]
   81a1c:	b94037e0 	ldr	w0, [sp, #52]
   81a20:	6b0003e1 	negs	w1, w0
   81a24:	12000400 	and	w0, w0, #0x3
   81a28:	12000421 	and	w1, w1, #0x3
   81a2c:	5a814400 	csneg	w0, w0, w1, mi  // mi = first
   81a30:	52800081 	mov	w1, #0x4                   	// #4
   81a34:	4b000020 	sub	w0, w1, w0
   81a38:	6b0003e1 	negs	w1, w0
   81a3c:	12000400 	and	w0, w0, #0x3
   81a40:	12000421 	and	w1, w1, #0x3
   81a44:	5a814400 	csneg	w0, w0, w1, mi  // mi = first
   81a48:	b90047e0 	str	w0, [sp, #68]
   81a4c:	b94037e1 	ldr	w1, [sp, #52]
   81a50:	b94047e0 	ldr	w0, [sp, #68]
   81a54:	0b000020 	add	w0, w1, w0
   81a58:	93407c00 	sxtw	x0, w0
   81a5c:	f9403fe1 	ldr	x1, [sp, #120]
   81a60:	8b000020 	add	x0, x1, x0
   81a64:	f9003fe0 	str	x0, [sp, #120]
   81a68:	14000062 	b	81bf0 <parse_dtb+0x2e8>
   81a6c:	d0000020 	adrp	x0, 87000 <set_exception_vector_table>
   81a70:	9115a000 	add	x0, x0, #0x568
   81a74:	94000a34 	bl	84344 <uart_sends>
   81a78:	f9403fe0 	ldr	x0, [sp, #120]
   81a7c:	91001000 	add	x0, x0, #0x4
   81a80:	f9003fe0 	str	x0, [sp, #120]
   81a84:	1400005b 	b	81bf0 <parse_dtb+0x2e8>
   81a88:	f9403fe0 	ldr	x0, [sp, #120]
   81a8c:	91001000 	add	x0, x0, #0x4
   81a90:	f9003fe0 	str	x0, [sp, #120]
   81a94:	f9403fe0 	ldr	x0, [sp, #120]
   81a98:	f9001fe0 	str	x0, [sp, #56]
   81a9c:	f9401fe0 	ldr	x0, [sp, #56]
   81aa0:	b9400000 	ldr	w0, [x0]
   81aa4:	97ffff3f 	bl	817a0 <swap32>
   81aa8:	b9002be0 	str	w0, [sp, #40]
   81aac:	f9401fe0 	ldr	x0, [sp, #56]
   81ab0:	b9400400 	ldr	w0, [x0, #4]
   81ab4:	97ffff3b 	bl	817a0 <swap32>
   81ab8:	b9002fe0 	str	w0, [sp, #44]
   81abc:	d0000020 	adrp	x0, 87000 <set_exception_vector_table>
   81ac0:	9115e000 	add	x0, x0, #0x578
   81ac4:	94000a20 	bl	84344 <uart_sends>
   81ac8:	b9402fe0 	ldr	w0, [sp, #44]
   81acc:	2a0003e0 	mov	w0, w0
   81ad0:	f9402be1 	ldr	x1, [sp, #80]
   81ad4:	8b000020 	add	x0, x1, x0
   81ad8:	94000a1b 	bl	84344 <uart_sends>
   81adc:	b9402fe0 	ldr	w0, [sp, #44]
   81ae0:	2a0003e0 	mov	w0, w0
   81ae4:	f9402be1 	ldr	x1, [sp, #80]
   81ae8:	8b000023 	add	x3, x1, x0
   81aec:	52800082 	mov	w2, #0x4                   	// #4
   81af0:	d0000020 	adrp	x0, 87000 <set_exception_vector_table>
   81af4:	91162001 	add	x1, x0, #0x588
   81af8:	aa0303e0 	mov	x0, x3
   81afc:	94000d11 	bl	84f40 <memcmp>
   81b00:	7100001f 	cmp	w0, #0x0
   81b04:	540001e1 	b.ne	81b40 <parse_dtb+0x238>  // b.any
   81b08:	d0000020 	adrp	x0, 87000 <set_exception_vector_table>
   81b0c:	91164000 	add	x0, x0, #0x590
   81b10:	94000a0d 	bl	84344 <uart_sends>
   81b14:	f90037ff 	str	xzr, [sp, #104]
   81b18:	14000004 	b	81b28 <parse_dtb+0x220>
   81b1c:	f94037e0 	ldr	x0, [sp, #104]
   81b20:	91000400 	add	x0, x0, #0x1
   81b24:	f90037e0 	str	x0, [sp, #104]
   81b28:	f94037e1 	ldr	x1, [sp, #104]
   81b2c:	d29c7fe0 	mov	x0, #0xe3ff                	// #58367
   81b30:	f2aa8160 	movk	x0, #0x540b, lsl #16
   81b34:	f2c00040 	movk	x0, #0x2, lsl #32
   81b38:	eb00003f 	cmp	x1, x0
   81b3c:	54ffff0d 	b.le	81b1c <parse_dtb+0x214>
   81b40:	52800140 	mov	w0, #0xa                   	// #10
   81b44:	94000a17 	bl	843a0 <uart_sendc>
   81b48:	f9403fe0 	ldr	x0, [sp, #120]
   81b4c:	91002000 	add	x0, x0, #0x8
   81b50:	f9003fe0 	str	x0, [sp, #120]
   81b54:	d0000020 	adrp	x0, 87000 <set_exception_vector_table>
   81b58:	91168000 	add	x0, x0, #0x5a0
   81b5c:	940009fa 	bl	84344 <uart_sends>
   81b60:	b9402be0 	ldr	w0, [sp, #40]
   81b64:	7100001f 	cmp	w0, #0x0
   81b68:	540000a1 	b.ne	81b7c <parse_dtb+0x274>  // b.any
   81b6c:	d0000020 	adrp	x0, 87000 <set_exception_vector_table>
   81b70:	9116e000 	add	x0, x0, #0x5b8
   81b74:	940009f4 	bl	84344 <uart_sends>
   81b78:	1400001e 	b	81bf0 <parse_dtb+0x2e8>
   81b7c:	b90067ff 	str	wzr, [sp, #100]
   81b80:	14000009 	b	81ba4 <parse_dtb+0x29c>
   81b84:	f9403fe0 	ldr	x0, [sp, #120]
   81b88:	91000401 	add	x1, x0, #0x1
   81b8c:	f9003fe1 	str	x1, [sp, #120]
   81b90:	39400000 	ldrb	w0, [x0]
   81b94:	94000a03 	bl	843a0 <uart_sendc>
   81b98:	b94067e0 	ldr	w0, [sp, #100]
   81b9c:	11000400 	add	w0, w0, #0x1
   81ba0:	b90067e0 	str	w0, [sp, #100]
   81ba4:	b9402be1 	ldr	w1, [sp, #40]
   81ba8:	b94067e0 	ldr	w0, [sp, #100]
   81bac:	6b00003f 	cmp	w1, w0
   81bb0:	54fffea8 	b.hi	81b84 <parse_dtb+0x27c>  // b.pmore
   81bb4:	52800140 	mov	w0, #0xa                   	// #10
   81bb8:	940009fa 	bl	843a0 <uart_sendc>
   81bbc:	b9402be0 	ldr	w0, [sp, #40]
   81bc0:	4b0003e0 	neg	w0, w0
   81bc4:	12000400 	and	w0, w0, #0x3
   81bc8:	b90047e0 	str	w0, [sp, #68]
   81bcc:	b98047e0 	ldrsw	x0, [sp, #68]
   81bd0:	f9403fe1 	ldr	x1, [sp, #120]
   81bd4:	8b000020 	add	x0, x1, x0
   81bd8:	f9003fe0 	str	x0, [sp, #120]
   81bdc:	14000005 	b	81bf0 <parse_dtb+0x2e8>
   81be0:	f9403fe0 	ldr	x0, [sp, #120]
   81be4:	91001000 	add	x0, x0, #0x4
   81be8:	f9003fe0 	str	x0, [sp, #120]
   81bec:	d503201f 	nop
   81bf0:	f9403fe0 	ldr	x0, [sp, #120]
   81bf4:	f9003be0 	str	x0, [sp, #112]
   81bf8:	f9403be0 	ldr	x0, [sp, #112]
   81bfc:	b9400000 	ldr	w0, [x0]
   81c00:	97fffee8 	bl	817a0 <swap32>
   81c04:	7100241f 	cmp	w0, #0x9
   81c08:	54ffec81 	b.ne	81998 <parse_dtb+0x90>  // b.any
   81c0c:	f9403fe1 	ldr	x1, [sp, #120]
   81c10:	f94027e0 	ldr	x0, [sp, #72]
   81c14:	eb00003f 	cmp	x1, x0
   81c18:	540000a1 	b.ne	81c2c <parse_dtb+0x324>  // b.any
   81c1c:	d0000020 	adrp	x0, 87000 <set_exception_vector_table>
   81c20:	91170000 	add	x0, x0, #0x5c0
   81c24:	940009c8 	bl	84344 <uart_sends>
   81c28:	14000004 	b	81c38 <parse_dtb+0x330>
   81c2c:	d0000020 	adrp	x0, 87000 <set_exception_vector_table>
   81c30:	91172000 	add	x0, x0, #0x5c8
   81c34:	940009c4 	bl	84344 <uart_sends>
   81c38:	d503201f 	nop
   81c3c:	a8c87bfd 	ldp	x29, x30, [sp], #128
   81c40:	d65f03c0 	ret

0000000000081c44 <fdt_traverse>:
   81c44:	a9ba7bfd 	stp	x29, x30, [sp, #-96]!
   81c48:	910003fd 	mov	x29, sp
   81c4c:	f9000fe0 	str	x0, [sp, #24]
   81c50:	f9000be1 	str	x1, [sp, #16]
   81c54:	f9400fe0 	ldr	x0, [sp, #24]
   81c58:	f90027e0 	str	x0, [sp, #72]
   81c5c:	f94027e0 	ldr	x0, [sp, #72]
   81c60:	97fffee1 	bl	817e4 <fdt_header_b2l>
   81c64:	f94027e0 	ldr	x0, [sp, #72]
   81c68:	b9400800 	ldr	w0, [x0, #8]
   81c6c:	2a0003e1 	mov	w1, w0
   81c70:	f94027e0 	ldr	x0, [sp, #72]
   81c74:	8b000020 	add	x0, x1, x0
   81c78:	f9002fe0 	str	x0, [sp, #88]
   81c7c:	f94027e0 	ldr	x0, [sp, #72]
   81c80:	b9400c00 	ldr	w0, [x0, #12]
   81c84:	2a0003e1 	mov	w1, w0
   81c88:	f94027e0 	ldr	x0, [sp, #72]
   81c8c:	8b000020 	add	x0, x1, x0
   81c90:	f90023e0 	str	x0, [sp, #64]
   81c94:	f94027e0 	ldr	x0, [sp, #72]
   81c98:	b9400800 	ldr	w0, [x0, #8]
   81c9c:	2a0003e1 	mov	w1, w0
   81ca0:	f94027e0 	ldr	x0, [sp, #72]
   81ca4:	8b000021 	add	x1, x1, x0
   81ca8:	f94027e0 	ldr	x0, [sp, #72]
   81cac:	b9402400 	ldr	w0, [x0, #36]
   81cb0:	2a0003e0 	mov	w0, w0
   81cb4:	8b000020 	add	x0, x1, x0
   81cb8:	aa0003e1 	mov	x1, x0
   81cbc:	f0000020 	adrp	x0, 88000 <get_current+0xce8>
   81cc0:	912aa000 	add	x0, x0, #0xaa8
   81cc4:	f9000001 	str	x1, [x0]
   81cc8:	f9402fe0 	ldr	x0, [sp, #88]
   81ccc:	f9002be0 	str	x0, [sp, #80]
   81cd0:	b9003fff 	str	wzr, [sp, #60]
   81cd4:	14000060 	b	81e54 <fdt_traverse+0x210>
   81cd8:	f9402be0 	ldr	x0, [sp, #80]
   81cdc:	b9400000 	ldr	w0, [x0]
   81ce0:	97fffeb0 	bl	817a0 <swap32>
   81ce4:	7100101f 	cmp	w0, #0x4
   81ce8:	54000a80 	b.eq	81e38 <fdt_traverse+0x1f4>  // b.none
   81cec:	7100101f 	cmp	w0, #0x4
   81cf0:	54000ae8 	b.hi	81e4c <fdt_traverse+0x208>  // b.pmore
   81cf4:	71000c1f 	cmp	w0, #0x3
   81cf8:	54000520 	b.eq	81d9c <fdt_traverse+0x158>  // b.none
   81cfc:	71000c1f 	cmp	w0, #0x3
   81d00:	54000a68 	b.hi	81e4c <fdt_traverse+0x208>  // b.pmore
   81d04:	7100041f 	cmp	w0, #0x1
   81d08:	54000080 	b.eq	81d18 <fdt_traverse+0xd4>  // b.none
   81d0c:	7100081f 	cmp	w0, #0x2
   81d10:	540003e0 	b.eq	81d8c <fdt_traverse+0x148>  // b.none
   81d14:	1400004e 	b	81e4c <fdt_traverse+0x208>
   81d18:	f9402fe0 	ldr	x0, [sp, #88]
   81d1c:	91001000 	add	x0, x0, #0x4
   81d20:	f9002fe0 	str	x0, [sp, #88]
   81d24:	f9402fe0 	ldr	x0, [sp, #88]
   81d28:	94000bd7 	bl	84c84 <strlen>
   81d2c:	b9002fe0 	str	w0, [sp, #44]
   81d30:	b9402fe0 	ldr	w0, [sp, #44]
   81d34:	11000400 	add	w0, w0, #0x1
   81d38:	b9002fe0 	str	w0, [sp, #44]
   81d3c:	b9402fe0 	ldr	w0, [sp, #44]
   81d40:	6b0003e1 	negs	w1, w0
   81d44:	12000400 	and	w0, w0, #0x3
   81d48:	12000421 	and	w1, w1, #0x3
   81d4c:	5a814400 	csneg	w0, w0, w1, mi  // mi = first
   81d50:	52800081 	mov	w1, #0x4                   	// #4
   81d54:	4b000020 	sub	w0, w1, w0
   81d58:	6b0003e1 	negs	w1, w0
   81d5c:	12000400 	and	w0, w0, #0x3
   81d60:	12000421 	and	w1, w1, #0x3
   81d64:	5a814400 	csneg	w0, w0, w1, mi  // mi = first
   81d68:	b9003fe0 	str	w0, [sp, #60]
   81d6c:	b9402fe1 	ldr	w1, [sp, #44]
   81d70:	b9403fe0 	ldr	w0, [sp, #60]
   81d74:	0b000020 	add	w0, w1, w0
   81d78:	93407c00 	sxtw	x0, w0
   81d7c:	f9402fe1 	ldr	x1, [sp, #88]
   81d80:	8b000020 	add	x0, x1, x0
   81d84:	f9002fe0 	str	x0, [sp, #88]
   81d88:	14000031 	b	81e4c <fdt_traverse+0x208>
   81d8c:	f9402fe0 	ldr	x0, [sp, #88]
   81d90:	91001000 	add	x0, x0, #0x4
   81d94:	f9002fe0 	str	x0, [sp, #88]
   81d98:	1400002d 	b	81e4c <fdt_traverse+0x208>
   81d9c:	f9402fe0 	ldr	x0, [sp, #88]
   81da0:	91001000 	add	x0, x0, #0x4
   81da4:	f9002fe0 	str	x0, [sp, #88]
   81da8:	f9402fe0 	ldr	x0, [sp, #88]
   81dac:	f9001be0 	str	x0, [sp, #48]
   81db0:	f9401be0 	ldr	x0, [sp, #48]
   81db4:	b9400000 	ldr	w0, [x0]
   81db8:	97fffe7a 	bl	817a0 <swap32>
   81dbc:	b90023e0 	str	w0, [sp, #32]
   81dc0:	f9401be0 	ldr	x0, [sp, #48]
   81dc4:	b9400400 	ldr	w0, [x0, #4]
   81dc8:	97fffe76 	bl	817a0 <swap32>
   81dcc:	b90027e0 	str	w0, [sp, #36]
   81dd0:	f9402fe0 	ldr	x0, [sp, #88]
   81dd4:	91002000 	add	x0, x0, #0x8
   81dd8:	f9002fe0 	str	x0, [sp, #88]
   81ddc:	b94027e0 	ldr	w0, [sp, #36]
   81de0:	2a0003e0 	mov	w0, w0
   81de4:	f94023e1 	ldr	x1, [sp, #64]
   81de8:	8b000020 	add	x0, x1, x0
   81dec:	f9400be2 	ldr	x2, [sp, #16]
   81df0:	aa0003e1 	mov	x1, x0
   81df4:	f9402fe0 	ldr	x0, [sp, #88]
   81df8:	d63f0040 	blr	x2
   81dfc:	b94023e0 	ldr	w0, [sp, #32]
   81e00:	7100001f 	cmp	w0, #0x0
   81e04:	54000220 	b.eq	81e48 <fdt_traverse+0x204>  // b.none
   81e08:	b94023e0 	ldr	w0, [sp, #32]
   81e0c:	4b0003e0 	neg	w0, w0
   81e10:	12000400 	and	w0, w0, #0x3
   81e14:	b9003fe0 	str	w0, [sp, #60]
   81e18:	b94023e1 	ldr	w1, [sp, #32]
   81e1c:	b9403fe0 	ldr	w0, [sp, #60]
   81e20:	0b000020 	add	w0, w1, w0
   81e24:	2a0003e0 	mov	w0, w0
   81e28:	f9402fe1 	ldr	x1, [sp, #88]
   81e2c:	8b000020 	add	x0, x1, x0
   81e30:	f9002fe0 	str	x0, [sp, #88]
   81e34:	14000006 	b	81e4c <fdt_traverse+0x208>
   81e38:	f9402fe0 	ldr	x0, [sp, #88]
   81e3c:	91001000 	add	x0, x0, #0x4
   81e40:	f9002fe0 	str	x0, [sp, #88]
   81e44:	14000002 	b	81e4c <fdt_traverse+0x208>
   81e48:	d503201f 	nop
   81e4c:	f9402fe0 	ldr	x0, [sp, #88]
   81e50:	f9002be0 	str	x0, [sp, #80]
   81e54:	f9402be0 	ldr	x0, [sp, #80]
   81e58:	b9400000 	ldr	w0, [x0]
   81e5c:	97fffe51 	bl	817a0 <swap32>
   81e60:	7100241f 	cmp	w0, #0x9
   81e64:	54fff3a1 	b.ne	81cd8 <fdt_traverse+0x94>  // b.any
   81e68:	d503201f 	nop
   81e6c:	d503201f 	nop
   81e70:	a8c67bfd 	ldp	x29, x30, [sp], #96
   81e74:	d65f03c0 	ret

0000000000081e78 <get_dtb_end>:
   81e78:	f0000020 	adrp	x0, 88000 <get_current+0xce8>
   81e7c:	912aa000 	add	x0, x0, #0xaa8
   81e80:	f9400000 	ldr	x0, [x0]
   81e84:	d65f03c0 	ret

0000000000081e88 <exception_entry>:
   81e88:	a9bd7bfd 	stp	x29, x30, [sp, #-48]!
   81e8c:	910003fd 	mov	x29, sp
   81e90:	d0000020 	adrp	x0, 87000 <set_exception_vector_table>
   81e94:	91174000 	add	x0, x0, #0x5d0
   81e98:	9400092b 	bl	84344 <uart_sends>
   81e9c:	d5384002 	mrs	x2, spsr_el1
   81ea0:	d5384021 	mrs	x1, elr_el1
   81ea4:	d5385200 	mrs	x0, esr_el1
   81ea8:	f90017e2 	str	x2, [sp, #40]
   81eac:	f90013e1 	str	x1, [sp, #32]
   81eb0:	f9000fe0 	str	x0, [sp, #24]
   81eb4:	d0000020 	adrp	x0, 87000 <set_exception_vector_table>
   81eb8:	9117a000 	add	x0, x0, #0x5e8
   81ebc:	94000922 	bl	84344 <uart_sends>
   81ec0:	f94017e0 	ldr	x0, [sp, #40]
   81ec4:	94000944 	bl	843d4 <uart_sendh>
   81ec8:	52800140 	mov	w0, #0xa                   	// #10
   81ecc:	94000935 	bl	843a0 <uart_sendc>
   81ed0:	d0000020 	adrp	x0, 87000 <set_exception_vector_table>
   81ed4:	9117e000 	add	x0, x0, #0x5f8
   81ed8:	9400091b 	bl	84344 <uart_sends>
   81edc:	f94013e0 	ldr	x0, [sp, #32]
   81ee0:	9400093d 	bl	843d4 <uart_sendh>
   81ee4:	52800140 	mov	w0, #0xa                   	// #10
   81ee8:	9400092e 	bl	843a0 <uart_sendc>
   81eec:	d0000020 	adrp	x0, 87000 <set_exception_vector_table>
   81ef0:	91182000 	add	x0, x0, #0x608
   81ef4:	94000914 	bl	84344 <uart_sends>
   81ef8:	f9400fe0 	ldr	x0, [sp, #24]
   81efc:	94000936 	bl	843d4 <uart_sendh>
   81f00:	52800140 	mov	w0, #0xa                   	// #10
   81f04:	94000927 	bl	843a0 <uart_sendc>
   81f08:	52800000 	mov	w0, #0x0                   	// #0
   81f0c:	a8c37bfd 	ldp	x29, x30, [sp], #48
   81f10:	d65f03c0 	ret

0000000000081f14 <lower_exception_entry>:
   81f14:	a9be7bfd 	stp	x29, x30, [sp, #-32]!
   81f18:	910003fd 	mov	x29, sp
   81f1c:	f9000fe0 	str	x0, [sp, #24]
   81f20:	f9400fe0 	ldr	x0, [sp, #24]
   81f24:	f9402000 	ldr	x0, [x0, #64]
   81f28:	f100201f 	cmp	x0, #0x8
   81f2c:	54000c40 	b.eq	820b4 <lower_exception_entry+0x1a0>  // b.none
   81f30:	f100201f 	cmp	x0, #0x8
   81f34:	54000b88 	b.hi	820a4 <lower_exception_entry+0x190>  // b.pmore
   81f38:	f1001c1f 	cmp	x0, #0x7
   81f3c:	54000ac0 	b.eq	82094 <lower_exception_entry+0x180>  // b.none
   81f40:	f1001c1f 	cmp	x0, #0x7
   81f44:	54000b08 	b.hi	820a4 <lower_exception_entry+0x190>  // b.pmore
   81f48:	f100181f 	cmp	x0, #0x6
   81f4c:	540008c0 	b.eq	82064 <lower_exception_entry+0x150>  // b.none
   81f50:	f100181f 	cmp	x0, #0x6
   81f54:	54000a88 	b.hi	820a4 <lower_exception_entry+0x190>  // b.pmore
   81f58:	f100141f 	cmp	x0, #0x5
   81f5c:	54000800 	b.eq	8205c <lower_exception_entry+0x148>  // b.none
   81f60:	f100141f 	cmp	x0, #0x5
   81f64:	54000a08 	b.hi	820a4 <lower_exception_entry+0x190>  // b.pmore
   81f68:	f100101f 	cmp	x0, #0x4
   81f6c:	54000720 	b.eq	82050 <lower_exception_entry+0x13c>  // b.none
   81f70:	f100101f 	cmp	x0, #0x4
   81f74:	54000988 	b.hi	820a4 <lower_exception_entry+0x190>  // b.pmore
   81f78:	f1000c1f 	cmp	x0, #0x3
   81f7c:	54000520 	b.eq	82020 <lower_exception_entry+0x10c>  // b.none
   81f80:	f1000c1f 	cmp	x0, #0x3
   81f84:	54000908 	b.hi	820a4 <lower_exception_entry+0x190>  // b.pmore
   81f88:	f100081f 	cmp	x0, #0x2
   81f8c:	54000320 	b.eq	81ff0 <lower_exception_entry+0xdc>  // b.none
   81f90:	f100081f 	cmp	x0, #0x2
   81f94:	54000888 	b.hi	820a4 <lower_exception_entry+0x190>  // b.pmore
   81f98:	f100001f 	cmp	x0, #0x0
   81f9c:	54000080 	b.eq	81fac <lower_exception_entry+0x98>  // b.none
   81fa0:	f100041f 	cmp	x0, #0x1
   81fa4:	540000e0 	b.eq	81fc0 <lower_exception_entry+0xac>  // b.none
   81fa8:	1400003f 	b	820a4 <lower_exception_entry+0x190>
   81fac:	94000cbe 	bl	852a4 <sys_getpid>
   81fb0:	93407c01 	sxtw	x1, w0
   81fb4:	f9400fe0 	ldr	x0, [sp, #24]
   81fb8:	f9000001 	str	x1, [x0]
   81fbc:	1400003f 	b	820b8 <lower_exception_entry+0x1a4>
   81fc0:	f9400fe0 	ldr	x0, [sp, #24]
   81fc4:	f9400000 	ldr	x0, [x0]
   81fc8:	aa0003e2 	mov	x2, x0
   81fcc:	f9400fe0 	ldr	x0, [sp, #24]
   81fd0:	f9400400 	ldr	x0, [x0, #8]
   81fd4:	aa0003e1 	mov	x1, x0
   81fd8:	aa0203e0 	mov	x0, x2
   81fdc:	94000cba 	bl	852c4 <sys_uartread>
   81fe0:	aa0003e1 	mov	x1, x0
   81fe4:	f9400fe0 	ldr	x0, [sp, #24]
   81fe8:	f9000001 	str	x1, [x0]
   81fec:	14000033 	b	820b8 <lower_exception_entry+0x1a4>
   81ff0:	f9400fe0 	ldr	x0, [sp, #24]
   81ff4:	f9400000 	ldr	x0, [x0]
   81ff8:	aa0003e2 	mov	x2, x0
   81ffc:	f9400fe0 	ldr	x0, [sp, #24]
   82000:	f9400400 	ldr	x0, [x0, #8]
   82004:	aa0003e1 	mov	x1, x0
   82008:	aa0203e0 	mov	x0, x2
   8200c:	94000cc6 	bl	85324 <sys_uartwrite>
   82010:	aa0003e1 	mov	x1, x0
   82014:	f9400fe0 	ldr	x0, [sp, #24]
   82018:	f9000001 	str	x1, [x0]
   8201c:	14000027 	b	820b8 <lower_exception_entry+0x1a4>
   82020:	f9400fe0 	ldr	x0, [sp, #24]
   82024:	f9400000 	ldr	x0, [x0]
   82028:	aa0003e2 	mov	x2, x0
   8202c:	f9400fe0 	ldr	x0, [sp, #24]
   82030:	f9400400 	ldr	x0, [x0, #8]
   82034:	aa0003e1 	mov	x1, x0
   82038:	aa0203e0 	mov	x0, x2
   8203c:	94000ccf 	bl	85378 <sys_exec>
   82040:	93407c01 	sxtw	x1, w0
   82044:	f9400fe0 	ldr	x0, [sp, #24]
   82048:	f9000001 	str	x1, [x0]
   8204c:	1400001b 	b	820b8 <lower_exception_entry+0x1a4>
   82050:	f9400fe0 	ldr	x0, [sp, #24]
   82054:	94000d09 	bl	85478 <sys_fork>
   82058:	14000018 	b	820b8 <lower_exception_entry+0x1a4>
   8205c:	94000d82 	bl	85664 <sys_exit>
   82060:	14000016 	b	820b8 <lower_exception_entry+0x1a4>
   82064:	f9400fe0 	ldr	x0, [sp, #24]
   82068:	f9400000 	ldr	x0, [x0]
   8206c:	12001c02 	and	w2, w0, #0xff
   82070:	f9400fe0 	ldr	x0, [sp, #24]
   82074:	f9400400 	ldr	x0, [x0, #8]
   82078:	aa0003e1 	mov	x1, x0
   8207c:	2a0203e0 	mov	w0, w2
   82080:	94000d70 	bl	85640 <sys_mbox_call>
   82084:	93407c01 	sxtw	x1, w0
   82088:	f9400fe0 	ldr	x0, [sp, #24]
   8208c:	f9000001 	str	x1, [x0]
   82090:	1400000a 	b	820b8 <lower_exception_entry+0x1a4>
   82094:	f9400fe0 	ldr	x0, [sp, #24]
   82098:	f9400000 	ldr	x0, [x0]
   8209c:	94000d79 	bl	85680 <sys_kill>
   820a0:	14000006 	b	820b8 <lower_exception_entry+0x1a4>
   820a4:	b0000020 	adrp	x0, 87000 <set_exception_vector_table>
   820a8:	91186000 	add	x0, x0, #0x618
   820ac:	940008a6 	bl	84344 <uart_sends>
   820b0:	14000002 	b	820b8 <lower_exception_entry+0x1a4>
   820b4:	d503201f 	nop
   820b8:	52800000 	mov	w0, #0x0                   	// #0
   820bc:	a8c27bfd 	ldp	x29, x30, [sp], #32
   820c0:	d65f03c0 	ret

00000000000820c4 <heap_init>:
   820c4:	d10043ff 	sub	sp, sp, #0x10
   820c8:	d0000020 	adrp	x0, 88000 <get_current+0xce8>
   820cc:	f944bc00 	ldr	x0, [x0, #2424]
   820d0:	91080000 	add	x0, x0, #0x200
   820d4:	915e8400 	add	x0, x0, #0x7a1, lsl #12
   820d8:	92402c00 	and	x0, x0, #0xfff
   820dc:	d2844001 	mov	x1, #0x2200                	// #8704
   820e0:	f2a00f41 	movk	x1, #0x7a, lsl #16
   820e4:	cb000020 	sub	x0, x1, x0
   820e8:	f90007e0 	str	x0, [sp, #8]
   820ec:	f94007e0 	ldr	x0, [sp, #8]
   820f0:	d1000401 	sub	x1, x0, #0x1
   820f4:	d0000020 	adrp	x0, 88000 <get_current+0xce8>
   820f8:	f944bc00 	ldr	x0, [x0, #2424]
   820fc:	8b000021 	add	x1, x1, x0
   82100:	d0000020 	adrp	x0, 88000 <get_current+0xce8>
   82104:	912ac000 	add	x0, x0, #0xab0
   82108:	f9000001 	str	x1, [x0]
   8210c:	d503201f 	nop
   82110:	910043ff 	add	sp, sp, #0x10
   82114:	d65f03c0 	ret

0000000000082118 <simple_malloc>:
   82118:	d10083ff 	sub	sp, sp, #0x20
   8211c:	b9000fe0 	str	w0, [sp, #12]
   82120:	d0000020 	adrp	x0, 88000 <get_current+0xce8>
   82124:	912ae000 	add	x0, x0, #0xab8
   82128:	f9400000 	ldr	x0, [x0]
   8212c:	f100001f 	cmp	x0, #0x0
   82130:	540000c1 	b.ne	82148 <simple_malloc+0x30>  // b.any
   82134:	d0000020 	adrp	x0, 88000 <get_current+0xce8>
   82138:	912ae000 	add	x0, x0, #0xab8
   8213c:	d0000021 	adrp	x1, 88000 <get_current+0xce8>
   82140:	f944bc21 	ldr	x1, [x1, #2424]
   82144:	f9000001 	str	x1, [x0]
   82148:	d0000020 	adrp	x0, 88000 <get_current+0xce8>
   8214c:	912ae000 	add	x0, x0, #0xab8
   82150:	f9400000 	ldr	x0, [x0]
   82154:	f9000fe0 	str	x0, [sp, #24]
   82158:	d0000020 	adrp	x0, 88000 <get_current+0xce8>
   8215c:	912ae000 	add	x0, x0, #0xab8
   82160:	f9400001 	ldr	x1, [x0]
   82164:	b9800fe0 	ldrsw	x0, [sp, #12]
   82168:	8b000021 	add	x1, x1, x0
   8216c:	d0000020 	adrp	x0, 88000 <get_current+0xce8>
   82170:	912ac000 	add	x0, x0, #0xab0
   82174:	f9400000 	ldr	x0, [x0]
   82178:	eb00003f 	cmp	x1, x0
   8217c:	54000069 	b.ls	82188 <simple_malloc+0x70>  // b.plast
   82180:	d2800000 	mov	x0, #0x0                   	// #0
   82184:	1400000a 	b	821ac <simple_malloc+0x94>
   82188:	d0000020 	adrp	x0, 88000 <get_current+0xce8>
   8218c:	912ae000 	add	x0, x0, #0xab8
   82190:	f9400001 	ldr	x1, [x0]
   82194:	b9800fe0 	ldrsw	x0, [sp, #12]
   82198:	8b000021 	add	x1, x1, x0
   8219c:	d0000020 	adrp	x0, 88000 <get_current+0xce8>
   821a0:	912ae000 	add	x0, x0, #0xab8
   821a4:	f9000001 	str	x1, [x0]
   821a8:	f9400fe0 	ldr	x0, [sp, #24]
   821ac:	910083ff 	add	sp, sp, #0x20
   821b0:	d65f03c0 	ret

00000000000821b4 <initrd_list>:
   821b4:	a9ac7bfd 	stp	x29, x30, [sp, #-320]!
   821b8:	910003fd 	mov	x29, sp
   821bc:	d0000020 	adrp	x0, 88000 <get_current+0xce8>
   821c0:	912b0000 	add	x0, x0, #0xac0
   821c4:	f9400000 	ldr	x0, [x0]
   821c8:	f9009fe0 	str	x0, [sp, #312]
   821cc:	14000037 	b	822a8 <initrd_list+0xf4>
   821d0:	f9409fe0 	ldr	x0, [sp, #312]
   821d4:	f90097e0 	str	x0, [sp, #296]
   821d8:	f94097e0 	ldr	x0, [sp, #296]
   821dc:	9100d800 	add	x0, x0, #0x36
   821e0:	52800101 	mov	w1, #0x8                   	// #8
   821e4:	94000b9b 	bl	85050 <hstr2int>
   821e8:	b90127e0 	str	w0, [sp, #292]
   821ec:	f94097e0 	ldr	x0, [sp, #296]
   821f0:	91017800 	add	x0, x0, #0x5e
   821f4:	52800101 	mov	w1, #0x8                   	// #8
   821f8:	94000b96 	bl	85050 <hstr2int>
   821fc:	b90123e0 	str	w0, [sp, #288]
   82200:	b94127e1 	ldr	w1, [sp, #292]
   82204:	b94123e0 	ldr	w0, [sp, #288]
   82208:	0b000020 	add	w0, w1, w0
   8220c:	2a0003e1 	mov	w1, w0
   82210:	12800da0 	mov	w0, #0xffffff92            	// #-110
   82214:	4b010000 	sub	w0, w0, w1
   82218:	12000400 	and	w0, w0, #0x3
   8221c:	b9011fe0 	str	w0, [sp, #284]
   82220:	b90137ff 	str	wzr, [sp, #308]
   82224:	1400000c 	b	82254 <initrd_list+0xa0>
   82228:	b98137e0 	ldrsw	x0, [sp, #308]
   8222c:	9101b800 	add	x0, x0, #0x6e
   82230:	f9409fe1 	ldr	x1, [sp, #312]
   82234:	8b000020 	add	x0, x1, x0
   82238:	39400002 	ldrb	w2, [x0]
   8223c:	b98137e0 	ldrsw	x0, [sp, #308]
   82240:	910063e1 	add	x1, sp, #0x18
   82244:	38206822 	strb	w2, [x1, x0]
   82248:	b94137e0 	ldr	w0, [sp, #308]
   8224c:	11000400 	add	w0, w0, #0x1
   82250:	b90137e0 	str	w0, [sp, #308]
   82254:	b94137e1 	ldr	w1, [sp, #308]
   82258:	b94123e0 	ldr	w0, [sp, #288]
   8225c:	6b00003f 	cmp	w1, w0
   82260:	54fffe4b 	b.lt	82228 <initrd_list+0x74>  // b.tstop
   82264:	b98123e0 	ldrsw	x0, [sp, #288]
   82268:	910063e1 	add	x1, sp, #0x18
   8226c:	3820683f 	strb	wzr, [x1, x0]
   82270:	910063e0 	add	x0, sp, #0x18
   82274:	94000834 	bl	84344 <uart_sends>
   82278:	52800140 	mov	w0, #0xa                   	// #10
   8227c:	94000849 	bl	843a0 <uart_sendc>
   82280:	b94127e1 	ldr	w1, [sp, #292]
   82284:	b94123e0 	ldr	w0, [sp, #288]
   82288:	0b000020 	add	w0, w1, w0
   8228c:	93407c01 	sxtw	x1, w0
   82290:	b9811fe0 	ldrsw	x0, [sp, #284]
   82294:	8b000020 	add	x0, x1, x0
   82298:	9101b800 	add	x0, x0, #0x6e
   8229c:	f9409fe1 	ldr	x1, [sp, #312]
   822a0:	8b000020 	add	x0, x1, x0
   822a4:	f9009fe0 	str	x0, [sp, #312]
   822a8:	528000c2 	mov	w2, #0x6                   	// #6
   822ac:	b0000020 	adrp	x0, 87000 <set_exception_vector_table>
   822b0:	9118c001 	add	x1, x0, #0x630
   822b4:	f9409fe0 	ldr	x0, [sp, #312]
   822b8:	94000b22 	bl	84f40 <memcmp>
   822bc:	7100001f 	cmp	w0, #0x0
   822c0:	54000141 	b.ne	822e8 <initrd_list+0x134>  // b.any
   822c4:	f9409fe0 	ldr	x0, [sp, #312]
   822c8:	9101b803 	add	x3, x0, #0x6e
   822cc:	52800142 	mov	w2, #0xa                   	// #10
   822d0:	b0000020 	adrp	x0, 87000 <set_exception_vector_table>
   822d4:	9118e001 	add	x1, x0, #0x638
   822d8:	aa0303e0 	mov	x0, x3
   822dc:	94000b19 	bl	84f40 <memcmp>
   822e0:	7100001f 	cmp	w0, #0x0
   822e4:	54fff761 	b.ne	821d0 <initrd_list+0x1c>  // b.any
   822e8:	d503201f 	nop
   822ec:	a8d47bfd 	ldp	x29, x30, [sp], #320
   822f0:	d65f03c0 	ret

00000000000822f4 <initrd_cat>:
   822f4:	a9bb7bfd 	stp	x29, x30, [sp, #-80]!
   822f8:	910003fd 	mov	x29, sp
   822fc:	f9000fe0 	str	x0, [sp, #24]
   82300:	d0000020 	adrp	x0, 88000 <get_current+0xce8>
   82304:	912b0000 	add	x0, x0, #0xac0
   82308:	f9400000 	ldr	x0, [x0]
   8230c:	f90027e0 	str	x0, [sp, #72]
   82310:	14000047 	b	8242c <initrd_cat+0x138>
   82314:	f94027e0 	ldr	x0, [sp, #72]
   82318:	f9001fe0 	str	x0, [sp, #56]
   8231c:	f9401fe0 	ldr	x0, [sp, #56]
   82320:	9100d800 	add	x0, x0, #0x36
   82324:	52800101 	mov	w1, #0x8                   	// #8
   82328:	94000b4a 	bl	85050 <hstr2int>
   8232c:	b90037e0 	str	w0, [sp, #52]
   82330:	f9401fe0 	ldr	x0, [sp, #56]
   82334:	91017800 	add	x0, x0, #0x5e
   82338:	52800101 	mov	w1, #0x8                   	// #8
   8233c:	94000b45 	bl	85050 <hstr2int>
   82340:	b90033e0 	str	w0, [sp, #48]
   82344:	b94033e0 	ldr	w0, [sp, #48]
   82348:	12800da1 	mov	w1, #0xffffff92            	// #-110
   8234c:	4b000020 	sub	w0, w1, w0
   82350:	12000400 	and	w0, w0, #0x3
   82354:	b9002fe0 	str	w0, [sp, #44]
   82358:	b94037e0 	ldr	w0, [sp, #52]
   8235c:	6b0003e1 	negs	w1, w0
   82360:	12000400 	and	w0, w0, #0x3
   82364:	12000421 	and	w1, w1, #0x3
   82368:	5a814400 	csneg	w0, w0, w1, mi  // mi = first
   8236c:	52800081 	mov	w1, #0x4                   	// #4
   82370:	4b000020 	sub	w0, w1, w0
   82374:	6b0003e1 	negs	w1, w0
   82378:	12000400 	and	w0, w0, #0x3
   8237c:	12000421 	and	w1, w1, #0x3
   82380:	5a814400 	csneg	w0, w0, w1, mi  // mi = first
   82384:	b9002be0 	str	w0, [sp, #40]
   82388:	f94027e0 	ldr	x0, [sp, #72]
   8238c:	9101b800 	add	x0, x0, #0x6e
   82390:	aa0003e1 	mov	x1, x0
   82394:	f9400fe0 	ldr	x0, [sp, #24]
   82398:	94000a4b 	bl	84cc4 <strcmp>
   8239c:	7100001f 	cmp	w0, #0x0
   823a0:	540002e1 	b.ne	823fc <initrd_cat+0x108>  // b.any
   823a4:	b90047ff 	str	wzr, [sp, #68]
   823a8:	1400000e 	b	823e0 <initrd_cat+0xec>
   823ac:	b98033e1 	ldrsw	x1, [sp, #48]
   823b0:	b9802fe0 	ldrsw	x0, [sp, #44]
   823b4:	8b000021 	add	x1, x1, x0
   823b8:	b98047e0 	ldrsw	x0, [sp, #68]
   823bc:	8b000020 	add	x0, x1, x0
   823c0:	9101b800 	add	x0, x0, #0x6e
   823c4:	f94027e1 	ldr	x1, [sp, #72]
   823c8:	8b000020 	add	x0, x1, x0
   823cc:	39400000 	ldrb	w0, [x0]
   823d0:	940007f4 	bl	843a0 <uart_sendc>
   823d4:	b94047e0 	ldr	w0, [sp, #68]
   823d8:	11000400 	add	w0, w0, #0x1
   823dc:	b90047e0 	str	w0, [sp, #68]
   823e0:	b94047e1 	ldr	w1, [sp, #68]
   823e4:	b94037e0 	ldr	w0, [sp, #52]
   823e8:	6b00003f 	cmp	w1, w0
   823ec:	54fffe0b 	b.lt	823ac <initrd_cat+0xb8>  // b.tstop
   823f0:	52800140 	mov	w0, #0xa                   	// #10
   823f4:	940007eb 	bl	843a0 <uart_sendc>
   823f8:	14000025 	b	8248c <initrd_cat+0x198>
   823fc:	b94037e1 	ldr	w1, [sp, #52]
   82400:	b94033e0 	ldr	w0, [sp, #48]
   82404:	0b000020 	add	w0, w1, w0
   82408:	93407c01 	sxtw	x1, w0
   8240c:	b9802fe0 	ldrsw	x0, [sp, #44]
   82410:	8b000021 	add	x1, x1, x0
   82414:	b9802be0 	ldrsw	x0, [sp, #40]
   82418:	8b000020 	add	x0, x1, x0
   8241c:	9101b800 	add	x0, x0, #0x6e
   82420:	f94027e1 	ldr	x1, [sp, #72]
   82424:	8b000020 	add	x0, x1, x0
   82428:	f90027e0 	str	x0, [sp, #72]
   8242c:	528000c2 	mov	w2, #0x6                   	// #6
   82430:	b0000020 	adrp	x0, 87000 <set_exception_vector_table>
   82434:	9118c001 	add	x1, x0, #0x630
   82438:	f94027e0 	ldr	x0, [sp, #72]
   8243c:	94000ac1 	bl	84f40 <memcmp>
   82440:	7100001f 	cmp	w0, #0x0
   82444:	54000141 	b.ne	8246c <initrd_cat+0x178>  // b.any
   82448:	f94027e0 	ldr	x0, [sp, #72]
   8244c:	9101b803 	add	x3, x0, #0x6e
   82450:	52800142 	mov	w2, #0xa                   	// #10
   82454:	b0000020 	adrp	x0, 87000 <set_exception_vector_table>
   82458:	9118e001 	add	x1, x0, #0x638
   8245c:	aa0303e0 	mov	x0, x3
   82460:	94000ab8 	bl	84f40 <memcmp>
   82464:	7100001f 	cmp	w0, #0x0
   82468:	54fff561 	b.ne	82314 <initrd_cat+0x20>  // b.any
   8246c:	b0000020 	adrp	x0, 87000 <set_exception_vector_table>
   82470:	91192000 	add	x0, x0, #0x648
   82474:	940007b4 	bl	84344 <uart_sends>
   82478:	f9400fe0 	ldr	x0, [sp, #24]
   8247c:	940007b2 	bl	84344 <uart_sends>
   82480:	b0000020 	adrp	x0, 87000 <set_exception_vector_table>
   82484:	91194000 	add	x0, x0, #0x650
   82488:	940007af 	bl	84344 <uart_sends>
   8248c:	a8c57bfd 	ldp	x29, x30, [sp], #80
   82490:	d65f03c0 	ret

0000000000082494 <initramfs_callback>:
   82494:	a9bd7bfd 	stp	x29, x30, [sp, #-48]!
   82498:	910003fd 	mov	x29, sp
   8249c:	f9000fe0 	str	x0, [sp, #24]
   824a0:	f9000be1 	str	x1, [sp, #16]
   824a4:	b0000020 	adrp	x0, 87000 <set_exception_vector_table>
   824a8:	9119c001 	add	x1, x0, #0x670
   824ac:	f9400be0 	ldr	x0, [sp, #16]
   824b0:	94000a05 	bl	84cc4 <strcmp>
   824b4:	7100001f 	cmp	w0, #0x0
   824b8:	54000161 	b.ne	824e4 <initramfs_callback+0x50>  // b.any
   824bc:	f9400fe0 	ldr	x0, [sp, #24]
   824c0:	b9400000 	ldr	w0, [x0]
   824c4:	b9002fe0 	str	w0, [sp, #44]
   824c8:	b9402fe0 	ldr	w0, [sp, #44]
   824cc:	97fffcb5 	bl	817a0 <swap32>
   824d0:	2a0003e0 	mov	w0, w0
   824d4:	aa0003e1 	mov	x1, x0
   824d8:	d0000020 	adrp	x0, 88000 <get_current+0xce8>
   824dc:	912b0000 	add	x0, x0, #0xac0
   824e0:	f9000001 	str	x1, [x0]
   824e4:	b0000020 	adrp	x0, 87000 <set_exception_vector_table>
   824e8:	911a2001 	add	x1, x0, #0x688
   824ec:	f9400be0 	ldr	x0, [sp, #16]
   824f0:	940009f5 	bl	84cc4 <strcmp>
   824f4:	7100001f 	cmp	w0, #0x0
   824f8:	54000161 	b.ne	82524 <initramfs_callback+0x90>  // b.any
   824fc:	f9400fe0 	ldr	x0, [sp, #24]
   82500:	b9400000 	ldr	w0, [x0]
   82504:	b9002be0 	str	w0, [sp, #40]
   82508:	b9402be0 	ldr	w0, [sp, #40]
   8250c:	97fffca5 	bl	817a0 <swap32>
   82510:	2a0003e0 	mov	w0, w0
   82514:	aa0003e1 	mov	x1, x0
   82518:	d0000020 	adrp	x0, 88000 <get_current+0xce8>
   8251c:	912b2000 	add	x0, x0, #0xac8
   82520:	f9000001 	str	x1, [x0]
   82524:	d503201f 	nop
   82528:	a8c37bfd 	ldp	x29, x30, [sp], #48
   8252c:	d65f03c0 	ret

0000000000082530 <fetch_exec>:
   82530:	a9bc7bfd 	stp	x29, x30, [sp, #-64]!
   82534:	910003fd 	mov	x29, sp
   82538:	f9000fe0 	str	x0, [sp, #24]
   8253c:	d0000020 	adrp	x0, 88000 <get_current+0xce8>
   82540:	912b0000 	add	x0, x0, #0xac0
   82544:	f9400000 	ldr	x0, [x0]
   82548:	f9001fe0 	str	x0, [sp, #56]
   8254c:	1400003c 	b	8263c <fetch_exec+0x10c>
   82550:	f9401fe0 	ldr	x0, [sp, #56]
   82554:	f9001be0 	str	x0, [sp, #48]
   82558:	f9401be0 	ldr	x0, [sp, #48]
   8255c:	9100d800 	add	x0, x0, #0x36
   82560:	52800101 	mov	w1, #0x8                   	// #8
   82564:	94000abb 	bl	85050 <hstr2int>
   82568:	b9002fe0 	str	w0, [sp, #44]
   8256c:	f9401be0 	ldr	x0, [sp, #48]
   82570:	91017800 	add	x0, x0, #0x5e
   82574:	52800101 	mov	w1, #0x8                   	// #8
   82578:	94000ab6 	bl	85050 <hstr2int>
   8257c:	b9002be0 	str	w0, [sp, #40]
   82580:	b9402be0 	ldr	w0, [sp, #40]
   82584:	12800da1 	mov	w1, #0xffffff92            	// #-110
   82588:	4b000020 	sub	w0, w1, w0
   8258c:	12000400 	and	w0, w0, #0x3
   82590:	b90027e0 	str	w0, [sp, #36]
   82594:	b9402fe0 	ldr	w0, [sp, #44]
   82598:	6b0003e1 	negs	w1, w0
   8259c:	12000400 	and	w0, w0, #0x3
   825a0:	12000421 	and	w1, w1, #0x3
   825a4:	5a814400 	csneg	w0, w0, w1, mi  // mi = first
   825a8:	52800081 	mov	w1, #0x4                   	// #4
   825ac:	4b000020 	sub	w0, w1, w0
   825b0:	6b0003e1 	negs	w1, w0
   825b4:	12000400 	and	w0, w0, #0x3
   825b8:	12000421 	and	w1, w1, #0x3
   825bc:	5a814400 	csneg	w0, w0, w1, mi  // mi = first
   825c0:	b90023e0 	str	w0, [sp, #32]
   825c4:	f9401fe0 	ldr	x0, [sp, #56]
   825c8:	9101b800 	add	x0, x0, #0x6e
   825cc:	aa0003e1 	mov	x1, x0
   825d0:	f9400fe0 	ldr	x0, [sp, #24]
   825d4:	940009bc 	bl	84cc4 <strcmp>
   825d8:	7100001f 	cmp	w0, #0x0
   825dc:	54000181 	b.ne	8260c <fetch_exec+0xdc>  // b.any
   825e0:	d0000020 	adrp	x0, 88000 <get_current+0xce8>
   825e4:	912b4000 	add	x0, x0, #0xad0
   825e8:	b9402fe1 	ldr	w1, [sp, #44]
   825ec:	b9000001 	str	w1, [x0]
   825f0:	b9802be1 	ldrsw	x1, [sp, #40]
   825f4:	b98027e0 	ldrsw	x0, [sp, #36]
   825f8:	8b000020 	add	x0, x1, x0
   825fc:	9101b800 	add	x0, x0, #0x6e
   82600:	f9401fe1 	ldr	x1, [sp, #56]
   82604:	8b000020 	add	x0, x1, x0
   82608:	1400001e 	b	82680 <fetch_exec+0x150>
   8260c:	b9402fe1 	ldr	w1, [sp, #44]
   82610:	b9402be0 	ldr	w0, [sp, #40]
   82614:	0b000020 	add	w0, w1, w0
   82618:	93407c01 	sxtw	x1, w0
   8261c:	b98027e0 	ldrsw	x0, [sp, #36]
   82620:	8b000021 	add	x1, x1, x0
   82624:	b98023e0 	ldrsw	x0, [sp, #32]
   82628:	8b000020 	add	x0, x1, x0
   8262c:	9101b800 	add	x0, x0, #0x6e
   82630:	f9401fe1 	ldr	x1, [sp, #56]
   82634:	8b000020 	add	x0, x1, x0
   82638:	f9001fe0 	str	x0, [sp, #56]
   8263c:	528000c2 	mov	w2, #0x6                   	// #6
   82640:	b0000020 	adrp	x0, 87000 <set_exception_vector_table>
   82644:	9118c001 	add	x1, x0, #0x630
   82648:	f9401fe0 	ldr	x0, [sp, #56]
   8264c:	94000a3d 	bl	84f40 <memcmp>
   82650:	7100001f 	cmp	w0, #0x0
   82654:	54000141 	b.ne	8267c <fetch_exec+0x14c>  // b.any
   82658:	f9401fe0 	ldr	x0, [sp, #56]
   8265c:	9101b803 	add	x3, x0, #0x6e
   82660:	52800142 	mov	w2, #0xa                   	// #10
   82664:	b0000020 	adrp	x0, 87000 <set_exception_vector_table>
   82668:	9118e001 	add	x1, x0, #0x638
   8266c:	aa0303e0 	mov	x0, x3
   82670:	94000a34 	bl	84f40 <memcmp>
   82674:	7100001f 	cmp	w0, #0x0
   82678:	54fff6c1 	b.ne	82550 <fetch_exec+0x20>  // b.any
   8267c:	d2800000 	mov	x0, #0x0                   	// #0
   82680:	a8c47bfd 	ldp	x29, x30, [sp], #64
   82684:	d65f03c0 	ret

0000000000082688 <get_initrd_start>:
   82688:	d0000020 	adrp	x0, 88000 <get_current+0xce8>
   8268c:	912b0000 	add	x0, x0, #0xac0
   82690:	f9400000 	ldr	x0, [x0]
   82694:	d65f03c0 	ret

0000000000082698 <get_initrd_end>:
   82698:	d0000020 	adrp	x0, 88000 <get_current+0xce8>
   8269c:	912b2000 	add	x0, x0, #0xac8
   826a0:	f9400000 	ldr	x0, [x0]
   826a4:	d65f03c0 	ret

00000000000826a8 <get_exec_size>:
   826a8:	d0000020 	adrp	x0, 88000 <get_current+0xce8>
   826ac:	912b4000 	add	x0, x0, #0xad0
   826b0:	b9400000 	ldr	w0, [x0]
   826b4:	d65f03c0 	ret

00000000000826b8 <add_irq_task>:
   826b8:	a9bc7bfd 	stp	x29, x30, [sp, #-64]!
   826bc:	910003fd 	mov	x29, sp
   826c0:	f9000fe0 	str	x0, [sp, #24]
   826c4:	f9000be1 	str	x1, [sp, #16]
   826c8:	52800300 	mov	w0, #0x18                  	// #24
   826cc:	94000664 	bl	8405c <kmalloc>
   826d0:	f90017e0 	str	x0, [sp, #40]
   826d4:	f94017e0 	ldr	x0, [sp, #40]
   826d8:	f100001f 	cmp	x0, #0x0
   826dc:	540000c1 	b.ne	826f4 <add_irq_task+0x3c>  // b.any
   826e0:	b0000020 	adrp	x0, 87000 <set_exception_vector_table>
   826e4:	911a8000 	add	x0, x0, #0x6a0
   826e8:	94000717 	bl	84344 <uart_sends>
   826ec:	12800000 	mov	w0, #0xffffffff            	// #-1
   826f0:	14000032 	b	827b8 <add_irq_task+0x100>
   826f4:	f9400be0 	ldr	x0, [sp, #16]
   826f8:	2a0003e1 	mov	w1, w0
   826fc:	f94017e0 	ldr	x0, [sp, #40]
   82700:	b9000001 	str	w1, [x0]
   82704:	f94017e0 	ldr	x0, [sp, #40]
   82708:	f9400fe1 	ldr	x1, [sp, #24]
   8270c:	f9000401 	str	x1, [x0, #8]
   82710:	f94017e0 	ldr	x0, [sp, #40]
   82714:	f900081f 	str	xzr, [x0, #16]
   82718:	d0000020 	adrp	x0, 88000 <get_current+0xce8>
   8271c:	912b6000 	add	x0, x0, #0xad8
   82720:	f9400000 	ldr	x0, [x0]
   82724:	f9001fe0 	str	x0, [sp, #56]
   82728:	f9001bff 	str	xzr, [sp, #48]
   8272c:	14000006 	b	82744 <add_irq_task+0x8c>
   82730:	f9401fe0 	ldr	x0, [sp, #56]
   82734:	f9001be0 	str	x0, [sp, #48]
   82738:	f9401fe0 	ldr	x0, [sp, #56]
   8273c:	f9400800 	ldr	x0, [x0, #16]
   82740:	f9001fe0 	str	x0, [sp, #56]
   82744:	f9401fe0 	ldr	x0, [sp, #56]
   82748:	f100001f 	cmp	x0, #0x0
   8274c:	540000e0 	b.eq	82768 <add_irq_task+0xb0>  // b.none
   82750:	f94017e0 	ldr	x0, [sp, #40]
   82754:	b9400001 	ldr	w1, [x0]
   82758:	f9401fe0 	ldr	x0, [sp, #56]
   8275c:	b9400000 	ldr	w0, [x0]
   82760:	6b00003f 	cmp	w1, w0
   82764:	54fffe69 	b.ls	82730 <add_irq_task+0x78>  // b.plast
   82768:	f9401be0 	ldr	x0, [sp, #48]
   8276c:	f100001f 	cmp	x0, #0x0
   82770:	54000161 	b.ne	8279c <add_irq_task+0xe4>  // b.any
   82774:	d0000020 	adrp	x0, 88000 <get_current+0xce8>
   82778:	912b6000 	add	x0, x0, #0xad8
   8277c:	f9400001 	ldr	x1, [x0]
   82780:	f94017e0 	ldr	x0, [sp, #40]
   82784:	f9000801 	str	x1, [x0, #16]
   82788:	d0000020 	adrp	x0, 88000 <get_current+0xce8>
   8278c:	912b6000 	add	x0, x0, #0xad8
   82790:	f94017e1 	ldr	x1, [sp, #40]
   82794:	f9000001 	str	x1, [x0]
   82798:	14000007 	b	827b4 <add_irq_task+0xfc>
   8279c:	f9401be0 	ldr	x0, [sp, #48]
   827a0:	f94017e1 	ldr	x1, [sp, #40]
   827a4:	f9000801 	str	x1, [x0, #16]
   827a8:	f94017e0 	ldr	x0, [sp, #40]
   827ac:	f9401fe1 	ldr	x1, [sp, #56]
   827b0:	f9000801 	str	x1, [x0, #16]
   827b4:	52800000 	mov	w0, #0x0                   	// #0
   827b8:	a8c47bfd 	ldp	x29, x30, [sp], #64
   827bc:	d65f03c0 	ret

00000000000827c0 <irq_test>:
   827c0:	a9bf7bfd 	stp	x29, x30, [sp, #-16]!
   827c4:	910003fd 	mov	x29, sp
   827c8:	d0000020 	adrp	x0, 88000 <get_current+0xce8>
   827cc:	912b8000 	add	x0, x0, #0xae0
   827d0:	b9400000 	ldr	w0, [x0]
   827d4:	7100081f 	cmp	w0, #0x2
   827d8:	540001ac 	b.gt	8280c <irq_test+0x4c>
   827dc:	92800001 	mov	x1, #0xffffffffffffffff    	// #-1
   827e0:	b0000020 	adrp	x0, 87000 <set_exception_vector_table>
   827e4:	911ac000 	add	x0, x0, #0x6b0
   827e8:	94000e1f 	bl	86064 <set_timeout>
   827ec:	d0000020 	adrp	x0, 88000 <get_current+0xce8>
   827f0:	912b8000 	add	x0, x0, #0xae0
   827f4:	b9400000 	ldr	w0, [x0]
   827f8:	11000401 	add	w1, w0, #0x1
   827fc:	d0000020 	adrp	x0, 88000 <get_current+0xce8>
   82800:	912b8000 	add	x0, x0, #0xae0
   82804:	b9000001 	str	w1, [x0]
   82808:	d503201f 	nop
   8280c:	d503201f 	nop
   82810:	a8c17bfd 	ldp	x29, x30, [sp], #16
   82814:	d65f03c0 	ret

0000000000082818 <exec_task>:
   82818:	a9bc7bfd 	stp	x29, x30, [sp, #-64]!
   8281c:	910003fd 	mov	x29, sp
   82820:	b9001fe0 	str	w0, [sp, #28]
   82824:	d0000020 	adrp	x0, 88000 <get_current+0xce8>
   82828:	912b9000 	add	x0, x0, #0xae4
   8282c:	b9400000 	ldr	w0, [x0]
   82830:	b9003fe0 	str	w0, [sp, #60]
   82834:	d0000020 	adrp	x0, 88000 <get_current+0xce8>
   82838:	912b9000 	add	x0, x0, #0xae4
   8283c:	b9400000 	ldr	w0, [x0]
   82840:	7100001f 	cmp	w0, #0x0
   82844:	54000760 	b.eq	82930 <exec_task+0x118>  // b.none
   82848:	d0000020 	adrp	x0, 88000 <get_current+0xce8>
   8284c:	912b9000 	add	x0, x0, #0xae4
   82850:	b9400000 	ldr	w0, [x0]
   82854:	b9401fe1 	ldr	w1, [sp, #28]
   82858:	6b00003f 	cmp	w1, w0
   8285c:	5400036d 	b.le	828c8 <exec_task+0xb0>
   82860:	9400009f 	bl	82adc <disable_irq>
   82864:	d0000020 	adrp	x0, 88000 <get_current+0xce8>
   82868:	912b6000 	add	x0, x0, #0xad8
   8286c:	f9400000 	ldr	x0, [x0]
   82870:	f90017e0 	str	x0, [sp, #40]
   82874:	f94017e0 	ldr	x0, [sp, #40]
   82878:	b9400000 	ldr	w0, [x0]
   8287c:	2a0003e1 	mov	w1, w0
   82880:	d0000020 	adrp	x0, 88000 <get_current+0xce8>
   82884:	912b9000 	add	x0, x0, #0xae4
   82888:	b9000001 	str	w1, [x0]
   8288c:	d0000020 	adrp	x0, 88000 <get_current+0xce8>
   82890:	912b6000 	add	x0, x0, #0xad8
   82894:	f9400000 	ldr	x0, [x0]
   82898:	f9400801 	ldr	x1, [x0, #16]
   8289c:	d0000020 	adrp	x0, 88000 <get_current+0xce8>
   828a0:	912b6000 	add	x0, x0, #0xad8
   828a4:	f9000001 	str	x1, [x0]
   828a8:	94000086 	bl	82ac0 <enable_irq>
   828ac:	f94017e0 	ldr	x0, [sp, #40]
   828b0:	f9400400 	ldr	x0, [x0, #8]
   828b4:	d63f0000 	blr	x0
   828b8:	d0000020 	adrp	x0, 88000 <get_current+0xce8>
   828bc:	912b9000 	add	x0, x0, #0xae4
   828c0:	b9403fe1 	ldr	w1, [sp, #60]
   828c4:	b9000001 	str	w1, [x0]
   828c8:	52800000 	mov	w0, #0x0                   	// #0
   828cc:	14000022 	b	82954 <exec_task+0x13c>
   828d0:	94000083 	bl	82adc <disable_irq>
   828d4:	d0000020 	adrp	x0, 88000 <get_current+0xce8>
   828d8:	912b6000 	add	x0, x0, #0xad8
   828dc:	f9400000 	ldr	x0, [x0]
   828e0:	f9001be0 	str	x0, [sp, #48]
   828e4:	f9401be0 	ldr	x0, [sp, #48]
   828e8:	b9400000 	ldr	w0, [x0]
   828ec:	2a0003e1 	mov	w1, w0
   828f0:	d0000020 	adrp	x0, 88000 <get_current+0xce8>
   828f4:	912b9000 	add	x0, x0, #0xae4
   828f8:	b9000001 	str	w1, [x0]
   828fc:	d0000020 	adrp	x0, 88000 <get_current+0xce8>
   82900:	912b6000 	add	x0, x0, #0xad8
   82904:	f9400000 	ldr	x0, [x0]
   82908:	f9400801 	ldr	x1, [x0, #16]
   8290c:	d0000020 	adrp	x0, 88000 <get_current+0xce8>
   82910:	912b6000 	add	x0, x0, #0xad8
   82914:	f9000001 	str	x1, [x0]
   82918:	9400006a 	bl	82ac0 <enable_irq>
   8291c:	f9401be0 	ldr	x0, [sp, #48]
   82920:	f9400400 	ldr	x0, [x0, #8]
   82924:	d63f0000 	blr	x0
   82928:	f9401be0 	ldr	x0, [sp, #48]
   8292c:	940005ea 	bl	840d4 <kfree>
   82930:	d0000020 	adrp	x0, 88000 <get_current+0xce8>
   82934:	912b6000 	add	x0, x0, #0xad8
   82938:	f9400000 	ldr	x0, [x0]
   8293c:	f100001f 	cmp	x0, #0x0
   82940:	54fffc81 	b.ne	828d0 <exec_task+0xb8>  // b.any
   82944:	d0000020 	adrp	x0, 88000 <get_current+0xce8>
   82948:	912b9000 	add	x0, x0, #0xae4
   8294c:	b900001f 	str	wzr, [x0]
   82950:	52800000 	mov	w0, #0x0                   	// #0
   82954:	a8c47bfd 	ldp	x29, x30, [sp], #64
   82958:	d65f03c0 	ret

000000000008295c <irq_entry>:
   8295c:	a9be7bfd 	stp	x29, x30, [sp, #-32]!
   82960:	910003fd 	mov	x29, sp
   82964:	9400005e 	bl	82adc <disable_irq>
   82968:	b9001fff 	str	wzr, [sp, #28]
   8296c:	d2964080 	mov	x0, #0xb204                	// #45572
   82970:	f2a7e000 	movk	x0, #0x3f00, lsl #16
   82974:	b9400000 	ldr	w0, [x0]
   82978:	12030000 	and	w0, w0, #0x20000000
   8297c:	7100001f 	cmp	w0, #0x0
   82980:	54000080 	b.eq	82990 <irq_entry+0x34>  // b.none
   82984:	940000a0 	bl	82c04 <mini_uart_irq_handler>
   82988:	b9001fe0 	str	w0, [sp, #28]
   8298c:	14000010 	b	829cc <irq_entry+0x70>
   82990:	d2800c00 	mov	x0, #0x60                  	// #96
   82994:	f2a80000 	movk	x0, #0x4000, lsl #16
   82998:	b9400000 	ldr	w0, [x0]
   8299c:	121f0000 	and	w0, w0, #0x2
   829a0:	7100001f 	cmp	w0, #0x0
   829a4:	54000140 	b.eq	829cc <irq_entry+0x70>  // b.none
   829a8:	94000062 	bl	82b30 <core_timer_disable>
   829ac:	52800140 	mov	w0, #0xa                   	// #10
   829b0:	b9001fe0 	str	w0, [sp, #28]
   829b4:	b9801fe0 	ldrsw	x0, [sp, #28]
   829b8:	aa0003e1 	mov	x1, x0
   829bc:	90000000 	adrp	x0, 82000 <lower_exception_entry+0xec>
   829c0:	912d0000 	add	x0, x0, #0xb40
   829c4:	97ffff3d 	bl	826b8 <add_irq_task>
   829c8:	94000048 	bl	82ae8 <core_timer_enable>
   829cc:	9400003d 	bl	82ac0 <enable_irq>
   829d0:	b9401fe0 	ldr	w0, [sp, #28]
   829d4:	97ffff91 	bl	82818 <exec_task>
   829d8:	52800000 	mov	w0, #0x0                   	// #0
   829dc:	a8c27bfd 	ldp	x29, x30, [sp], #32
   829e0:	d65f03c0 	ret

00000000000829e4 <lower_irq_entry>:
   829e4:	a9bf7bfd 	stp	x29, x30, [sp, #-16]!
   829e8:	910003fd 	mov	x29, sp
   829ec:	9400003c 	bl	82adc <disable_irq>
   829f0:	d2964080 	mov	x0, #0xb204                	// #45572
   829f4:	f2a7e000 	movk	x0, #0x3f00, lsl #16
   829f8:	b9400000 	ldr	w0, [x0]
   829fc:	12030000 	and	w0, w0, #0x20000000
   82a00:	7100001f 	cmp	w0, #0x0
   82a04:	540003e0 	b.eq	82a80 <lower_irq_entry+0x9c>  // b.none
   82a08:	d28a0900 	mov	x0, #0x5048                	// #20552
   82a0c:	f2a7e420 	movk	x0, #0x3f21, lsl #16
   82a10:	b9400000 	ldr	w0, [x0]
   82a14:	121f0000 	and	w0, w0, #0x2
   82a18:	7100001f 	cmp	w0, #0x0
   82a1c:	54000140 	b.eq	82a44 <lower_irq_entry+0x60>  // b.none
   82a20:	d28a0880 	mov	x0, #0x5044                	// #20548
   82a24:	f2a7e420 	movk	x0, #0x3f21, lsl #16
   82a28:	b9400001 	ldr	w1, [x0]
   82a2c:	d28a0880 	mov	x0, #0x5044                	// #20548
   82a30:	f2a7e420 	movk	x0, #0x3f21, lsl #16
   82a34:	121e7821 	and	w1, w1, #0xfffffffd
   82a38:	b9000001 	str	w1, [x0]
   82a3c:	940000e8 	bl	82ddc <uart_tx_handler>
   82a40:	1400001c 	b	82ab0 <lower_irq_entry+0xcc>
   82a44:	d28a0900 	mov	x0, #0x5048                	// #20552
   82a48:	f2a7e420 	movk	x0, #0x3f21, lsl #16
   82a4c:	b9400000 	ldr	w0, [x0]
   82a50:	121e0000 	and	w0, w0, #0x4
   82a54:	7100001f 	cmp	w0, #0x0
   82a58:	540002c0 	b.eq	82ab0 <lower_irq_entry+0xcc>  // b.none
   82a5c:	d28a0880 	mov	x0, #0x5044                	// #20548
   82a60:	f2a7e420 	movk	x0, #0x3f21, lsl #16
   82a64:	b9400001 	ldr	w1, [x0]
   82a68:	d28a0880 	mov	x0, #0x5044                	// #20548
   82a6c:	f2a7e420 	movk	x0, #0x3f21, lsl #16
   82a70:	121f7821 	and	w1, w1, #0xfffffffe
   82a74:	b9000001 	str	w1, [x0]
   82a78:	940000ab 	bl	82d24 <uart_rx_handler>
   82a7c:	1400000d 	b	82ab0 <lower_irq_entry+0xcc>
   82a80:	d2800c00 	mov	x0, #0x60                  	// #96
   82a84:	f2a80000 	movk	x0, #0x4000, lsl #16
   82a88:	b9400000 	ldr	w0, [x0]
   82a8c:	121f0000 	and	w0, w0, #0x2
   82a90:	7100001f 	cmp	w0, #0x0
   82a94:	540000e0 	b.eq	82ab0 <lower_irq_entry+0xcc>  // b.none
   82a98:	b0000020 	adrp	x0, 87000 <set_exception_vector_table>
   82a9c:	911ae000 	add	x0, x0, #0x6b8
   82aa0:	94000629 	bl	84344 <uart_sends>
   82aa4:	94000023 	bl	82b30 <core_timer_disable>
   82aa8:	94000026 	bl	82b40 <timer_irq_handler>
   82aac:	9400000f 	bl	82ae8 <core_timer_enable>
   82ab0:	94000004 	bl	82ac0 <enable_irq>
   82ab4:	52800000 	mov	w0, #0x0                   	// #0
   82ab8:	a8c17bfd 	ldp	x29, x30, [sp], #16
   82abc:	d65f03c0 	ret

0000000000082ac0 <enable_irq>:
   82ac0:	a9bf7bfd 	stp	x29, x30, [sp, #-16]!
   82ac4:	910003fd 	mov	x29, sp
   82ac8:	d5034fff 	msr	daifclr, #0xf
   82acc:	9400007d 	bl	82cc0 <mini_uart_irq_enable>
   82ad0:	d503201f 	nop
   82ad4:	a8c17bfd 	ldp	x29, x30, [sp], #16
   82ad8:	d65f03c0 	ret

0000000000082adc <disable_irq>:
   82adc:	d5034fdf 	msr	daifset, #0xf
   82ae0:	d503201f 	nop
   82ae4:	d65f03c0 	ret

0000000000082ae8 <core_timer_enable>:
   82ae8:	d10043ff 	sub	sp, sp, #0x10
   82aec:	d538e100 	mrs	x0, cntkctl_el1
   82af0:	f90007e0 	str	x0, [sp, #8]
   82af4:	f94007e0 	ldr	x0, [sp, #8]
   82af8:	b2400000 	orr	x0, x0, #0x1
   82afc:	f90007e0 	str	x0, [sp, #8]
   82b00:	f94007e0 	ldr	x0, [sp, #8]
   82b04:	d518e100 	msr	cntkctl_el1, x0
   82b08:	d2800020 	mov	x0, #0x1                   	// #1
   82b0c:	d51be220 	msr	cntp_ctl_el0, x0
   82b10:	d53be000 	mrs	x0, cntfrq_el0
   82b14:	d51be200 	msr	cntp_tval_el0, x0
   82b18:	d2800040 	mov	x0, #0x2                   	// #2
   82b1c:	58001be1 	ldr	x1, 82e98 <uart_tx_handler+0xbc>
   82b20:	b9000020 	str	w0, [x1]
   82b24:	d503201f 	nop
   82b28:	910043ff 	add	sp, sp, #0x10
   82b2c:	d65f03c0 	ret

0000000000082b30 <core_timer_disable>:
   82b30:	52800000 	mov	w0, #0x0                   	// #0
   82b34:	d51be220 	msr	cntp_ctl_el0, x0
   82b38:	d503201f 	nop
   82b3c:	d65f03c0 	ret

0000000000082b40 <timer_irq_handler>:
   82b40:	a9be7bfd 	stp	x29, x30, [sp, #-32]!
   82b44:	910003fd 	mov	x29, sp
   82b48:	94000d3b 	bl	86034 <get_time>
   82b4c:	f9000fe0 	str	x0, [sp, #24]
   82b50:	14000011 	b	82b94 <timer_irq_handler+0x54>
   82b54:	d0000020 	adrp	x0, 88000 <get_current+0xce8>
   82b58:	f944d800 	ldr	x0, [x0, #2480]
   82b5c:	f9400000 	ldr	x0, [x0]
   82b60:	f9000be0 	str	x0, [sp, #16]
   82b64:	f9400be0 	ldr	x0, [sp, #16]
   82b68:	f9400c01 	ldr	x1, [x0, #24]
   82b6c:	d0000020 	adrp	x0, 88000 <get_current+0xce8>
   82b70:	f944d800 	ldr	x0, [x0, #2480]
   82b74:	f9000001 	str	x1, [x0]
   82b78:	f9400be0 	ldr	x0, [sp, #16]
   82b7c:	f9400401 	ldr	x1, [x0, #8]
   82b80:	f9400be0 	ldr	x0, [sp, #16]
   82b84:	f9400800 	ldr	x0, [x0, #16]
   82b88:	d63f0020 	blr	x1
   82b8c:	f9400be0 	ldr	x0, [sp, #16]
   82b90:	94000551 	bl	840d4 <kfree>
   82b94:	d0000020 	adrp	x0, 88000 <get_current+0xce8>
   82b98:	f944d800 	ldr	x0, [x0, #2480]
   82b9c:	f9400000 	ldr	x0, [x0]
   82ba0:	f100001f 	cmp	x0, #0x0
   82ba4:	54000100 	b.eq	82bc4 <timer_irq_handler+0x84>  // b.none
   82ba8:	d0000020 	adrp	x0, 88000 <get_current+0xce8>
   82bac:	f944d800 	ldr	x0, [x0, #2480]
   82bb0:	f9400000 	ldr	x0, [x0]
   82bb4:	f9400000 	ldr	x0, [x0]
   82bb8:	f9400fe1 	ldr	x1, [sp, #24]
   82bbc:	eb00003f 	cmp	x1, x0
   82bc0:	54fffca2 	b.cs	82b54 <timer_irq_handler+0x14>  // b.hs, b.nlast
   82bc4:	d0000020 	adrp	x0, 88000 <get_current+0xce8>
   82bc8:	f944d800 	ldr	x0, [x0, #2480]
   82bcc:	f9400000 	ldr	x0, [x0]
   82bd0:	f100001f 	cmp	x0, #0x0
   82bd4:	540000e0 	b.eq	82bf0 <timer_irq_handler+0xb0>  // b.none
   82bd8:	d0000020 	adrp	x0, 88000 <get_current+0xce8>
   82bdc:	f944d800 	ldr	x0, [x0, #2480]
   82be0:	f9400000 	ldr	x0, [x0]
   82be4:	f9400000 	ldr	x0, [x0]
   82be8:	d51be240 	msr	cntp_cval_el0, x0
   82bec:	14000003 	b	82bf8 <timer_irq_handler+0xb8>
   82bf0:	52800000 	mov	w0, #0x0                   	// #0
   82bf4:	d51be220 	msr	cntp_ctl_el0, x0
   82bf8:	52800000 	mov	w0, #0x0                   	// #0
   82bfc:	a8c27bfd 	ldp	x29, x30, [sp], #32
   82c00:	d65f03c0 	ret

0000000000082c04 <mini_uart_irq_handler>:
   82c04:	a9be7bfd 	stp	x29, x30, [sp, #-32]!
   82c08:	910003fd 	mov	x29, sp
   82c0c:	b9001fff 	str	wzr, [sp, #28]
   82c10:	d28a0900 	mov	x0, #0x5048                	// #20552
   82c14:	f2a7e420 	movk	x0, #0x3f21, lsl #16
   82c18:	b9400000 	ldr	w0, [x0]
   82c1c:	121f0000 	and	w0, w0, #0x2
   82c20:	7100001f 	cmp	w0, #0x0
   82c24:	54000200 	b.eq	82c64 <mini_uart_irq_handler+0x60>  // b.none
   82c28:	d28a0880 	mov	x0, #0x5044                	// #20548
   82c2c:	f2a7e420 	movk	x0, #0x3f21, lsl #16
   82c30:	b9400001 	ldr	w1, [x0]
   82c34:	d28a0880 	mov	x0, #0x5044                	// #20548
   82c38:	f2a7e420 	movk	x0, #0x3f21, lsl #16
   82c3c:	121e7821 	and	w1, w1, #0xfffffffd
   82c40:	b9000001 	str	w1, [x0]
   82c44:	52800280 	mov	w0, #0x14                  	// #20
   82c48:	b9001fe0 	str	w0, [sp, #28]
   82c4c:	b9801fe0 	ldrsw	x0, [sp, #28]
   82c50:	aa0003e1 	mov	x1, x0
   82c54:	90000000 	adrp	x0, 82000 <lower_exception_entry+0xec>
   82c58:	91377000 	add	x0, x0, #0xddc
   82c5c:	97fffe97 	bl	826b8 <add_irq_task>
   82c60:	14000015 	b	82cb4 <mini_uart_irq_handler+0xb0>
   82c64:	d28a0900 	mov	x0, #0x5048                	// #20552
   82c68:	f2a7e420 	movk	x0, #0x3f21, lsl #16
   82c6c:	b9400000 	ldr	w0, [x0]
   82c70:	121e0000 	and	w0, w0, #0x4
   82c74:	7100001f 	cmp	w0, #0x0
   82c78:	540001e0 	b.eq	82cb4 <mini_uart_irq_handler+0xb0>  // b.none
   82c7c:	d28a0880 	mov	x0, #0x5044                	// #20548
   82c80:	f2a7e420 	movk	x0, #0x3f21, lsl #16
   82c84:	b9400001 	ldr	w1, [x0]
   82c88:	d28a0880 	mov	x0, #0x5044                	// #20548
   82c8c:	f2a7e420 	movk	x0, #0x3f21, lsl #16
   82c90:	121f7821 	and	w1, w1, #0xfffffffe
   82c94:	b9000001 	str	w1, [x0]
   82c98:	528003c0 	mov	w0, #0x1e                  	// #30
   82c9c:	b9001fe0 	str	w0, [sp, #28]
   82ca0:	b9801fe0 	ldrsw	x0, [sp, #28]
   82ca4:	aa0003e1 	mov	x1, x0
   82ca8:	90000000 	adrp	x0, 82000 <lower_exception_entry+0xec>
   82cac:	91349000 	add	x0, x0, #0xd24
   82cb0:	97fffe82 	bl	826b8 <add_irq_task>
   82cb4:	b9401fe0 	ldr	w0, [sp, #28]
   82cb8:	a8c27bfd 	ldp	x29, x30, [sp], #32
   82cbc:	d65f03c0 	ret

0000000000082cc0 <mini_uart_irq_enable>:
   82cc0:	d2964200 	mov	x0, #0xb210                	// #45584
   82cc4:	f2a7e000 	movk	x0, #0x3f00, lsl #16
   82cc8:	b9400001 	ldr	w1, [x0]
   82ccc:	d2964200 	mov	x0, #0xb210                	// #45584
   82cd0:	f2a7e000 	movk	x0, #0x3f00, lsl #16
   82cd4:	32030021 	orr	w1, w1, #0x20000000
   82cd8:	b9000001 	str	w1, [x0]
   82cdc:	d503201f 	nop
   82ce0:	d65f03c0 	ret

0000000000082ce4 <mini_uart_irq_disable>:
   82ce4:	d28a0880 	mov	x0, #0x5044                	// #20548
   82ce8:	f2a7e420 	movk	x0, #0x3f21, lsl #16
   82cec:	b9400001 	ldr	w1, [x0]
   82cf0:	d28a0880 	mov	x0, #0x5044                	// #20548
   82cf4:	f2a7e420 	movk	x0, #0x3f21, lsl #16
   82cf8:	121e7421 	and	w1, w1, #0xfffffffc
   82cfc:	b9000001 	str	w1, [x0]
   82d00:	d2964380 	mov	x0, #0xb21c                	// #45596
   82d04:	f2a7e000 	movk	x0, #0x3f00, lsl #16
   82d08:	b9400001 	ldr	w1, [x0]
   82d0c:	d2964380 	mov	x0, #0xb21c                	// #45596
   82d10:	f2a7e000 	movk	x0, #0x3f00, lsl #16
   82d14:	32030021 	orr	w1, w1, #0x20000000
   82d18:	b9000001 	str	w1, [x0]
   82d1c:	d503201f 	nop
   82d20:	d65f03c0 	ret

0000000000082d24 <uart_rx_handler>:
   82d24:	d10043ff 	sub	sp, sp, #0x10
   82d28:	d28a0880 	mov	x0, #0x5044                	// #20548
   82d2c:	f2a7e420 	movk	x0, #0x3f21, lsl #16
   82d30:	b9400001 	ldr	w1, [x0]
   82d34:	d28a0880 	mov	x0, #0x5044                	// #20548
   82d38:	f2a7e420 	movk	x0, #0x3f21, lsl #16
   82d3c:	121f7821 	and	w1, w1, #0xfffffffe
   82d40:	b9000001 	str	w1, [x0]
   82d44:	d28a0800 	mov	x0, #0x5040                	// #20544
   82d48:	f2a7e420 	movk	x0, #0x3f21, lsl #16
   82d4c:	b9400000 	ldr	w0, [x0]
   82d50:	39003fe0 	strb	w0, [sp, #15]
   82d54:	39403fe0 	ldrb	w0, [sp, #15]
   82d58:	7100341f 	cmp	w0, #0xd
   82d5c:	54000060 	b.eq	82d68 <uart_rx_handler+0x44>  // b.none
   82d60:	39403fe0 	ldrb	w0, [sp, #15]
   82d64:	14000002 	b	82d6c <uart_rx_handler+0x48>
   82d68:	52800140 	mov	w0, #0xa                   	// #10
   82d6c:	d0000021 	adrp	x1, 88000 <get_current+0xce8>
   82d70:	f944b421 	ldr	x1, [x1, #2408]
   82d74:	b9400023 	ldr	w3, [x1]
   82d78:	d0000021 	adrp	x1, 88000 <get_current+0xce8>
   82d7c:	f944d022 	ldr	x2, [x1, #2464]
   82d80:	93407c61 	sxtw	x1, w3
   82d84:	38216840 	strb	w0, [x2, x1]
   82d88:	d0000020 	adrp	x0, 88000 <get_current+0xce8>
   82d8c:	f944b400 	ldr	x0, [x0, #2408]
   82d90:	b9400000 	ldr	w0, [x0]
   82d94:	11000400 	add	w0, w0, #0x1
   82d98:	6b0003e1 	negs	w1, w0
   82d9c:	12001c00 	and	w0, w0, #0xff
   82da0:	12001c21 	and	w1, w1, #0xff
   82da4:	5a814401 	csneg	w1, w0, w1, mi  // mi = first
   82da8:	d0000020 	adrp	x0, 88000 <get_current+0xce8>
   82dac:	f944b400 	ldr	x0, [x0, #2408]
   82db0:	b9000001 	str	w1, [x0]
   82db4:	d28a0880 	mov	x0, #0x5044                	// #20548
   82db8:	f2a7e420 	movk	x0, #0x3f21, lsl #16
   82dbc:	b9400001 	ldr	w1, [x0]
   82dc0:	d28a0880 	mov	x0, #0x5044                	// #20548
   82dc4:	f2a7e420 	movk	x0, #0x3f21, lsl #16
   82dc8:	32000021 	orr	w1, w1, #0x1
   82dcc:	b9000001 	str	w1, [x0]
   82dd0:	52800000 	mov	w0, #0x0                   	// #0
   82dd4:	910043ff 	add	sp, sp, #0x10
   82dd8:	d65f03c0 	ret

0000000000082ddc <uart_tx_handler>:
   82ddc:	d0000020 	adrp	x0, 88000 <get_current+0xce8>
   82de0:	f944c400 	ldr	x0, [x0, #2440]
   82de4:	b9400001 	ldr	w1, [x0]
   82de8:	d0000020 	adrp	x0, 88000 <get_current+0xce8>
   82dec:	f944b000 	ldr	x0, [x0, #2400]
   82df0:	b9400000 	ldr	w0, [x0]
   82df4:	6b00003f 	cmp	w1, w0
   82df8:	540003c0 	b.eq	82e70 <uart_tx_handler+0x94>  // b.none
   82dfc:	d0000020 	adrp	x0, 88000 <get_current+0xce8>
   82e00:	f944c400 	ldr	x0, [x0, #2440]
   82e04:	b9400002 	ldr	w2, [x0]
   82e08:	d0000020 	adrp	x0, 88000 <get_current+0xce8>
   82e0c:	f944ac01 	ldr	x1, [x0, #2392]
   82e10:	93407c40 	sxtw	x0, w2
   82e14:	38606821 	ldrb	w1, [x1, x0]
   82e18:	d28a0800 	mov	x0, #0x5040                	// #20544
   82e1c:	f2a7e420 	movk	x0, #0x3f21, lsl #16
   82e20:	b9000001 	str	w1, [x0]
   82e24:	d0000020 	adrp	x0, 88000 <get_current+0xce8>
   82e28:	f944c400 	ldr	x0, [x0, #2440]
   82e2c:	b9400000 	ldr	w0, [x0]
   82e30:	11000400 	add	w0, w0, #0x1
   82e34:	6b0003e1 	negs	w1, w0
   82e38:	12001c00 	and	w0, w0, #0xff
   82e3c:	12001c21 	and	w1, w1, #0xff
   82e40:	5a814401 	csneg	w1, w0, w1, mi  // mi = first
   82e44:	d0000020 	adrp	x0, 88000 <get_current+0xce8>
   82e48:	f944c400 	ldr	x0, [x0, #2440]
   82e4c:	b9000001 	str	w1, [x0]
   82e50:	d28a0880 	mov	x0, #0x5044                	// #20548
   82e54:	f2a7e420 	movk	x0, #0x3f21, lsl #16
   82e58:	b9400001 	ldr	w1, [x0]
   82e5c:	d28a0880 	mov	x0, #0x5044                	// #20548
   82e60:	f2a7e420 	movk	x0, #0x3f21, lsl #16
   82e64:	321f0021 	orr	w1, w1, #0x2
   82e68:	b9000001 	str	w1, [x0]
   82e6c:	14000008 	b	82e8c <uart_tx_handler+0xb0>
   82e70:	d28a0880 	mov	x0, #0x5044                	// #20548
   82e74:	f2a7e420 	movk	x0, #0x3f21, lsl #16
   82e78:	b9400001 	ldr	w1, [x0]
   82e7c:	d28a0880 	mov	x0, #0x5044                	// #20548
   82e80:	f2a7e420 	movk	x0, #0x3f21, lsl #16
   82e84:	121e7821 	and	w1, w1, #0xfffffffd
   82e88:	b9000001 	str	w1, [x0]
   82e8c:	52800000 	mov	w0, #0x0                   	// #0
   82e90:	d65f03c0 	ret
   82e94:	00000000 	udf	#0
   82e98:	40000040 	.inst	0x40000040 ; undefined
   82e9c:	00000000 	udf	#0

0000000000082ea0 <mailbox_call>:
   82ea0:	d10083ff 	sub	sp, sp, #0x20
   82ea4:	39003fe0 	strb	w0, [sp, #15]
   82ea8:	f90003e1 	str	x1, [sp]
   82eac:	f94003e0 	ldr	x0, [sp]
   82eb0:	121c6c01 	and	w1, w0, #0xfffffff0
   82eb4:	39403fe0 	ldrb	w0, [sp, #15]
   82eb8:	12000c00 	and	w0, w0, #0xf
   82ebc:	2a000020 	orr	w0, w1, w0
   82ec0:	b9001fe0 	str	w0, [sp, #28]
   82ec4:	d503201f 	nop
   82ec8:	d2971300 	mov	x0, #0xb898                	// #47256
   82ecc:	f2a7e000 	movk	x0, #0x3f00, lsl #16
   82ed0:	b9400000 	ldr	w0, [x0]
   82ed4:	7100001f 	cmp	w0, #0x0
   82ed8:	54ffff8b 	b.lt	82ec8 <mailbox_call+0x28>  // b.tstop
   82edc:	d2971400 	mov	x0, #0xb8a0                	// #47264
   82ee0:	f2a7e000 	movk	x0, #0x3f00, lsl #16
   82ee4:	b9401fe1 	ldr	w1, [sp, #28]
   82ee8:	b9000001 	str	w1, [x0]
   82eec:	d503201f 	nop
   82ef0:	d2971300 	mov	x0, #0xb898                	// #47256
   82ef4:	f2a7e000 	movk	x0, #0x3f00, lsl #16
   82ef8:	b9400000 	ldr	w0, [x0]
   82efc:	12020000 	and	w0, w0, #0x40000000
   82f00:	7100001f 	cmp	w0, #0x0
   82f04:	54ffff61 	b.ne	82ef0 <mailbox_call+0x50>  // b.any
   82f08:	d2971000 	mov	x0, #0xb880                	// #47232
   82f0c:	f2a7e000 	movk	x0, #0x3f00, lsl #16
   82f10:	b9400000 	ldr	w0, [x0]
   82f14:	b9401fe1 	ldr	w1, [sp, #28]
   82f18:	6b00003f 	cmp	w1, w0
   82f1c:	54fffe81 	b.ne	82eec <mailbox_call+0x4c>  // b.any
   82f20:	f94003e0 	ldr	x0, [sp]
   82f24:	91001000 	add	x0, x0, #0x4
   82f28:	b9400001 	ldr	w1, [x0]
   82f2c:	52b00000 	mov	w0, #0x80000000            	// #-2147483648
   82f30:	6b00003f 	cmp	w1, w0
   82f34:	1a9f17e0 	cset	w0, eq  // eq = none
   82f38:	12001c00 	and	w0, w0, #0xff
   82f3c:	910083ff 	add	sp, sp, #0x20
   82f40:	d65f03c0 	ret

0000000000082f44 <get_board_revision>:
   82f44:	a9bd7bfd 	stp	x29, x30, [sp, #-48]!
   82f48:	910003fd 	mov	x29, sp
   82f4c:	52800380 	mov	w0, #0x1c                  	// #28
   82f50:	b90013e0 	str	w0, [sp, #16]
   82f54:	b90017ff 	str	wzr, [sp, #20]
   82f58:	52800040 	mov	w0, #0x2                   	// #2
   82f5c:	72a00020 	movk	w0, #0x1, lsl #16
   82f60:	b9001be0 	str	w0, [sp, #24]
   82f64:	52800080 	mov	w0, #0x4                   	// #4
   82f68:	b9001fe0 	str	w0, [sp, #28]
   82f6c:	b90023ff 	str	wzr, [sp, #32]
   82f70:	b90027ff 	str	wzr, [sp, #36]
   82f74:	b9002bff 	str	wzr, [sp, #40]
   82f78:	910043e0 	add	x0, sp, #0x10
   82f7c:	aa0003e1 	mov	x1, x0
   82f80:	52800100 	mov	w0, #0x8                   	// #8
   82f84:	97ffffc7 	bl	82ea0 <mailbox_call>
   82f88:	7100001f 	cmp	w0, #0x0
   82f8c:	54000100 	b.eq	82fac <get_board_revision+0x68>  // b.none
   82f90:	b0000020 	adrp	x0, 87000 <set_exception_vector_table>
   82f94:	911b4000 	add	x0, x0, #0x6d0
   82f98:	940004eb 	bl	84344 <uart_sends>
   82f9c:	b94027e0 	ldr	w0, [sp, #36]
   82fa0:	9400050d 	bl	843d4 <uart_sendh>
   82fa4:	52800140 	mov	w0, #0xa                   	// #10
   82fa8:	940004fe 	bl	843a0 <uart_sendc>
   82fac:	d503201f 	nop
   82fb0:	a8c37bfd 	ldp	x29, x30, [sp], #48
   82fb4:	d65f03c0 	ret

0000000000082fb8 <get_arm_memory>:
   82fb8:	a9bd7bfd 	stp	x29, x30, [sp, #-48]!
   82fbc:	910003fd 	mov	x29, sp
   82fc0:	52800400 	mov	w0, #0x20                  	// #32
   82fc4:	b90013e0 	str	w0, [sp, #16]
   82fc8:	b90017ff 	str	wzr, [sp, #20]
   82fcc:	528000a0 	mov	w0, #0x5                   	// #5
   82fd0:	72a00020 	movk	w0, #0x1, lsl #16
   82fd4:	b9001be0 	str	w0, [sp, #24]
   82fd8:	52800100 	mov	w0, #0x8                   	// #8
   82fdc:	b9001fe0 	str	w0, [sp, #28]
   82fe0:	b90023ff 	str	wzr, [sp, #32]
   82fe4:	b90027ff 	str	wzr, [sp, #36]
   82fe8:	b9002bff 	str	wzr, [sp, #40]
   82fec:	b9002fff 	str	wzr, [sp, #44]
   82ff0:	910043e0 	add	x0, sp, #0x10
   82ff4:	aa0003e1 	mov	x1, x0
   82ff8:	52800100 	mov	w0, #0x8                   	// #8
   82ffc:	97ffffa9 	bl	82ea0 <mailbox_call>
   83000:	7100001f 	cmp	w0, #0x0
   83004:	540001a0 	b.eq	83038 <get_arm_memory+0x80>  // b.none
   83008:	90000020 	adrp	x0, 87000 <set_exception_vector_table>
   8300c:	911ba000 	add	x0, x0, #0x6e8
   83010:	940004cd 	bl	84344 <uart_sends>
   83014:	b94027e0 	ldr	w0, [sp, #36]
   83018:	940004ef 	bl	843d4 <uart_sendh>
   8301c:	90000020 	adrp	x0, 87000 <set_exception_vector_table>
   83020:	911c2000 	add	x0, x0, #0x708
   83024:	940004c8 	bl	84344 <uart_sends>
   83028:	b9402be0 	ldr	w0, [sp, #40]
   8302c:	940004ea 	bl	843d4 <uart_sendh>
   83030:	52800140 	mov	w0, #0xa                   	// #10
   83034:	940004db 	bl	843a0 <uart_sendc>
   83038:	d503201f 	nop
   8303c:	a8c37bfd 	ldp	x29, x30, [sp], #48
   83040:	d65f03c0 	ret

0000000000083044 <main>:
   83044:	a9bd7bfd 	stp	x29, x30, [sp, #-48]!
   83048:	910003fd 	mov	x29, sp
   8304c:	f9000bf3 	str	x19, [sp, #16]
   83050:	f90017e0 	str	x0, [sp, #40]
   83054:	9400044c 	bl	84184 <uart_init>
   83058:	94000fea 	bl	87000 <set_exception_vector_table>
   8305c:	b0000020 	adrp	x0, 88000 <get_current+0xce8>
   83060:	f944c001 	ldr	x1, [x0, #2432]
   83064:	f94017e0 	ldr	x0, [sp, #40]
   83068:	97fffaf7 	bl	81c44 <fdt_traverse>
   8306c:	97fffc16 	bl	820c4 <heap_init>
   83070:	97fffe94 	bl	82ac0 <enable_irq>
   83074:	94000193 	bl	836c0 <buddy_init>
   83078:	d2820001 	mov	x1, #0x1000                	// #4096
   8307c:	d2800000 	mov	x0, #0x0                   	// #0
   83080:	94000267 	bl	83a1c <reserve>
   83084:	b0000020 	adrp	x0, 88000 <get_current+0xce8>
   83088:	f944d400 	ldr	x0, [x0, #2472]
   8308c:	d1408002 	sub	x2, x0, #0x20, lsl #12
   83090:	b0000020 	adrp	x0, 88000 <get_current+0xce8>
   83094:	f944d400 	ldr	x0, [x0, #2472]
   83098:	d1000400 	sub	x0, x0, #0x1
   8309c:	aa0003e1 	mov	x1, x0
   830a0:	aa0203e0 	mov	x0, x2
   830a4:	9400025e 	bl	83a1c <reserve>
   830a8:	b0000020 	adrp	x0, 88000 <get_current+0xce8>
   830ac:	f944b801 	ldr	x1, [x0, #2416]
   830b0:	b0000020 	adrp	x0, 88000 <get_current+0xce8>
   830b4:	f944d400 	ldr	x0, [x0, #2472]
   830b8:	94000259 	bl	83a1c <reserve>
   830bc:	97fffd73 	bl	82688 <get_initrd_start>
   830c0:	aa0003f3 	mov	x19, x0
   830c4:	97fffd75 	bl	82698 <get_initrd_end>
   830c8:	aa0003e1 	mov	x1, x0
   830cc:	aa1303e0 	mov	x0, x19
   830d0:	94000253 	bl	83a1c <reserve>
   830d4:	97fffb69 	bl	81e78 <get_dtb_end>
   830d8:	aa0003e1 	mov	x1, x0
   830dc:	f94017e0 	ldr	x0, [sp, #40]
   830e0:	9400024f 	bl	83a1c <reserve>
   830e4:	b0000020 	adrp	x0, 88000 <get_current+0xce8>
   830e8:	f944c800 	ldr	x0, [x0, #2448]
   830ec:	f9400000 	ldr	x0, [x0]
   830f0:	aa0003e1 	mov	x1, x0
   830f4:	b0000020 	adrp	x0, 88000 <get_current+0xce8>
   830f8:	f944bc00 	ldr	x0, [x0, #2424]
   830fc:	94000248 	bl	83a1c <reserve>
   83100:	9400034a 	bl	83e28 <kmem_cache_init>
   83104:	94000ac1 	bl	85c08 <thread_init>
   83108:	97fffe78 	bl	82ae8 <core_timer_enable>
   8310c:	9400066e 	bl	84ac4 <shell_exec>
   83110:	d503201f 	nop
   83114:	f9400bf3 	ldr	x19, [sp, #16]
   83118:	a8c37bfd 	ldp	x29, x30, [sp], #48
   8311c:	d65f03c0 	ret

0000000000083120 <list_add>:
   83120:	d10083ff 	sub	sp, sp, #0x20
   83124:	b9000fe0 	str	w0, [sp, #12]
   83128:	b9000be1 	str	w1, [sp, #8]
   8312c:	b0000020 	adrp	x0, 88000 <get_current+0xce8>
   83130:	912ba000 	add	x0, x0, #0xae8
   83134:	f9400002 	ldr	x2, [x0]
   83138:	b9800be1 	ldrsw	x1, [sp, #8]
   8313c:	aa0103e0 	mov	x0, x1
   83140:	d37ff800 	lsl	x0, x0, #1
   83144:	8b010000 	add	x0, x0, x1
   83148:	d37df000 	lsl	x0, x0, #3
   8314c:	8b000040 	add	x0, x2, x0
   83150:	f9000fe0 	str	x0, [sp, #24]
   83154:	b0000020 	adrp	x0, 88000 <get_current+0xce8>
   83158:	912bc000 	add	x0, x0, #0xaf0
   8315c:	b9800fe1 	ldrsw	x1, [sp, #12]
   83160:	f8617800 	ldr	x0, [x0, x1, lsl #3]
   83164:	f100001f 	cmp	x0, #0x0
   83168:	540001a1 	b.ne	8319c <list_add+0x7c>  // b.any
   8316c:	b0000020 	adrp	x0, 88000 <get_current+0xce8>
   83170:	912bc000 	add	x0, x0, #0xaf0
   83174:	b9800fe1 	ldrsw	x1, [sp, #12]
   83178:	f9400fe2 	ldr	x2, [sp, #24]
   8317c:	f8217802 	str	x2, [x0, x1, lsl #3]
   83180:	f9400fe0 	ldr	x0, [sp, #24]
   83184:	f9400fe1 	ldr	x1, [sp, #24]
   83188:	f9000801 	str	x1, [x0, #16]
   8318c:	f9400fe0 	ldr	x0, [sp, #24]
   83190:	f9400fe1 	ldr	x1, [sp, #24]
   83194:	f9000401 	str	x1, [x0, #8]
   83198:	14000019 	b	831fc <list_add+0xdc>
   8319c:	b0000020 	adrp	x0, 88000 <get_current+0xce8>
   831a0:	912bc000 	add	x0, x0, #0xaf0
   831a4:	b9800fe1 	ldrsw	x1, [sp, #12]
   831a8:	f8617800 	ldr	x0, [x0, x1, lsl #3]
   831ac:	f9400800 	ldr	x0, [x0, #16]
   831b0:	f9000be0 	str	x0, [sp, #16]
   831b4:	b0000020 	adrp	x0, 88000 <get_current+0xce8>
   831b8:	912bc000 	add	x0, x0, #0xaf0
   831bc:	b9800fe1 	ldrsw	x1, [sp, #12]
   831c0:	f8617800 	ldr	x0, [x0, x1, lsl #3]
   831c4:	f9400fe1 	ldr	x1, [sp, #24]
   831c8:	f9000801 	str	x1, [x0, #16]
   831cc:	b0000020 	adrp	x0, 88000 <get_current+0xce8>
   831d0:	912bc000 	add	x0, x0, #0xaf0
   831d4:	b9800fe1 	ldrsw	x1, [sp, #12]
   831d8:	f8617801 	ldr	x1, [x0, x1, lsl #3]
   831dc:	f9400fe0 	ldr	x0, [sp, #24]
   831e0:	f9000401 	str	x1, [x0, #8]
   831e4:	f9400fe0 	ldr	x0, [sp, #24]
   831e8:	f9400be1 	ldr	x1, [sp, #16]
   831ec:	f9000801 	str	x1, [x0, #16]
   831f0:	f9400be0 	ldr	x0, [sp, #16]
   831f4:	f9400fe1 	ldr	x1, [sp, #24]
   831f8:	f9000401 	str	x1, [x0, #8]
   831fc:	d503201f 	nop
   83200:	910083ff 	add	sp, sp, #0x20
   83204:	d65f03c0 	ret

0000000000083208 <list_del>:
   83208:	d10083ff 	sub	sp, sp, #0x20
   8320c:	b9000fe0 	str	w0, [sp, #12]
   83210:	b9000be1 	str	w1, [sp, #8]
   83214:	b0000020 	adrp	x0, 88000 <get_current+0xce8>
   83218:	912ba000 	add	x0, x0, #0xae8
   8321c:	f9400002 	ldr	x2, [x0]
   83220:	b9800be1 	ldrsw	x1, [sp, #8]
   83224:	aa0103e0 	mov	x0, x1
   83228:	d37ff800 	lsl	x0, x0, #1
   8322c:	8b010000 	add	x0, x0, x1
   83230:	d37df000 	lsl	x0, x0, #3
   83234:	8b000040 	add	x0, x2, x0
   83238:	f9000fe0 	str	x0, [sp, #24]
   8323c:	f9400fe0 	ldr	x0, [sp, #24]
   83240:	f9400400 	ldr	x0, [x0, #8]
   83244:	f9400fe1 	ldr	x1, [sp, #24]
   83248:	eb00003f 	cmp	x1, x0
   8324c:	540000c1 	b.ne	83264 <list_del+0x5c>  // b.any
   83250:	b0000020 	adrp	x0, 88000 <get_current+0xce8>
   83254:	912bc000 	add	x0, x0, #0xaf0
   83258:	b9800fe1 	ldrsw	x1, [sp, #12]
   8325c:	f821781f 	str	xzr, [x0, x1, lsl #3]
   83260:	14000018 	b	832c0 <list_del+0xb8>
   83264:	f9400fe0 	ldr	x0, [sp, #24]
   83268:	f9400800 	ldr	x0, [x0, #16]
   8326c:	f9400fe1 	ldr	x1, [sp, #24]
   83270:	f9400421 	ldr	x1, [x1, #8]
   83274:	f9000401 	str	x1, [x0, #8]
   83278:	f9400fe0 	ldr	x0, [sp, #24]
   8327c:	f9400400 	ldr	x0, [x0, #8]
   83280:	f9400fe1 	ldr	x1, [sp, #24]
   83284:	f9400821 	ldr	x1, [x1, #16]
   83288:	f9000801 	str	x1, [x0, #16]
   8328c:	b0000020 	adrp	x0, 88000 <get_current+0xce8>
   83290:	912bc000 	add	x0, x0, #0xaf0
   83294:	b9800fe1 	ldrsw	x1, [sp, #12]
   83298:	f8617800 	ldr	x0, [x0, x1, lsl #3]
   8329c:	f9400fe1 	ldr	x1, [sp, #24]
   832a0:	eb00003f 	cmp	x1, x0
   832a4:	540000e1 	b.ne	832c0 <list_del+0xb8>  // b.any
   832a8:	f9400fe0 	ldr	x0, [sp, #24]
   832ac:	f9400402 	ldr	x2, [x0, #8]
   832b0:	b0000020 	adrp	x0, 88000 <get_current+0xce8>
   832b4:	912bc000 	add	x0, x0, #0xaf0
   832b8:	b9800fe1 	ldrsw	x1, [sp, #12]
   832bc:	f8217802 	str	x2, [x0, x1, lsl #3]
   832c0:	d503201f 	nop
   832c4:	910083ff 	add	sp, sp, #0x20
   832c8:	d65f03c0 	ret

00000000000832cc <list_pop>:
   832cc:	a9bd7bfd 	stp	x29, x30, [sp, #-48]!
   832d0:	910003fd 	mov	x29, sp
   832d4:	b9001fe0 	str	w0, [sp, #28]
   832d8:	b0000020 	adrp	x0, 88000 <get_current+0xce8>
   832dc:	912bc000 	add	x0, x0, #0xaf0
   832e0:	b9801fe1 	ldrsw	x1, [sp, #28]
   832e4:	f8617800 	ldr	x0, [x0, x1, lsl #3]
   832e8:	f100001f 	cmp	x0, #0x0
   832ec:	54000061 	b.ne	832f8 <list_pop+0x2c>  // b.any
   832f0:	12800000 	mov	w0, #0xffffffff            	// #-1
   832f4:	14000012 	b	8333c <list_pop+0x70>
   832f8:	b0000020 	adrp	x0, 88000 <get_current+0xce8>
   832fc:	912bc000 	add	x0, x0, #0xaf0
   83300:	b9801fe1 	ldrsw	x1, [sp, #28]
   83304:	f8617801 	ldr	x1, [x0, x1, lsl #3]
   83308:	b0000020 	adrp	x0, 88000 <get_current+0xce8>
   8330c:	912ba000 	add	x0, x0, #0xae8
   83310:	f9400000 	ldr	x0, [x0]
   83314:	cb000020 	sub	x0, x1, x0
   83318:	9343fc01 	asr	x1, x0, #3
   8331c:	b201f3e0 	mov	x0, #0xaaaaaaaaaaaaaaaa    	// #-6148914691236517206
   83320:	f2955560 	movk	x0, #0xaaab
   83324:	9b007c20 	mul	x0, x1, x0
   83328:	b9002fe0 	str	w0, [sp, #44]
   8332c:	b9402fe1 	ldr	w1, [sp, #44]
   83330:	b9401fe0 	ldr	w0, [sp, #28]
   83334:	97ffffb5 	bl	83208 <list_del>
   83338:	b9402fe0 	ldr	w0, [sp, #44]
   8333c:	a8c37bfd 	ldp	x29, x30, [sp], #48
   83340:	d65f03c0 	ret

0000000000083344 <list_show>:
   83344:	a9bd7bfd 	stp	x29, x30, [sp, #-48]!
   83348:	910003fd 	mov	x29, sp
   8334c:	f9000fe0 	str	x0, [sp, #24]
   83350:	f9400fe0 	ldr	x0, [sp, #24]
   83354:	f90017e0 	str	x0, [sp, #40]
   83358:	f94017e0 	ldr	x0, [sp, #40]
   8335c:	f100001f 	cmp	x0, #0x0
   83360:	540000a1 	b.ne	83374 <list_show+0x30>  // b.any
   83364:	90000020 	adrp	x0, 87000 <set_exception_vector_table>
   83368:	911c8000 	add	x0, x0, #0x720
   8336c:	940003f6 	bl	84344 <uart_sends>
   83370:	1400001a 	b	833d8 <list_show+0x94>
   83374:	b0000020 	adrp	x0, 88000 <get_current+0xce8>
   83378:	912ba000 	add	x0, x0, #0xae8
   8337c:	f9400000 	ldr	x0, [x0]
   83380:	f94017e1 	ldr	x1, [sp, #40]
   83384:	cb000020 	sub	x0, x1, x0
   83388:	9343fc01 	asr	x1, x0, #3
   8338c:	b201f3e0 	mov	x0, #0xaaaaaaaaaaaaaaaa    	// #-6148914691236517206
   83390:	f2955560 	movk	x0, #0xaaab
   83394:	9b007c20 	mul	x0, x1, x0
   83398:	b90027e0 	str	w0, [sp, #36]
   8339c:	b94027e0 	ldr	w0, [sp, #36]
   833a0:	9400044b 	bl	844cc <uart_sendi>
   833a4:	90000020 	adrp	x0, 87000 <set_exception_vector_table>
   833a8:	911cc000 	add	x0, x0, #0x730
   833ac:	940003e6 	bl	84344 <uart_sends>
   833b0:	f94017e0 	ldr	x0, [sp, #40]
   833b4:	f9400400 	ldr	x0, [x0, #8]
   833b8:	f90017e0 	str	x0, [sp, #40]
   833bc:	f94017e1 	ldr	x1, [sp, #40]
   833c0:	f9400fe0 	ldr	x0, [sp, #24]
   833c4:	eb00003f 	cmp	x1, x0
   833c8:	54fffd61 	b.ne	83374 <list_show+0x30>  // b.any
   833cc:	90000020 	adrp	x0, 87000 <set_exception_vector_table>
   833d0:	911ce000 	add	x0, x0, #0x738
   833d4:	940003dc 	bl	84344 <uart_sends>
   833d8:	a8c37bfd 	ldp	x29, x30, [sp], #48
   833dc:	d65f03c0 	ret

00000000000833e0 <split>:
   833e0:	a9bd7bfd 	stp	x29, x30, [sp, #-48]!
   833e4:	910003fd 	mov	x29, sp
   833e8:	b9001fe0 	str	w0, [sp, #28]
   833ec:	b9001be1 	str	w1, [sp, #24]
   833f0:	b9401be0 	ldr	w0, [sp, #24]
   833f4:	7100001f 	cmp	w0, #0x0
   833f8:	54000360 	b.eq	83464 <split+0x84>  // b.none
   833fc:	b0000020 	adrp	x0, 88000 <get_current+0xce8>
   83400:	912ba000 	add	x0, x0, #0xae8
   83404:	f9400002 	ldr	x2, [x0]
   83408:	b9801fe1 	ldrsw	x1, [sp, #28]
   8340c:	aa0103e0 	mov	x0, x1
   83410:	d37ff800 	lsl	x0, x0, #1
   83414:	8b010000 	add	x0, x0, x1
   83418:	d37df000 	lsl	x0, x0, #3
   8341c:	8b000040 	add	x0, x2, x0
   83420:	39400000 	ldrb	w0, [x0]
   83424:	7103f81f 	cmp	w0, #0xfe
   83428:	540001e0 	b.eq	83464 <split+0x84>  // b.none
   8342c:	b0000020 	adrp	x0, 88000 <get_current+0xce8>
   83430:	912ba000 	add	x0, x0, #0xae8
   83434:	f9400002 	ldr	x2, [x0]
   83438:	b9801fe1 	ldrsw	x1, [sp, #28]
   8343c:	aa0103e0 	mov	x0, x1
   83440:	d37ff800 	lsl	x0, x0, #1
   83444:	8b010000 	add	x0, x0, x1
   83448:	d37df000 	lsl	x0, x0, #3
   8344c:	8b000040 	add	x0, x2, x0
   83450:	39400400 	ldrb	w0, [x0, #1]
   83454:	2a0003e1 	mov	w1, w0
   83458:	b9401be0 	ldr	w0, [sp, #24]
   8345c:	6b01001f 	cmp	w0, w1
   83460:	54000060 	b.eq	8346c <split+0x8c>  // b.none
   83464:	b9401fe0 	ldr	w0, [sp, #28]
   83468:	14000030 	b	83528 <split+0x148>
   8346c:	b9401be0 	ldr	w0, [sp, #24]
   83470:	b9401fe1 	ldr	w1, [sp, #28]
   83474:	97ffff65 	bl	83208 <list_del>
   83478:	b9401be0 	ldr	w0, [sp, #24]
   8347c:	51000400 	sub	w0, w0, #0x1
   83480:	52800021 	mov	w1, #0x1                   	// #1
   83484:	1ac02020 	lsl	w0, w1, w0
   83488:	b9401fe1 	ldr	w1, [sp, #28]
   8348c:	4a000020 	eor	w0, w1, w0
   83490:	b9002fe0 	str	w0, [sp, #44]
   83494:	b9401be0 	ldr	w0, [sp, #24]
   83498:	12001c02 	and	w2, w0, #0xff
   8349c:	b0000020 	adrp	x0, 88000 <get_current+0xce8>
   834a0:	912ba000 	add	x0, x0, #0xae8
   834a4:	f9400003 	ldr	x3, [x0]
   834a8:	b9801fe1 	ldrsw	x1, [sp, #28]
   834ac:	aa0103e0 	mov	x0, x1
   834b0:	d37ff800 	lsl	x0, x0, #1
   834b4:	8b010000 	add	x0, x0, x1
   834b8:	d37df000 	lsl	x0, x0, #3
   834bc:	8b000060 	add	x0, x3, x0
   834c0:	51000441 	sub	w1, w2, #0x1
   834c4:	12001c21 	and	w1, w1, #0xff
   834c8:	39000401 	strb	w1, [x0, #1]
   834cc:	b9401be0 	ldr	w0, [sp, #24]
   834d0:	12001c02 	and	w2, w0, #0xff
   834d4:	b0000020 	adrp	x0, 88000 <get_current+0xce8>
   834d8:	912ba000 	add	x0, x0, #0xae8
   834dc:	f9400003 	ldr	x3, [x0]
   834e0:	b9802fe1 	ldrsw	x1, [sp, #44]
   834e4:	aa0103e0 	mov	x0, x1
   834e8:	d37ff800 	lsl	x0, x0, #1
   834ec:	8b010000 	add	x0, x0, x1
   834f0:	d37df000 	lsl	x0, x0, #3
   834f4:	8b000060 	add	x0, x3, x0
   834f8:	51000441 	sub	w1, w2, #0x1
   834fc:	12001c21 	and	w1, w1, #0xff
   83500:	39000401 	strb	w1, [x0, #1]
   83504:	b9401be0 	ldr	w0, [sp, #24]
   83508:	51000400 	sub	w0, w0, #0x1
   8350c:	b9401fe1 	ldr	w1, [sp, #28]
   83510:	97ffff04 	bl	83120 <list_add>
   83514:	b9401be0 	ldr	w0, [sp, #24]
   83518:	51000400 	sub	w0, w0, #0x1
   8351c:	b9402fe1 	ldr	w1, [sp, #44]
   83520:	97ffff00 	bl	83120 <list_add>
   83524:	b9402fe0 	ldr	w0, [sp, #44]
   83528:	a8c37bfd 	ldp	x29, x30, [sp], #48
   8352c:	d65f03c0 	ret

0000000000083530 <coalesce>:
   83530:	a9bd7bfd 	stp	x29, x30, [sp, #-48]!
   83534:	910003fd 	mov	x29, sp
   83538:	b9001fe0 	str	w0, [sp, #28]
   8353c:	b9001be1 	str	w1, [sp, #24]
   83540:	b9401be0 	ldr	w0, [sp, #24]
   83544:	52800021 	mov	w1, #0x1                   	// #1
   83548:	1ac02020 	lsl	w0, w1, w0
   8354c:	b9401fe1 	ldr	w1, [sp, #28]
   83550:	4a000020 	eor	w0, w1, w0
   83554:	b9002fe0 	str	w0, [sp, #44]
   83558:	b0000020 	adrp	x0, 88000 <get_current+0xce8>
   8355c:	912ba000 	add	x0, x0, #0xae8
   83560:	f9400002 	ldr	x2, [x0]
   83564:	b9802fe1 	ldrsw	x1, [sp, #44]
   83568:	aa0103e0 	mov	x0, x1
   8356c:	d37ff800 	lsl	x0, x0, #1
   83570:	8b010000 	add	x0, x0, x1
   83574:	d37df000 	lsl	x0, x0, #3
   83578:	8b000040 	add	x0, x2, x0
   8357c:	39400000 	ldrb	w0, [x0]
   83580:	7103fc1f 	cmp	w0, #0xff
   83584:	54000941 	b.ne	836ac <coalesce+0x17c>  // b.any
   83588:	b0000020 	adrp	x0, 88000 <get_current+0xce8>
   8358c:	912ba000 	add	x0, x0, #0xae8
   83590:	f9400002 	ldr	x2, [x0]
   83594:	b9802fe1 	ldrsw	x1, [sp, #44]
   83598:	aa0103e0 	mov	x0, x1
   8359c:	d37ff800 	lsl	x0, x0, #1
   835a0:	8b010000 	add	x0, x0, x1
   835a4:	d37df000 	lsl	x0, x0, #3
   835a8:	8b000040 	add	x0, x2, x0
   835ac:	39400400 	ldrb	w0, [x0, #1]
   835b0:	2a0003e1 	mov	w1, w0
   835b4:	b9401be0 	ldr	w0, [sp, #24]
   835b8:	6b01001f 	cmp	w0, w1
   835bc:	54000781 	b.ne	836ac <coalesce+0x17c>  // b.any
   835c0:	b0000020 	adrp	x0, 88000 <get_current+0xce8>
   835c4:	912ba000 	add	x0, x0, #0xae8
   835c8:	f9400002 	ldr	x2, [x0]
   835cc:	b9801fe1 	ldrsw	x1, [sp, #28]
   835d0:	aa0103e0 	mov	x0, x1
   835d4:	d37ff800 	lsl	x0, x0, #1
   835d8:	8b010000 	add	x0, x0, x1
   835dc:	d37df000 	lsl	x0, x0, #3
   835e0:	8b000040 	add	x0, x2, x0
   835e4:	12800001 	mov	w1, #0xffffffff            	// #-1
   835e8:	39000401 	strb	w1, [x0, #1]
   835ec:	b0000020 	adrp	x0, 88000 <get_current+0xce8>
   835f0:	912ba000 	add	x0, x0, #0xae8
   835f4:	f9400002 	ldr	x2, [x0]
   835f8:	b9802fe1 	ldrsw	x1, [sp, #44]
   835fc:	aa0103e0 	mov	x0, x1
   83600:	d37ff800 	lsl	x0, x0, #1
   83604:	8b010000 	add	x0, x0, x1
   83608:	d37df000 	lsl	x0, x0, #3
   8360c:	8b000040 	add	x0, x2, x0
   83610:	12800001 	mov	w1, #0xffffffff            	// #-1
   83614:	39000401 	strb	w1, [x0, #1]
   83618:	b9401fe0 	ldr	w0, [sp, #28]
   8361c:	b9402fe2 	ldr	w2, [sp, #44]
   83620:	b9402fe1 	ldr	w1, [sp, #44]
   83624:	6b00005f 	cmp	w2, w0
   83628:	1a80d020 	csel	w0, w1, w0, le
   8362c:	b9002be0 	str	w0, [sp, #40]
   83630:	b9401be0 	ldr	w0, [sp, #24]
   83634:	11000400 	add	w0, w0, #0x1
   83638:	b90027e0 	str	w0, [sp, #36]
   8363c:	b94027e0 	ldr	w0, [sp, #36]
   83640:	7100281f 	cmp	w0, #0xa
   83644:	54000388 	b.hi	836b4 <coalesce+0x184>  // b.pmore
   83648:	b9401be0 	ldr	w0, [sp, #24]
   8364c:	b9401fe1 	ldr	w1, [sp, #28]
   83650:	97fffeee 	bl	83208 <list_del>
   83654:	b9401be0 	ldr	w0, [sp, #24]
   83658:	b9402fe1 	ldr	w1, [sp, #44]
   8365c:	97fffeeb 	bl	83208 <list_del>
   83660:	b0000020 	adrp	x0, 88000 <get_current+0xce8>
   83664:	912ba000 	add	x0, x0, #0xae8
   83668:	f9400002 	ldr	x2, [x0]
   8366c:	b9802be1 	ldrsw	x1, [sp, #40]
   83670:	aa0103e0 	mov	x0, x1
   83674:	d37ff800 	lsl	x0, x0, #1
   83678:	8b010000 	add	x0, x0, x1
   8367c:	d37df000 	lsl	x0, x0, #3
   83680:	8b000040 	add	x0, x2, x0
   83684:	b94027e1 	ldr	w1, [sp, #36]
   83688:	12001c21 	and	w1, w1, #0xff
   8368c:	39000401 	strb	w1, [x0, #1]
   83690:	b94027e0 	ldr	w0, [sp, #36]
   83694:	b9402be1 	ldr	w1, [sp, #40]
   83698:	97fffea2 	bl	83120 <list_add>
   8369c:	b94027e1 	ldr	w1, [sp, #36]
   836a0:	b9402be0 	ldr	w0, [sp, #40]
   836a4:	97ffffa3 	bl	83530 <coalesce>
   836a8:	14000004 	b	836b8 <coalesce+0x188>
   836ac:	d503201f 	nop
   836b0:	14000002 	b	836b8 <coalesce+0x188>
   836b4:	d503201f 	nop
   836b8:	a8c37bfd 	ldp	x29, x30, [sp], #48
   836bc:	d65f03c0 	ret

00000000000836c0 <buddy_init>:
   836c0:	a9be7bfd 	stp	x29, x30, [sp, #-32]!
   836c4:	910003fd 	mov	x29, sp
   836c8:	52a00b40 	mov	w0, #0x5a0000              	// #5898240
   836cc:	97fffa93 	bl	82118 <simple_malloc>
   836d0:	aa0003e1 	mov	x1, x0
   836d4:	b0000020 	adrp	x0, 88000 <get_current+0xce8>
   836d8:	912ba000 	add	x0, x0, #0xae8
   836dc:	f9000001 	str	x1, [x0]
   836e0:	b0000020 	adrp	x0, 88000 <get_current+0xce8>
   836e4:	912ba000 	add	x0, x0, #0xae8
   836e8:	f9400000 	ldr	x0, [x0]
   836ec:	f100001f 	cmp	x0, #0x0
   836f0:	540000a1 	b.ne	83704 <buddy_init+0x44>  // b.any
   836f4:	90000020 	adrp	x0, 87000 <set_exception_vector_table>
   836f8:	911d0000 	add	x0, x0, #0x740
   836fc:	94000312 	bl	84344 <uart_sends>
   83700:	14000052 	b	83848 <buddy_init+0x188>
   83704:	b9001fff 	str	wzr, [sp, #28]
   83708:	14000025 	b	8379c <buddy_init+0xdc>
   8370c:	b0000020 	adrp	x0, 88000 <get_current+0xce8>
   83710:	912ba000 	add	x0, x0, #0xae8
   83714:	f9400002 	ldr	x2, [x0]
   83718:	b9801fe1 	ldrsw	x1, [sp, #28]
   8371c:	aa0103e0 	mov	x0, x1
   83720:	d37ff800 	lsl	x0, x0, #1
   83724:	8b010000 	add	x0, x0, x1
   83728:	d37df000 	lsl	x0, x0, #3
   8372c:	8b000040 	add	x0, x2, x0
   83730:	12800001 	mov	w1, #0xffffffff            	// #-1
   83734:	39000001 	strb	w1, [x0]
   83738:	b0000020 	adrp	x0, 88000 <get_current+0xce8>
   8373c:	912ba000 	add	x0, x0, #0xae8
   83740:	f9400002 	ldr	x2, [x0]
   83744:	b9801fe1 	ldrsw	x1, [sp, #28]
   83748:	aa0103e0 	mov	x0, x1
   8374c:	d37ff800 	lsl	x0, x0, #1
   83750:	8b010000 	add	x0, x0, x1
   83754:	d37df000 	lsl	x0, x0, #3
   83758:	8b000040 	add	x0, x2, x0
   8375c:	12800001 	mov	w1, #0xffffffff            	// #-1
   83760:	39000401 	strb	w1, [x0, #1]
   83764:	b0000020 	adrp	x0, 88000 <get_current+0xce8>
   83768:	912ba000 	add	x0, x0, #0xae8
   8376c:	f9400002 	ldr	x2, [x0]
   83770:	b9801fe1 	ldrsw	x1, [sp, #28]
   83774:	aa0103e0 	mov	x0, x1
   83778:	d37ff800 	lsl	x0, x0, #1
   8377c:	8b010000 	add	x0, x0, x1
   83780:	d37df000 	lsl	x0, x0, #3
   83784:	8b000040 	add	x0, x2, x0
   83788:	12800001 	mov	w1, #0xffffffff            	// #-1
   8378c:	b9000401 	str	w1, [x0, #4]
   83790:	b9401fe0 	ldr	w0, [sp, #28]
   83794:	11000400 	add	w0, w0, #0x1
   83798:	b9001fe0 	str	w0, [sp, #28]
   8379c:	b9401fe0 	ldr	w0, [sp, #28]
   837a0:	7140f01f 	cmp	w0, #0x3c, lsl #12
   837a4:	54fffb4b 	b.lt	8370c <buddy_init+0x4c>  // b.tstop
   837a8:	b9001bff 	str	wzr, [sp, #24]
   837ac:	14000008 	b	837cc <buddy_init+0x10c>
   837b0:	b0000020 	adrp	x0, 88000 <get_current+0xce8>
   837b4:	912bc000 	add	x0, x0, #0xaf0
   837b8:	b9801be1 	ldrsw	x1, [sp, #24]
   837bc:	f821781f 	str	xzr, [x0, x1, lsl #3]
   837c0:	b9401be0 	ldr	w0, [sp, #24]
   837c4:	11000400 	add	w0, w0, #0x1
   837c8:	b9001be0 	str	w0, [sp, #24]
   837cc:	b9401be0 	ldr	w0, [sp, #24]
   837d0:	7100281f 	cmp	w0, #0xa
   837d4:	54fffeed 	b.le	837b0 <buddy_init+0xf0>
   837d8:	52808000 	mov	w0, #0x400                 	// #1024
   837dc:	b90013e0 	str	w0, [sp, #16]
   837e0:	b90017ff 	str	wzr, [sp, #20]
   837e4:	14000013 	b	83830 <buddy_init+0x170>
   837e8:	b0000020 	adrp	x0, 88000 <get_current+0xce8>
   837ec:	912ba000 	add	x0, x0, #0xae8
   837f0:	f9400002 	ldr	x2, [x0]
   837f4:	b98017e1 	ldrsw	x1, [sp, #20]
   837f8:	aa0103e0 	mov	x0, x1
   837fc:	d37ff800 	lsl	x0, x0, #1
   83800:	8b010000 	add	x0, x0, x1
   83804:	d37df000 	lsl	x0, x0, #3
   83808:	8b000040 	add	x0, x2, x0
   8380c:	52800141 	mov	w1, #0xa                   	// #10
   83810:	39000401 	strb	w1, [x0, #1]
   83814:	b94017e1 	ldr	w1, [sp, #20]
   83818:	52800140 	mov	w0, #0xa                   	// #10
   8381c:	97fffe41 	bl	83120 <list_add>
   83820:	b94017e1 	ldr	w1, [sp, #20]
   83824:	b94013e0 	ldr	w0, [sp, #16]
   83828:	0b000020 	add	w0, w1, w0
   8382c:	b90017e0 	str	w0, [sp, #20]
   83830:	b94017e0 	ldr	w0, [sp, #20]
   83834:	7140f01f 	cmp	w0, #0x3c, lsl #12
   83838:	54fffd8b 	b.lt	837e8 <buddy_init+0x128>  // b.tstop
   8383c:	90000020 	adrp	x0, 87000 <set_exception_vector_table>
   83840:	911d8000 	add	x0, x0, #0x760
   83844:	940002c0 	bl	84344 <uart_sends>
   83848:	a8c27bfd 	ldp	x29, x30, [sp], #32
   8384c:	d65f03c0 	ret

0000000000083850 <alloc_pages>:
   83850:	a9bd7bfd 	stp	x29, x30, [sp, #-48]!
   83854:	910003fd 	mov	x29, sp
   83858:	b9001fe0 	str	w0, [sp, #28]
   8385c:	b9401fe0 	ldr	w0, [sp, #28]
   83860:	7100281f 	cmp	w0, #0xa
   83864:	540000cd 	b.le	8387c <alloc_pages+0x2c>
   83868:	90000020 	adrp	x0, 87000 <set_exception_vector_table>
   8386c:	911de000 	add	x0, x0, #0x778
   83870:	940002b5 	bl	84344 <uart_sends>
   83874:	d2800000 	mov	x0, #0x0                   	// #0
   83878:	14000035 	b	8394c <alloc_pages+0xfc>
   8387c:	b9002fff 	str	wzr, [sp, #44]
   83880:	b9401fe0 	ldr	w0, [sp, #28]
   83884:	b9002be0 	str	w0, [sp, #40]
   83888:	1400001d 	b	838fc <alloc_pages+0xac>
   8388c:	b0000020 	adrp	x0, 88000 <get_current+0xce8>
   83890:	912bc000 	add	x0, x0, #0xaf0
   83894:	b9802be1 	ldrsw	x1, [sp, #40]
   83898:	f8617800 	ldr	x0, [x0, x1, lsl #3]
   8389c:	f100001f 	cmp	x0, #0x0
   838a0:	54000280 	b.eq	838f0 <alloc_pages+0xa0>  // b.none
   838a4:	b9402be0 	ldr	w0, [sp, #40]
   838a8:	97fffe89 	bl	832cc <list_pop>
   838ac:	b9002fe0 	str	w0, [sp, #44]
   838b0:	1400000b 	b	838dc <alloc_pages+0x8c>
   838b4:	b9402be0 	ldr	w0, [sp, #40]
   838b8:	2a0003e1 	mov	w1, w0
   838bc:	b9402fe0 	ldr	w0, [sp, #44]
   838c0:	97fffec8 	bl	833e0 <split>
   838c4:	b90027e0 	str	w0, [sp, #36]
   838c8:	b94027e0 	ldr	w0, [sp, #36]
   838cc:	b9002fe0 	str	w0, [sp, #44]
   838d0:	b9402be0 	ldr	w0, [sp, #40]
   838d4:	51000400 	sub	w0, w0, #0x1
   838d8:	b9002be0 	str	w0, [sp, #40]
   838dc:	b9402be1 	ldr	w1, [sp, #40]
   838e0:	b9401fe0 	ldr	w0, [sp, #28]
   838e4:	6b00003f 	cmp	w1, w0
   838e8:	54fffe6c 	b.gt	838b4 <alloc_pages+0x64>
   838ec:	14000007 	b	83908 <alloc_pages+0xb8>
   838f0:	b9402be0 	ldr	w0, [sp, #40]
   838f4:	11000400 	add	w0, w0, #0x1
   838f8:	b9002be0 	str	w0, [sp, #40]
   838fc:	b9402be0 	ldr	w0, [sp, #40]
   83900:	7100281f 	cmp	w0, #0xa
   83904:	54fffc4d 	b.le	8388c <alloc_pages+0x3c>
   83908:	b0000020 	adrp	x0, 88000 <get_current+0xce8>
   8390c:	912ba000 	add	x0, x0, #0xae8
   83910:	f9400002 	ldr	x2, [x0]
   83914:	b9802fe1 	ldrsw	x1, [sp, #44]
   83918:	aa0103e0 	mov	x0, x1
   8391c:	d37ff800 	lsl	x0, x0, #1
   83920:	8b010000 	add	x0, x0, x1
   83924:	d37df000 	lsl	x0, x0, #3
   83928:	8b000040 	add	x0, x2, x0
   8392c:	12800021 	mov	w1, #0xfffffffe            	// #-2
   83930:	39000001 	strb	w1, [x0]
   83934:	b9402fe1 	ldr	w1, [sp, #44]
   83938:	b9401fe0 	ldr	w0, [sp, #28]
   8393c:	97fffe33 	bl	83208 <list_del>
   83940:	b9402fe0 	ldr	w0, [sp, #44]
   83944:	53144c00 	lsl	w0, w0, #12
   83948:	93407c00 	sxtw	x0, w0
   8394c:	a8c37bfd 	ldp	x29, x30, [sp], #48
   83950:	d65f03c0 	ret

0000000000083954 <free_pages>:
   83954:	a9bd7bfd 	stp	x29, x30, [sp, #-48]!
   83958:	910003fd 	mov	x29, sp
   8395c:	f9000fe0 	str	x0, [sp, #24]
   83960:	f9400fe0 	ldr	x0, [sp, #24]
   83964:	d34cfc00 	lsr	x0, x0, #12
   83968:	b9002fe0 	str	w0, [sp, #44]
   8396c:	b0000020 	adrp	x0, 88000 <get_current+0xce8>
   83970:	912ba000 	add	x0, x0, #0xae8
   83974:	f9400002 	ldr	x2, [x0]
   83978:	b9802fe1 	ldrsw	x1, [sp, #44]
   8397c:	aa0103e0 	mov	x0, x1
   83980:	d37ff800 	lsl	x0, x0, #1
   83984:	8b010000 	add	x0, x0, x1
   83988:	d37df000 	lsl	x0, x0, #3
   8398c:	8b000040 	add	x0, x2, x0
   83990:	39400000 	ldrb	w0, [x0]
   83994:	7103fc1f 	cmp	w0, #0xff
   83998:	540000a1 	b.ne	839ac <free_pages+0x58>  // b.any
   8399c:	90000020 	adrp	x0, 87000 <set_exception_vector_table>
   839a0:	911e6000 	add	x0, x0, #0x798
   839a4:	94000268 	bl	84344 <uart_sends>
   839a8:	1400001b 	b	83a14 <free_pages+0xc0>
   839ac:	b0000020 	adrp	x0, 88000 <get_current+0xce8>
   839b0:	912ba000 	add	x0, x0, #0xae8
   839b4:	f9400002 	ldr	x2, [x0]
   839b8:	b9802fe1 	ldrsw	x1, [sp, #44]
   839bc:	aa0103e0 	mov	x0, x1
   839c0:	d37ff800 	lsl	x0, x0, #1
   839c4:	8b010000 	add	x0, x0, x1
   839c8:	d37df000 	lsl	x0, x0, #3
   839cc:	8b000040 	add	x0, x2, x0
   839d0:	12800001 	mov	w1, #0xffffffff            	// #-1
   839d4:	39000001 	strb	w1, [x0]
   839d8:	b0000020 	adrp	x0, 88000 <get_current+0xce8>
   839dc:	912ba000 	add	x0, x0, #0xae8
   839e0:	f9400002 	ldr	x2, [x0]
   839e4:	b9802fe1 	ldrsw	x1, [sp, #44]
   839e8:	aa0103e0 	mov	x0, x1
   839ec:	d37ff800 	lsl	x0, x0, #1
   839f0:	8b010000 	add	x0, x0, x1
   839f4:	d37df000 	lsl	x0, x0, #3
   839f8:	8b000040 	add	x0, x2, x0
   839fc:	39400400 	ldrb	w0, [x0, #1]
   83a00:	b9002be0 	str	w0, [sp, #40]
   83a04:	b9402be0 	ldr	w0, [sp, #40]
   83a08:	2a0003e1 	mov	w1, w0
   83a0c:	b9402fe0 	ldr	w0, [sp, #44]
   83a10:	97fffec8 	bl	83530 <coalesce>
   83a14:	a8c37bfd 	ldp	x29, x30, [sp], #48
   83a18:	d65f03c0 	ret

0000000000083a1c <reserve>:
   83a1c:	a9bc7bfd 	stp	x29, x30, [sp, #-64]!
   83a20:	910003fd 	mov	x29, sp
   83a24:	f9000fe0 	str	x0, [sp, #24]
   83a28:	f9000be1 	str	x1, [sp, #16]
   83a2c:	f9400fe0 	ldr	x0, [sp, #24]
   83a30:	d34cfc00 	lsr	x0, x0, #12
   83a34:	b90033e0 	str	w0, [sp, #48]
   83a38:	f9400be0 	ldr	x0, [sp, #16]
   83a3c:	d34cfc00 	lsr	x0, x0, #12
   83a40:	b9002fe0 	str	w0, [sp, #44]
   83a44:	52800140 	mov	w0, #0xa                   	// #10
   83a48:	b9003fe0 	str	w0, [sp, #60]
   83a4c:	14000032 	b	83b14 <reserve+0xf8>
   83a50:	b9403fe0 	ldr	w0, [sp, #60]
   83a54:	52800021 	mov	w1, #0x1                   	// #1
   83a58:	1ac02021 	lsl	w1, w1, w0
   83a5c:	b94033e0 	ldr	w0, [sp, #48]
   83a60:	1ac10c02 	sdiv	w2, w0, w1
   83a64:	1b017c41 	mul	w1, w2, w1
   83a68:	4b010000 	sub	w0, w0, w1
   83a6c:	b94033e1 	ldr	w1, [sp, #48]
   83a70:	4b000020 	sub	w0, w1, w0
   83a74:	b9002be0 	str	w0, [sp, #40]
   83a78:	b9403fe0 	ldr	w0, [sp, #60]
   83a7c:	52800021 	mov	w1, #0x1                   	// #1
   83a80:	1ac02021 	lsl	w1, w1, w0
   83a84:	b9402fe0 	ldr	w0, [sp, #44]
   83a88:	1ac10c02 	sdiv	w2, w0, w1
   83a8c:	1b017c41 	mul	w1, w2, w1
   83a90:	4b010000 	sub	w0, w0, w1
   83a94:	b9402fe1 	ldr	w1, [sp, #44]
   83a98:	4b000020 	sub	w0, w1, w0
   83a9c:	b90027e0 	str	w0, [sp, #36]
   83aa0:	b9402be1 	ldr	w1, [sp, #40]
   83aa4:	b94027e0 	ldr	w0, [sp, #36]
   83aa8:	6b00003f 	cmp	w1, w0
   83aac:	540000c1 	b.ne	83ac4 <reserve+0xa8>  // b.any
   83ab0:	b9403fe0 	ldr	w0, [sp, #60]
   83ab4:	2a0003e1 	mov	w1, w0
   83ab8:	b9402be0 	ldr	w0, [sp, #40]
   83abc:	97fffe49 	bl	833e0 <split>
   83ac0:	14000012 	b	83b08 <reserve+0xec>
   83ac4:	b9402be0 	ldr	w0, [sp, #40]
   83ac8:	b9003be0 	str	w0, [sp, #56]
   83acc:	1400000b 	b	83af8 <reserve+0xdc>
   83ad0:	b9403fe0 	ldr	w0, [sp, #60]
   83ad4:	2a0003e1 	mov	w1, w0
   83ad8:	b9403be0 	ldr	w0, [sp, #56]
   83adc:	97fffe41 	bl	833e0 <split>
   83ae0:	b9403fe0 	ldr	w0, [sp, #60]
   83ae4:	52800021 	mov	w1, #0x1                   	// #1
   83ae8:	1ac02020 	lsl	w0, w1, w0
   83aec:	b9403be1 	ldr	w1, [sp, #56]
   83af0:	0b000020 	add	w0, w1, w0
   83af4:	b9003be0 	str	w0, [sp, #56]
   83af8:	b9403be1 	ldr	w1, [sp, #56]
   83afc:	b94027e0 	ldr	w0, [sp, #36]
   83b00:	6b00003f 	cmp	w1, w0
   83b04:	54fffe6d 	b.le	83ad0 <reserve+0xb4>
   83b08:	b9403fe0 	ldr	w0, [sp, #60]
   83b0c:	51000400 	sub	w0, w0, #0x1
   83b10:	b9003fe0 	str	w0, [sp, #60]
   83b14:	b9403fe0 	ldr	w0, [sp, #60]
   83b18:	7100001f 	cmp	w0, #0x0
   83b1c:	54fff9ac 	b.gt	83a50 <reserve+0x34>
   83b20:	b94033e0 	ldr	w0, [sp, #48]
   83b24:	b90037e0 	str	w0, [sp, #52]
   83b28:	14000013 	b	83b74 <reserve+0x158>
   83b2c:	b0000020 	adrp	x0, 88000 <get_current+0xce8>
   83b30:	912ba000 	add	x0, x0, #0xae8
   83b34:	f9400002 	ldr	x2, [x0]
   83b38:	b98037e1 	ldrsw	x1, [sp, #52]
   83b3c:	aa0103e0 	mov	x0, x1
   83b40:	d37ff800 	lsl	x0, x0, #1
   83b44:	8b010000 	add	x0, x0, x1
   83b48:	d37df000 	lsl	x0, x0, #3
   83b4c:	8b000040 	add	x0, x2, x0
   83b50:	39400400 	ldrb	w0, [x0, #1]
   83b54:	7100001f 	cmp	w0, #0x0
   83b58:	54000081 	b.ne	83b68 <reserve+0x14c>  // b.any
   83b5c:	b94037e1 	ldr	w1, [sp, #52]
   83b60:	52800000 	mov	w0, #0x0                   	// #0
   83b64:	97fffda9 	bl	83208 <list_del>
   83b68:	b94037e0 	ldr	w0, [sp, #52]
   83b6c:	11000400 	add	w0, w0, #0x1
   83b70:	b90037e0 	str	w0, [sp, #52]
   83b74:	b94037e1 	ldr	w1, [sp, #52]
   83b78:	b9402fe0 	ldr	w0, [sp, #44]
   83b7c:	6b00003f 	cmp	w1, w0
   83b80:	54fffd6d 	b.le	83b2c <reserve+0x110>
   83b84:	d503201f 	nop
   83b88:	d503201f 	nop
   83b8c:	a8c47bfd 	ldp	x29, x30, [sp], #64
   83b90:	d65f03c0 	ret

0000000000083b94 <cache_list_add>:
   83b94:	d10083ff 	sub	sp, sp, #0x20
   83b98:	b9000fe0 	str	w0, [sp, #12]
   83b9c:	f90003e1 	str	x1, [sp]
   83ba0:	b9400fe0 	ldr	w0, [sp, #12]
   83ba4:	51000401 	sub	w1, w0, #0x1
   83ba8:	b0000020 	adrp	x0, 88000 <get_current+0xce8>
   83bac:	912d2000 	add	x0, x0, #0xb48
   83bb0:	93407c21 	sxtw	x1, w1
   83bb4:	f8617800 	ldr	x0, [x0, x1, lsl #3]
   83bb8:	f100001f 	cmp	x0, #0x0
   83bbc:	540001e1 	b.ne	83bf8 <cache_list_add+0x64>  // b.any
   83bc0:	b9400fe0 	ldr	w0, [sp, #12]
   83bc4:	51000401 	sub	w1, w0, #0x1
   83bc8:	b0000020 	adrp	x0, 88000 <get_current+0xce8>
   83bcc:	912d2000 	add	x0, x0, #0xb48
   83bd0:	93407c21 	sxtw	x1, w1
   83bd4:	f94003e2 	ldr	x2, [sp]
   83bd8:	f8217802 	str	x2, [x0, x1, lsl #3]
   83bdc:	f94003e0 	ldr	x0, [sp]
   83be0:	f94003e1 	ldr	x1, [sp]
   83be4:	f9001001 	str	x1, [x0, #32]
   83be8:	f94003e0 	ldr	x0, [sp]
   83bec:	f94003e1 	ldr	x1, [sp]
   83bf0:	f9000c01 	str	x1, [x0, #24]
   83bf4:	1400001f 	b	83c70 <cache_list_add+0xdc>
   83bf8:	b9400fe0 	ldr	w0, [sp, #12]
   83bfc:	51000401 	sub	w1, w0, #0x1
   83c00:	b0000020 	adrp	x0, 88000 <get_current+0xce8>
   83c04:	912d2000 	add	x0, x0, #0xb48
   83c08:	93407c21 	sxtw	x1, w1
   83c0c:	f8617800 	ldr	x0, [x0, x1, lsl #3]
   83c10:	f9401000 	ldr	x0, [x0, #32]
   83c14:	f9000fe0 	str	x0, [sp, #24]
   83c18:	b9400fe0 	ldr	w0, [sp, #12]
   83c1c:	51000401 	sub	w1, w0, #0x1
   83c20:	b0000020 	adrp	x0, 88000 <get_current+0xce8>
   83c24:	912d2000 	add	x0, x0, #0xb48
   83c28:	93407c21 	sxtw	x1, w1
   83c2c:	f8617800 	ldr	x0, [x0, x1, lsl #3]
   83c30:	f94003e1 	ldr	x1, [sp]
   83c34:	f9001001 	str	x1, [x0, #32]
   83c38:	b9400fe0 	ldr	w0, [sp, #12]
   83c3c:	51000401 	sub	w1, w0, #0x1
   83c40:	b0000020 	adrp	x0, 88000 <get_current+0xce8>
   83c44:	912d2000 	add	x0, x0, #0xb48
   83c48:	93407c21 	sxtw	x1, w1
   83c4c:	f8617801 	ldr	x1, [x0, x1, lsl #3]
   83c50:	f94003e0 	ldr	x0, [sp]
   83c54:	f9000c01 	str	x1, [x0, #24]
   83c58:	f94003e0 	ldr	x0, [sp]
   83c5c:	f9400fe1 	ldr	x1, [sp, #24]
   83c60:	f9001001 	str	x1, [x0, #32]
   83c64:	f9400fe0 	ldr	x0, [sp, #24]
   83c68:	f94003e1 	ldr	x1, [sp]
   83c6c:	f9000c01 	str	x1, [x0, #24]
   83c70:	d503201f 	nop
   83c74:	910083ff 	add	sp, sp, #0x20
   83c78:	d65f03c0 	ret

0000000000083c7c <object_list_add>:
   83c7c:	d10043ff 	sub	sp, sp, #0x10
   83c80:	f90007e0 	str	x0, [sp, #8]
   83c84:	f90003e1 	str	x1, [sp]
   83c88:	f94007e0 	ldr	x0, [sp, #8]
   83c8c:	f9400801 	ldr	x1, [x0, #16]
   83c90:	f94003e0 	ldr	x0, [sp]
   83c94:	f9000001 	str	x1, [x0]
   83c98:	f94007e0 	ldr	x0, [sp, #8]
   83c9c:	f94003e1 	ldr	x1, [sp]
   83ca0:	f9000801 	str	x1, [x0, #16]
   83ca4:	d503201f 	nop
   83ca8:	910043ff 	add	sp, sp, #0x10
   83cac:	d65f03c0 	ret

0000000000083cb0 <object_list_pop>:
   83cb0:	d10083ff 	sub	sp, sp, #0x20
   83cb4:	f90007e0 	str	x0, [sp, #8]
   83cb8:	f94007e0 	ldr	x0, [sp, #8]
   83cbc:	f9400800 	ldr	x0, [x0, #16]
   83cc0:	f9000fe0 	str	x0, [sp, #24]
   83cc4:	f94007e0 	ldr	x0, [sp, #8]
   83cc8:	f9400800 	ldr	x0, [x0, #16]
   83ccc:	f9400001 	ldr	x1, [x0]
   83cd0:	f94007e0 	ldr	x0, [sp, #8]
   83cd4:	f9000801 	str	x1, [x0, #16]
   83cd8:	f9400fe0 	ldr	x0, [sp, #24]
   83cdc:	910083ff 	add	sp, sp, #0x20
   83ce0:	d65f03c0 	ret

0000000000083ce4 <kmem_cache_create>:
   83ce4:	a9bc7bfd 	stp	x29, x30, [sp, #-64]!
   83ce8:	910003fd 	mov	x29, sp
   83cec:	b9001fe0 	str	w0, [sp, #28]
   83cf0:	b9401fe0 	ldr	w0, [sp, #28]
   83cf4:	7100141f 	cmp	w0, #0x5
   83cf8:	540000cd 	b.le	83d10 <kmem_cache_create+0x2c>
   83cfc:	90000020 	adrp	x0, 87000 <set_exception_vector_table>
   83d00:	911ee000 	add	x0, x0, #0x7b8
   83d04:	94000190 	bl	84344 <uart_sends>
   83d08:	d2800000 	mov	x0, #0x0                   	// #0
   83d0c:	14000045 	b	83e20 <kmem_cache_create+0x13c>
   83d10:	52800500 	mov	w0, #0x28                  	// #40
   83d14:	97fff901 	bl	82118 <simple_malloc>
   83d18:	f9001be0 	str	x0, [sp, #48]
   83d1c:	f9401be0 	ldr	x0, [sp, #48]
   83d20:	f100001f 	cmp	x0, #0x0
   83d24:	540000c1 	b.ne	83d3c <kmem_cache_create+0x58>  // b.any
   83d28:	90000020 	adrp	x0, 87000 <set_exception_vector_table>
   83d2c:	911f8000 	add	x0, x0, #0x7e0
   83d30:	94000185 	bl	84344 <uart_sends>
   83d34:	d2800000 	mov	x0, #0x0                   	// #0
   83d38:	1400003a 	b	83e20 <kmem_cache_create+0x13c>
   83d3c:	f9401be0 	ldr	x0, [sp, #48]
   83d40:	b9401fe1 	ldr	w1, [sp, #28]
   83d44:	b9000001 	str	w1, [x0]
   83d48:	52800000 	mov	w0, #0x0                   	// #0
   83d4c:	97fffec1 	bl	83850 <alloc_pages>
   83d50:	aa0003e1 	mov	x1, x0
   83d54:	f9401be0 	ldr	x0, [sp, #48]
   83d58:	f9000401 	str	x1, [x0, #8]
   83d5c:	b0000020 	adrp	x0, 88000 <get_current+0xce8>
   83d60:	912ba000 	add	x0, x0, #0xae8
   83d64:	f9400002 	ldr	x2, [x0]
   83d68:	f9401be0 	ldr	x0, [sp, #48]
   83d6c:	f9400400 	ldr	x0, [x0, #8]
   83d70:	d34cfc01 	lsr	x1, x0, #12
   83d74:	aa0103e0 	mov	x0, x1
   83d78:	d37ff800 	lsl	x0, x0, #1
   83d7c:	8b010000 	add	x0, x0, x1
   83d80:	d37df000 	lsl	x0, x0, #3
   83d84:	8b000040 	add	x0, x2, x0
   83d88:	b9401fe1 	ldr	w1, [sp, #28]
   83d8c:	b9000401 	str	w1, [x0, #4]
   83d90:	f9401be0 	ldr	x0, [sp, #48]
   83d94:	f900081f 	str	xzr, [x0, #16]
   83d98:	b9401fe0 	ldr	w0, [sp, #28]
   83d9c:	51000400 	sub	w0, w0, #0x1
   83da0:	52800201 	mov	w1, #0x10                  	// #16
   83da4:	1ac02020 	lsl	w0, w1, w0
   83da8:	b9002fe0 	str	w0, [sp, #44]
   83dac:	52820001 	mov	w1, #0x1000                	// #4096
   83db0:	b9402fe0 	ldr	w0, [sp, #44]
   83db4:	1ac00c20 	sdiv	w0, w1, w0
   83db8:	b9002be0 	str	w0, [sp, #40]
   83dbc:	b9003fff 	str	wzr, [sp, #60]
   83dc0:	14000010 	b	83e00 <kmem_cache_create+0x11c>
   83dc4:	f9401be0 	ldr	x0, [sp, #48]
   83dc8:	f9400400 	ldr	x0, [x0, #8]
   83dcc:	aa0003e2 	mov	x2, x0
   83dd0:	b9403fe1 	ldr	w1, [sp, #60]
   83dd4:	b9402fe0 	ldr	w0, [sp, #44]
   83dd8:	1b007c20 	mul	w0, w1, w0
   83ddc:	93407c00 	sxtw	x0, w0
   83de0:	8b000040 	add	x0, x2, x0
   83de4:	f90013e0 	str	x0, [sp, #32]
   83de8:	f94013e1 	ldr	x1, [sp, #32]
   83dec:	f9401be0 	ldr	x0, [sp, #48]
   83df0:	97ffffa3 	bl	83c7c <object_list_add>
   83df4:	b9403fe0 	ldr	w0, [sp, #60]
   83df8:	11000400 	add	w0, w0, #0x1
   83dfc:	b9003fe0 	str	w0, [sp, #60]
   83e00:	b9403fe1 	ldr	w1, [sp, #60]
   83e04:	b9402be0 	ldr	w0, [sp, #40]
   83e08:	6b00003f 	cmp	w1, w0
   83e0c:	54fffdcb 	b.lt	83dc4 <kmem_cache_create+0xe0>  // b.tstop
   83e10:	f9401be1 	ldr	x1, [sp, #48]
   83e14:	b9401fe0 	ldr	w0, [sp, #28]
   83e18:	97ffff5f 	bl	83b94 <cache_list_add>
   83e1c:	f9401be0 	ldr	x0, [sp, #48]
   83e20:	a8c47bfd 	ldp	x29, x30, [sp], #64
   83e24:	d65f03c0 	ret

0000000000083e28 <kmem_cache_init>:
   83e28:	a9be7bfd 	stp	x29, x30, [sp, #-32]!
   83e2c:	910003fd 	mov	x29, sp
   83e30:	b9001fff 	str	wzr, [sp, #28]
   83e34:	1400000b 	b	83e60 <kmem_cache_init+0x38>
   83e38:	b0000020 	adrp	x0, 88000 <get_current+0xce8>
   83e3c:	912d2000 	add	x0, x0, #0xb48
   83e40:	b9801fe1 	ldrsw	x1, [sp, #28]
   83e44:	f821781f 	str	xzr, [x0, x1, lsl #3]
   83e48:	b9401fe0 	ldr	w0, [sp, #28]
   83e4c:	11000400 	add	w0, w0, #0x1
   83e50:	97ffffa5 	bl	83ce4 <kmem_cache_create>
   83e54:	b9401fe0 	ldr	w0, [sp, #28]
   83e58:	11000400 	add	w0, w0, #0x1
   83e5c:	b9001fe0 	str	w0, [sp, #28]
   83e60:	b9401fe0 	ldr	w0, [sp, #28]
   83e64:	7100101f 	cmp	w0, #0x4
   83e68:	54fffe8d 	b.le	83e38 <kmem_cache_init+0x10>
   83e6c:	d503201f 	nop
   83e70:	d503201f 	nop
   83e74:	a8c27bfd 	ldp	x29, x30, [sp], #32
   83e78:	d65f03c0 	ret

0000000000083e7c <kmem_cache_find>:
   83e7c:	a9bc7bfd 	stp	x29, x30, [sp, #-64]!
   83e80:	910003fd 	mov	x29, sp
   83e84:	b9001fe0 	str	w0, [sp, #28]
   83e88:	b9401fe0 	ldr	w0, [sp, #28]
   83e8c:	11003c00 	add	w0, w0, #0xf
   83e90:	13047c00 	asr	w0, w0, #4
   83e94:	b9002fe0 	str	w0, [sp, #44]
   83e98:	b9003fff 	str	wzr, [sp, #60]
   83e9c:	14000004 	b	83eac <kmem_cache_find+0x30>
   83ea0:	b9403fe0 	ldr	w0, [sp, #60]
   83ea4:	11000400 	add	w0, w0, #0x1
   83ea8:	b9003fe0 	str	w0, [sp, #60]
   83eac:	b9403fe0 	ldr	w0, [sp, #60]
   83eb0:	52800021 	mov	w1, #0x1                   	// #1
   83eb4:	1ac02020 	lsl	w0, w1, w0
   83eb8:	b9402fe1 	ldr	w1, [sp, #44]
   83ebc:	6b00003f 	cmp	w1, w0
   83ec0:	54ffff0c 	b.gt	83ea0 <kmem_cache_find+0x24>
   83ec4:	b9403fe0 	ldr	w0, [sp, #60]
   83ec8:	7100141f 	cmp	w0, #0x5
   83ecc:	540000cd 	b.le	83ee4 <kmem_cache_find+0x68>
   83ed0:	90000020 	adrp	x0, 87000 <set_exception_vector_table>
   83ed4:	911fe000 	add	x0, x0, #0x7f8
   83ed8:	9400011b 	bl	84344 <uart_sends>
   83edc:	d2800000 	mov	x0, #0x0                   	// #0
   83ee0:	1400001a 	b	83f48 <kmem_cache_find+0xcc>
   83ee4:	b0000020 	adrp	x0, 88000 <get_current+0xce8>
   83ee8:	912d2000 	add	x0, x0, #0xb48
   83eec:	b9803fe1 	ldrsw	x1, [sp, #60]
   83ef0:	f8617800 	ldr	x0, [x0, x1, lsl #3]
   83ef4:	f9001be0 	str	x0, [sp, #48]
   83ef8:	1400000f 	b	83f34 <kmem_cache_find+0xb8>
   83efc:	f9401be0 	ldr	x0, [sp, #48]
   83f00:	f9400c00 	ldr	x0, [x0, #24]
   83f04:	f9001be0 	str	x0, [sp, #48]
   83f08:	b0000020 	adrp	x0, 88000 <get_current+0xce8>
   83f0c:	912d2000 	add	x0, x0, #0xb48
   83f10:	b9803fe1 	ldrsw	x1, [sp, #60]
   83f14:	f8617800 	ldr	x0, [x0, x1, lsl #3]
   83f18:	f9401be1 	ldr	x1, [sp, #48]
   83f1c:	eb00003f 	cmp	x1, x0
   83f20:	540000a1 	b.ne	83f34 <kmem_cache_find+0xb8>  // b.any
   83f24:	b9403fe0 	ldr	w0, [sp, #60]
   83f28:	97ffff6f 	bl	83ce4 <kmem_cache_create>
   83f2c:	f9001be0 	str	x0, [sp, #48]
   83f30:	14000005 	b	83f44 <kmem_cache_find+0xc8>
   83f34:	f9401be0 	ldr	x0, [sp, #48]
   83f38:	f9400800 	ldr	x0, [x0, #16]
   83f3c:	f100001f 	cmp	x0, #0x0
   83f40:	54fffde0 	b.eq	83efc <kmem_cache_find+0x80>  // b.none
   83f44:	f9401be0 	ldr	x0, [sp, #48]
   83f48:	a8c47bfd 	ldp	x29, x30, [sp], #64
   83f4c:	d65f03c0 	ret

0000000000083f50 <address_to_cache>:
   83f50:	d100c3ff 	sub	sp, sp, #0x30
   83f54:	f90007e0 	str	x0, [sp, #8]
   83f58:	b90007e1 	str	w1, [sp, #4]
   83f5c:	f94007e0 	ldr	x0, [sp, #8]
   83f60:	d34cfc00 	lsr	x0, x0, #12
   83f64:	f90013e0 	str	x0, [sp, #32]
   83f68:	b0000020 	adrp	x0, 88000 <get_current+0xce8>
   83f6c:	912ba000 	add	x0, x0, #0xae8
   83f70:	f9400002 	ldr	x2, [x0]
   83f74:	b98007e1 	ldrsw	x1, [sp, #4]
   83f78:	aa0103e0 	mov	x0, x1
   83f7c:	d37ff800 	lsl	x0, x0, #1
   83f80:	8b010000 	add	x0, x0, x1
   83f84:	d37df000 	lsl	x0, x0, #3
   83f88:	8b000040 	add	x0, x2, x0
   83f8c:	b9400400 	ldr	w0, [x0, #4]
   83f90:	b9001fe0 	str	w0, [sp, #28]
   83f94:	b9401fe0 	ldr	w0, [sp, #28]
   83f98:	51000401 	sub	w1, w0, #0x1
   83f9c:	b0000020 	adrp	x0, 88000 <get_current+0xce8>
   83fa0:	912d2000 	add	x0, x0, #0xb48
   83fa4:	93407c21 	sxtw	x1, w1
   83fa8:	f8617800 	ldr	x0, [x0, x1, lsl #3]
   83fac:	f90017e0 	str	x0, [sp, #40]
   83fb0:	f94017e0 	ldr	x0, [sp, #40]
   83fb4:	f9400400 	ldr	x0, [x0, #8]
   83fb8:	d34cfc00 	lsr	x0, x0, #12
   83fbc:	f9000be0 	str	x0, [sp, #16]
   83fc0:	f94013e1 	ldr	x1, [sp, #32]
   83fc4:	f9400be0 	ldr	x0, [sp, #16]
   83fc8:	eb00003f 	cmp	x1, x0
   83fcc:	54000061 	b.ne	83fd8 <address_to_cache+0x88>  // b.any
   83fd0:	f94017e0 	ldr	x0, [sp, #40]
   83fd4:	1400000c 	b	84004 <address_to_cache+0xb4>
   83fd8:	f94017e0 	ldr	x0, [sp, #40]
   83fdc:	f9400c00 	ldr	x0, [x0, #24]
   83fe0:	f90017e0 	str	x0, [sp, #40]
   83fe4:	b0000020 	adrp	x0, 88000 <get_current+0xce8>
   83fe8:	912d2000 	add	x0, x0, #0xb48
   83fec:	b9801fe1 	ldrsw	x1, [sp, #28]
   83ff0:	f8617800 	ldr	x0, [x0, x1, lsl #3]
   83ff4:	f94017e1 	ldr	x1, [sp, #40]
   83ff8:	eb00003f 	cmp	x1, x0
   83ffc:	54fffda1 	b.ne	83fb0 <address_to_cache+0x60>  // b.any
   84000:	d2800000 	mov	x0, #0x0                   	// #0
   84004:	9100c3ff 	add	sp, sp, #0x30
   84008:	d65f03c0 	ret

000000000008400c <kmem_cache_alloc>:
   8400c:	a9bd7bfd 	stp	x29, x30, [sp, #-48]!
   84010:	910003fd 	mov	x29, sp
   84014:	f9000fe0 	str	x0, [sp, #24]
   84018:	b90017e1 	str	w1, [sp, #20]
   8401c:	f9400fe0 	ldr	x0, [sp, #24]
   84020:	97ffff24 	bl	83cb0 <object_list_pop>
   84024:	f90017e0 	str	x0, [sp, #40]
   84028:	f94017e0 	ldr	x0, [sp, #40]
   8402c:	a8c37bfd 	ldp	x29, x30, [sp], #48
   84030:	d65f03c0 	ret

0000000000084034 <kmem_cache_free>:
   84034:	a9be7bfd 	stp	x29, x30, [sp, #-32]!
   84038:	910003fd 	mov	x29, sp
   8403c:	f9000fe0 	str	x0, [sp, #24]
   84040:	f9000be1 	str	x1, [sp, #16]
   84044:	f9400be1 	ldr	x1, [sp, #16]
   84048:	f9400fe0 	ldr	x0, [sp, #24]
   8404c:	97ffff0c 	bl	83c7c <object_list_add>
   84050:	d503201f 	nop
   84054:	a8c27bfd 	ldp	x29, x30, [sp], #32
   84058:	d65f03c0 	ret

000000000008405c <kmalloc>:
   8405c:	a9bc7bfd 	stp	x29, x30, [sp, #-64]!
   84060:	910003fd 	mov	x29, sp
   84064:	b9001fe0 	str	w0, [sp, #28]
   84068:	b9401fe0 	ldr	w0, [sp, #28]
   8406c:	7103fc1f 	cmp	w0, #0xff
   84070:	540001ed 	b.le	840ac <kmalloc+0x50>
   84074:	b9003fff 	str	wzr, [sp, #60]
   84078:	14000004 	b	84088 <kmalloc+0x2c>
   8407c:	b9403fe0 	ldr	w0, [sp, #60]
   84080:	11000400 	add	w0, w0, #0x1
   84084:	b9003fe0 	str	w0, [sp, #60]
   84088:	b9403fe0 	ldr	w0, [sp, #60]
   8408c:	52820001 	mov	w1, #0x1000                	// #4096
   84090:	1ac02020 	lsl	w0, w1, w0
   84094:	b9401fe1 	ldr	w1, [sp, #28]
   84098:	6b00003f 	cmp	w1, w0
   8409c:	54ffff0c 	b.gt	8407c <kmalloc+0x20>
   840a0:	b9403fe0 	ldr	w0, [sp, #60]
   840a4:	97fffdeb 	bl	83850 <alloc_pages>
   840a8:	14000009 	b	840cc <kmalloc+0x70>
   840ac:	b9401fe0 	ldr	w0, [sp, #28]
   840b0:	97ffff73 	bl	83e7c <kmem_cache_find>
   840b4:	f9001be0 	str	x0, [sp, #48]
   840b8:	b9401fe1 	ldr	w1, [sp, #28]
   840bc:	f9401be0 	ldr	x0, [sp, #48]
   840c0:	97ffffd3 	bl	8400c <kmem_cache_alloc>
   840c4:	f90017e0 	str	x0, [sp, #40]
   840c8:	f94017e0 	ldr	x0, [sp, #40]
   840cc:	a8c47bfd 	ldp	x29, x30, [sp], #64
   840d0:	d65f03c0 	ret

00000000000840d4 <kfree>:
   840d4:	a9bd7bfd 	stp	x29, x30, [sp, #-48]!
   840d8:	910003fd 	mov	x29, sp
   840dc:	f9000fe0 	str	x0, [sp, #24]
   840e0:	f9400fe0 	ldr	x0, [sp, #24]
   840e4:	d34cfc00 	lsr	x0, x0, #12
   840e8:	b9002fe0 	str	w0, [sp, #44]
   840ec:	90000020 	adrp	x0, 88000 <get_current+0xce8>
   840f0:	912ba000 	add	x0, x0, #0xae8
   840f4:	f9400002 	ldr	x2, [x0]
   840f8:	b9802fe1 	ldrsw	x1, [sp, #44]
   840fc:	aa0103e0 	mov	x0, x1
   84100:	d37ff800 	lsl	x0, x0, #1
   84104:	8b010000 	add	x0, x0, x1
   84108:	d37df000 	lsl	x0, x0, #3
   8410c:	8b000040 	add	x0, x2, x0
   84110:	b9400400 	ldr	w0, [x0, #4]
   84114:	3100041f 	cmn	w0, #0x1
   84118:	54000120 	b.eq	8413c <kfree+0x68>  // b.none
   8411c:	b9402fe1 	ldr	w1, [sp, #44]
   84120:	f9400fe0 	ldr	x0, [sp, #24]
   84124:	97ffff8b 	bl	83f50 <address_to_cache>
   84128:	f90013e0 	str	x0, [sp, #32]
   8412c:	f9400fe1 	ldr	x1, [sp, #24]
   84130:	f94013e0 	ldr	x0, [sp, #32]
   84134:	97ffffc0 	bl	84034 <kmem_cache_free>
   84138:	14000003 	b	84144 <kfree+0x70>
   8413c:	f9400fe0 	ldr	x0, [sp, #24]
   84140:	97fffe05 	bl	83954 <free_pages>
   84144:	d503201f 	nop
   84148:	a8c37bfd 	ldp	x29, x30, [sp], #48
   8414c:	d65f03c0 	ret

0000000000084150 <delay>:
   84150:	d10043ff 	sub	sp, sp, #0x10
   84154:	b9000fe0 	str	w0, [sp, #12]
   84158:	14000002 	b	84160 <delay+0x10>
   8415c:	d503201f 	nop
   84160:	b9400fe0 	ldr	w0, [sp, #12]
   84164:	51000401 	sub	w1, w0, #0x1
   84168:	b9000fe1 	str	w1, [sp, #12]
   8416c:	7100001f 	cmp	w0, #0x0
   84170:	54ffff61 	b.ne	8415c <delay+0xc>  // b.any
   84174:	d503201f 	nop
   84178:	d503201f 	nop
   8417c:	910043ff 	add	sp, sp, #0x10
   84180:	d65f03c0 	ret

0000000000084184 <uart_init>:
   84184:	a9be7bfd 	stp	x29, x30, [sp, #-32]!
   84188:	910003fd 	mov	x29, sp
   8418c:	d2800080 	mov	x0, #0x4                   	// #4
   84190:	f2a7e400 	movk	x0, #0x3f20, lsl #16
   84194:	b9400000 	ldr	w0, [x0]
   84198:	b9001fe0 	str	w0, [sp, #28]
   8419c:	b9401fe0 	ldr	w0, [sp, #28]
   841a0:	12117000 	and	w0, w0, #0xffff8fff
   841a4:	b9001fe0 	str	w0, [sp, #28]
   841a8:	b9401fe0 	ldr	w0, [sp, #28]
   841ac:	32130000 	orr	w0, w0, #0x2000
   841b0:	b9001fe0 	str	w0, [sp, #28]
   841b4:	b9401fe0 	ldr	w0, [sp, #28]
   841b8:	120e7000 	and	w0, w0, #0xfffc7fff
   841bc:	b9001fe0 	str	w0, [sp, #28]
   841c0:	b9401fe0 	ldr	w0, [sp, #28]
   841c4:	32100000 	orr	w0, w0, #0x10000
   841c8:	b9001fe0 	str	w0, [sp, #28]
   841cc:	d2800080 	mov	x0, #0x4                   	// #4
   841d0:	f2a7e400 	movk	x0, #0x3f20, lsl #16
   841d4:	b9401fe1 	ldr	w1, [sp, #28]
   841d8:	b9000001 	str	w1, [x0]
   841dc:	d2801280 	mov	x0, #0x94                  	// #148
   841e0:	f2a7e400 	movk	x0, #0x3f20, lsl #16
   841e4:	b900001f 	str	wzr, [x0]
   841e8:	528012c0 	mov	w0, #0x96                  	// #150
   841ec:	97ffffd9 	bl	84150 <delay>
   841f0:	d2801300 	mov	x0, #0x98                  	// #152
   841f4:	f2a7e400 	movk	x0, #0x3f20, lsl #16
   841f8:	b9400001 	ldr	w1, [x0]
   841fc:	d2801300 	mov	x0, #0x98                  	// #152
   84200:	f2a7e400 	movk	x0, #0x3f20, lsl #16
   84204:	32120421 	orr	w1, w1, #0xc000
   84208:	b9000001 	str	w1, [x0]
   8420c:	528012c0 	mov	w0, #0x96                  	// #150
   84210:	97ffffd0 	bl	84150 <delay>
   84214:	d2801280 	mov	x0, #0x94                  	// #148
   84218:	f2a7e400 	movk	x0, #0x3f20, lsl #16
   8421c:	b900001f 	str	wzr, [x0]
   84220:	d2801300 	mov	x0, #0x98                  	// #152
   84224:	f2a7e400 	movk	x0, #0x3f20, lsl #16
   84228:	b900001f 	str	wzr, [x0]
   8422c:	d28a0080 	mov	x0, #0x5004                	// #20484
   84230:	f2a7e420 	movk	x0, #0x3f21, lsl #16
   84234:	52800021 	mov	w1, #0x1                   	// #1
   84238:	b9000001 	str	w1, [x0]
   8423c:	d28a0c00 	mov	x0, #0x5060                	// #20576
   84240:	f2a7e420 	movk	x0, #0x3f21, lsl #16
   84244:	b900001f 	str	wzr, [x0]
   84248:	d28a0880 	mov	x0, #0x5044                	// #20548
   8424c:	f2a7e420 	movk	x0, #0x3f21, lsl #16
   84250:	b900001f 	str	wzr, [x0]
   84254:	d28a0980 	mov	x0, #0x504c                	// #20556
   84258:	f2a7e420 	movk	x0, #0x3f21, lsl #16
   8425c:	52800061 	mov	w1, #0x3                   	// #3
   84260:	b9000001 	str	w1, [x0]
   84264:	d28a0a00 	mov	x0, #0x5050                	// #20560
   84268:	f2a7e420 	movk	x0, #0x3f21, lsl #16
   8426c:	b900001f 	str	wzr, [x0]
   84270:	d28a0d00 	mov	x0, #0x5068                	// #20584
   84274:	f2a7e420 	movk	x0, #0x3f21, lsl #16
   84278:	528021c1 	mov	w1, #0x10e                 	// #270
   8427c:	b9000001 	str	w1, [x0]
   84280:	d28a0900 	mov	x0, #0x5048                	// #20552
   84284:	f2a7e420 	movk	x0, #0x3f21, lsl #16
   84288:	528000c1 	mov	w1, #0x6                   	// #6
   8428c:	b9000001 	str	w1, [x0]
   84290:	d28a0c00 	mov	x0, #0x5060                	// #20576
   84294:	f2a7e420 	movk	x0, #0x3f21, lsl #16
   84298:	52800061 	mov	w1, #0x3                   	// #3
   8429c:	b9000001 	str	w1, [x0]
   842a0:	d503201f 	nop
   842a4:	a8c27bfd 	ldp	x29, x30, [sp], #32
   842a8:	d65f03c0 	ret

00000000000842ac <uart_recv>:
   842ac:	d10043ff 	sub	sp, sp, #0x10
   842b0:	d28a0a80 	mov	x0, #0x5054                	// #20564
   842b4:	f2a7e420 	movk	x0, #0x3f21, lsl #16
   842b8:	b9400000 	ldr	w0, [x0]
   842bc:	12000000 	and	w0, w0, #0x1
   842c0:	7100001f 	cmp	w0, #0x0
   842c4:	54000041 	b.ne	842cc <uart_recv+0x20>  // b.any
   842c8:	17fffffa 	b	842b0 <uart_recv+0x4>
   842cc:	d503201f 	nop
   842d0:	d28a0800 	mov	x0, #0x5040                	// #20544
   842d4:	f2a7e420 	movk	x0, #0x3f21, lsl #16
   842d8:	b9400000 	ldr	w0, [x0]
   842dc:	39003fe0 	strb	w0, [sp, #15]
   842e0:	39403fe0 	ldrb	w0, [sp, #15]
   842e4:	7100341f 	cmp	w0, #0xd
   842e8:	54000060 	b.eq	842f4 <uart_recv+0x48>  // b.none
   842ec:	39403fe0 	ldrb	w0, [sp, #15]
   842f0:	14000002 	b	842f8 <uart_recv+0x4c>
   842f4:	52800140 	mov	w0, #0xa                   	// #10
   842f8:	910043ff 	add	sp, sp, #0x10
   842fc:	d65f03c0 	ret

0000000000084300 <uart_send>:
   84300:	d10043ff 	sub	sp, sp, #0x10
   84304:	b9000fe0 	str	w0, [sp, #12]
   84308:	d28a0a80 	mov	x0, #0x5054                	// #20564
   8430c:	f2a7e420 	movk	x0, #0x3f21, lsl #16
   84310:	b9400000 	ldr	w0, [x0]
   84314:	121b0000 	and	w0, w0, #0x20
   84318:	7100001f 	cmp	w0, #0x0
   8431c:	54000041 	b.ne	84324 <uart_send+0x24>  // b.any
   84320:	17fffffa 	b	84308 <uart_send+0x8>
   84324:	d503201f 	nop
   84328:	d28a0800 	mov	x0, #0x5040                	// #20544
   8432c:	f2a7e420 	movk	x0, #0x3f21, lsl #16
   84330:	b9400fe1 	ldr	w1, [sp, #12]
   84334:	b9000001 	str	w1, [x0]
   84338:	d503201f 	nop
   8433c:	910043ff 	add	sp, sp, #0x10
   84340:	d65f03c0 	ret

0000000000084344 <uart_sends>:
   84344:	a9be7bfd 	stp	x29, x30, [sp, #-32]!
   84348:	910003fd 	mov	x29, sp
   8434c:	f9000fe0 	str	x0, [sp, #24]
   84350:	1400000c 	b	84380 <uart_sends+0x3c>
   84354:	f9400fe0 	ldr	x0, [sp, #24]
   84358:	39400000 	ldrb	w0, [x0]
   8435c:	7100281f 	cmp	w0, #0xa
   84360:	54000061 	b.ne	8436c <uart_sends+0x28>  // b.any
   84364:	528001a0 	mov	w0, #0xd                   	// #13
   84368:	97ffffe6 	bl	84300 <uart_send>
   8436c:	f9400fe0 	ldr	x0, [sp, #24]
   84370:	91000401 	add	x1, x0, #0x1
   84374:	f9000fe1 	str	x1, [sp, #24]
   84378:	39400000 	ldrb	w0, [x0]
   8437c:	97ffffe1 	bl	84300 <uart_send>
   84380:	f9400fe0 	ldr	x0, [sp, #24]
   84384:	39400000 	ldrb	w0, [x0]
   84388:	7100001f 	cmp	w0, #0x0
   8438c:	54fffe41 	b.ne	84354 <uart_sends+0x10>  // b.any
   84390:	d503201f 	nop
   84394:	d503201f 	nop
   84398:	a8c27bfd 	ldp	x29, x30, [sp], #32
   8439c:	d65f03c0 	ret

00000000000843a0 <uart_sendc>:
   843a0:	a9be7bfd 	stp	x29, x30, [sp, #-32]!
   843a4:	910003fd 	mov	x29, sp
   843a8:	39007fe0 	strb	w0, [sp, #31]
   843ac:	39407fe0 	ldrb	w0, [sp, #31]
   843b0:	7100281f 	cmp	w0, #0xa
   843b4:	54000061 	b.ne	843c0 <uart_sendc+0x20>  // b.any
   843b8:	528001a0 	mov	w0, #0xd                   	// #13
   843bc:	97ffffd1 	bl	84300 <uart_send>
   843c0:	39407fe0 	ldrb	w0, [sp, #31]
   843c4:	97ffffcf 	bl	84300 <uart_send>
   843c8:	d503201f 	nop
   843cc:	a8c27bfd 	ldp	x29, x30, [sp], #32
   843d0:	d65f03c0 	ret

00000000000843d4 <uart_sendh>:
   843d4:	a9bd7bfd 	stp	x29, x30, [sp, #-48]!
   843d8:	910003fd 	mov	x29, sp
   843dc:	b9001fe0 	str	w0, [sp, #28]
   843e0:	52800380 	mov	w0, #0x1c                  	// #28
   843e4:	b9002fe0 	str	w0, [sp, #44]
   843e8:	14000014 	b	84438 <uart_sendh+0x64>
   843ec:	b9402fe0 	ldr	w0, [sp, #44]
   843f0:	b9401fe1 	ldr	w1, [sp, #28]
   843f4:	1ac02420 	lsr	w0, w1, w0
   843f8:	12000c00 	and	w0, w0, #0xf
   843fc:	b9002be0 	str	w0, [sp, #40]
   84400:	b9402be0 	ldr	w0, [sp, #40]
   84404:	7100241f 	cmp	w0, #0x9
   84408:	54000069 	b.ls	84414 <uart_sendh+0x40>  // b.plast
   8440c:	528006e0 	mov	w0, #0x37                  	// #55
   84410:	14000002 	b	84418 <uart_sendh+0x44>
   84414:	52800600 	mov	w0, #0x30                  	// #48
   84418:	b9402be1 	ldr	w1, [sp, #40]
   8441c:	0b000020 	add	w0, w1, w0
   84420:	b9002be0 	str	w0, [sp, #40]
   84424:	b9402be0 	ldr	w0, [sp, #40]
   84428:	97ffffb6 	bl	84300 <uart_send>
   8442c:	b9402fe0 	ldr	w0, [sp, #44]
   84430:	51001000 	sub	w0, w0, #0x4
   84434:	b9002fe0 	str	w0, [sp, #44]
   84438:	b9402fe0 	ldr	w0, [sp, #44]
   8443c:	7100001f 	cmp	w0, #0x0
   84440:	54fffd6a 	b.ge	843ec <uart_sendh+0x18>  // b.tcont
   84444:	d503201f 	nop
   84448:	a8c37bfd 	ldp	x29, x30, [sp], #48
   8444c:	d65f03c0 	ret

0000000000084450 <uart_sendl>:
   84450:	a9bd7bfd 	stp	x29, x30, [sp, #-48]!
   84454:	910003fd 	mov	x29, sp
   84458:	f9000fe0 	str	x0, [sp, #24]
   8445c:	52800780 	mov	w0, #0x3c                  	// #60
   84460:	b9002fe0 	str	w0, [sp, #44]
   84464:	14000014 	b	844b4 <uart_sendl+0x64>
   84468:	b9402fe0 	ldr	w0, [sp, #44]
   8446c:	f9400fe1 	ldr	x1, [sp, #24]
   84470:	9ac02420 	lsr	x0, x1, x0
   84474:	12000c00 	and	w0, w0, #0xf
   84478:	b9002be0 	str	w0, [sp, #40]
   8447c:	b9402be0 	ldr	w0, [sp, #40]
   84480:	7100241f 	cmp	w0, #0x9
   84484:	54000069 	b.ls	84490 <uart_sendl+0x40>  // b.plast
   84488:	528006e0 	mov	w0, #0x37                  	// #55
   8448c:	14000002 	b	84494 <uart_sendl+0x44>
   84490:	52800600 	mov	w0, #0x30                  	// #48
   84494:	b9402be1 	ldr	w1, [sp, #40]
   84498:	0b000020 	add	w0, w1, w0
   8449c:	b9002be0 	str	w0, [sp, #40]
   844a0:	b9402be0 	ldr	w0, [sp, #40]
   844a4:	97ffff97 	bl	84300 <uart_send>
   844a8:	b9402fe0 	ldr	w0, [sp, #44]
   844ac:	51001000 	sub	w0, w0, #0x4
   844b0:	b9002fe0 	str	w0, [sp, #44]
   844b4:	b9402fe0 	ldr	w0, [sp, #44]
   844b8:	7100001f 	cmp	w0, #0x0
   844bc:	54fffd6a 	b.ge	84468 <uart_sendl+0x18>  // b.tcont
   844c0:	d503201f 	nop
   844c4:	a8c37bfd 	ldp	x29, x30, [sp], #48
   844c8:	d65f03c0 	ret

00000000000844cc <uart_sendi>:
   844cc:	a9bc7bfd 	stp	x29, x30, [sp, #-64]!
   844d0:	910003fd 	mov	x29, sp
   844d4:	b9001fe0 	str	w0, [sp, #28]
   844d8:	b9003fff 	str	wzr, [sp, #60]
   844dc:	b9003bff 	str	wzr, [sp, #56]
   844e0:	b9401fe0 	ldr	w0, [sp, #28]
   844e4:	7100001f 	cmp	w0, #0x0
   844e8:	540000ca 	b.ge	84500 <uart_sendi+0x34>  // b.tcont
   844ec:	52800020 	mov	w0, #0x1                   	// #1
   844f0:	b9003be0 	str	w0, [sp, #56]
   844f4:	b9401fe0 	ldr	w0, [sp, #28]
   844f8:	4b0003e0 	neg	w0, w0
   844fc:	b9001fe0 	str	w0, [sp, #28]
   84500:	b9401fe1 	ldr	w1, [sp, #28]
   84504:	528ccce0 	mov	w0, #0x6667                	// #26215
   84508:	72acccc0 	movk	w0, #0x6666, lsl #16
   8450c:	9b207c20 	smull	x0, w1, w0
   84510:	d360fc00 	lsr	x0, x0, #32
   84514:	13027c02 	asr	w2, w0, #2
   84518:	131f7c20 	asr	w0, w1, #31
   8451c:	4b000042 	sub	w2, w2, w0
   84520:	2a0203e0 	mov	w0, w2
   84524:	531e7400 	lsl	w0, w0, #2
   84528:	0b020000 	add	w0, w0, w2
   8452c:	531f7800 	lsl	w0, w0, #1
   84530:	4b000022 	sub	w2, w1, w0
   84534:	12001c41 	and	w1, w2, #0xff
   84538:	b9403fe0 	ldr	w0, [sp, #60]
   8453c:	11000402 	add	w2, w0, #0x1
   84540:	b9003fe2 	str	w2, [sp, #60]
   84544:	1100c021 	add	w1, w1, #0x30
   84548:	12001c22 	and	w2, w1, #0xff
   8454c:	93407c00 	sxtw	x0, w0
   84550:	910083e1 	add	x1, sp, #0x20
   84554:	38206822 	strb	w2, [x1, x0]
   84558:	b9401fe0 	ldr	w0, [sp, #28]
   8455c:	528ccce1 	mov	w1, #0x6667                	// #26215
   84560:	72acccc1 	movk	w1, #0x6666, lsl #16
   84564:	9b217c01 	smull	x1, w0, w1
   84568:	d360fc21 	lsr	x1, x1, #32
   8456c:	13027c21 	asr	w1, w1, #2
   84570:	131f7c00 	asr	w0, w0, #31
   84574:	4b000020 	sub	w0, w1, w0
   84578:	b9001fe0 	str	w0, [sp, #28]
   8457c:	b9401fe0 	ldr	w0, [sp, #28]
   84580:	7100001f 	cmp	w0, #0x0
   84584:	54fffbe1 	b.ne	84500 <uart_sendi+0x34>  // b.any
   84588:	b9403be0 	ldr	w0, [sp, #56]
   8458c:	7100001f 	cmp	w0, #0x0
   84590:	54000100 	b.eq	845b0 <uart_sendi+0xe4>  // b.none
   84594:	b9403fe0 	ldr	w0, [sp, #60]
   84598:	11000401 	add	w1, w0, #0x1
   8459c:	b9003fe1 	str	w1, [sp, #60]
   845a0:	93407c00 	sxtw	x0, w0
   845a4:	910083e1 	add	x1, sp, #0x20
   845a8:	528005a2 	mov	w2, #0x2d                  	// #45
   845ac:	38206822 	strb	w2, [x1, x0]
   845b0:	b9803fe0 	ldrsw	x0, [sp, #60]
   845b4:	910083e1 	add	x1, sp, #0x20
   845b8:	3820683f 	strb	wzr, [x1, x0]
   845bc:	b90037ff 	str	wzr, [sp, #52]
   845c0:	b90037ff 	str	wzr, [sp, #52]
   845c4:	1400001a 	b	8462c <uart_sendi+0x160>
   845c8:	b98037e0 	ldrsw	x0, [sp, #52]
   845cc:	910083e1 	add	x1, sp, #0x20
   845d0:	38606820 	ldrb	w0, [x1, x0]
   845d4:	3900cfe0 	strb	w0, [sp, #51]
   845d8:	b9403fe1 	ldr	w1, [sp, #60]
   845dc:	b94037e0 	ldr	w0, [sp, #52]
   845e0:	4b000020 	sub	w0, w1, w0
   845e4:	51000400 	sub	w0, w0, #0x1
   845e8:	93407c00 	sxtw	x0, w0
   845ec:	910083e1 	add	x1, sp, #0x20
   845f0:	38606822 	ldrb	w2, [x1, x0]
   845f4:	b98037e0 	ldrsw	x0, [sp, #52]
   845f8:	910083e1 	add	x1, sp, #0x20
   845fc:	38206822 	strb	w2, [x1, x0]
   84600:	b9403fe1 	ldr	w1, [sp, #60]
   84604:	b94037e0 	ldr	w0, [sp, #52]
   84608:	4b000020 	sub	w0, w1, w0
   8460c:	51000400 	sub	w0, w0, #0x1
   84610:	93407c00 	sxtw	x0, w0
   84614:	910083e1 	add	x1, sp, #0x20
   84618:	3940cfe2 	ldrb	w2, [sp, #51]
   8461c:	38206822 	strb	w2, [x1, x0]
   84620:	b94037e0 	ldr	w0, [sp, #52]
   84624:	11000400 	add	w0, w0, #0x1
   84628:	b90037e0 	str	w0, [sp, #52]
   8462c:	b9403fe0 	ldr	w0, [sp, #60]
   84630:	531f7c01 	lsr	w1, w0, #31
   84634:	0b000020 	add	w0, w1, w0
   84638:	13017c00 	asr	w0, w0, #1
   8463c:	2a0003e1 	mov	w1, w0
   84640:	b94037e0 	ldr	w0, [sp, #52]
   84644:	6b01001f 	cmp	w0, w1
   84648:	54fffc0b 	b.lt	845c8 <uart_sendi+0xfc>  // b.tstop
   8464c:	910083e0 	add	x0, sp, #0x20
   84650:	97ffff3d 	bl	84344 <uart_sends>
   84654:	d503201f 	nop
   84658:	a8c47bfd 	ldp	x29, x30, [sp], #64
   8465c:	d65f03c0 	ret

0000000000084660 <uart_async_recv>:
   84660:	d10043ff 	sub	sp, sp, #0x10
   84664:	d28a0880 	mov	x0, #0x5044                	// #20548
   84668:	f2a7e420 	movk	x0, #0x3f21, lsl #16
   8466c:	b9400001 	ldr	w1, [x0]
   84670:	d28a0880 	mov	x0, #0x5044                	// #20548
   84674:	f2a7e420 	movk	x0, #0x3f21, lsl #16
   84678:	121f7821 	and	w1, w1, #0xfffffffe
   8467c:	b9000001 	str	w1, [x0]
   84680:	90000020 	adrp	x0, 88000 <get_current+0xce8>
   84684:	9135d000 	add	x0, x0, #0xd74
   84688:	b9400001 	ldr	w1, [x0]
   8468c:	90000020 	adrp	x0, 88000 <get_current+0xce8>
   84690:	9135c000 	add	x0, x0, #0xd70
   84694:	b9400000 	ldr	w0, [x0]
   84698:	6b00003f 	cmp	w1, w0
   8469c:	540002c0 	b.eq	846f4 <uart_async_recv+0x94>  // b.none
   846a0:	90000020 	adrp	x0, 88000 <get_current+0xce8>
   846a4:	9135d000 	add	x0, x0, #0xd74
   846a8:	b9400002 	ldr	w2, [x0]
   846ac:	90000020 	adrp	x0, 88000 <get_current+0xce8>
   846b0:	912dc001 	add	x1, x0, #0xb70
   846b4:	93407c40 	sxtw	x0, w2
   846b8:	38606820 	ldrb	w0, [x1, x0]
   846bc:	39003fe0 	strb	w0, [sp, #15]
   846c0:	90000020 	adrp	x0, 88000 <get_current+0xce8>
   846c4:	9135d000 	add	x0, x0, #0xd74
   846c8:	b9400000 	ldr	w0, [x0]
   846cc:	11000400 	add	w0, w0, #0x1
   846d0:	6b0003e1 	negs	w1, w0
   846d4:	12001c00 	and	w0, w0, #0xff
   846d8:	12001c21 	and	w1, w1, #0xff
   846dc:	5a814401 	csneg	w1, w0, w1, mi  // mi = first
   846e0:	90000020 	adrp	x0, 88000 <get_current+0xce8>
   846e4:	9135d000 	add	x0, x0, #0xd74
   846e8:	b9000001 	str	w1, [x0]
   846ec:	39403fe0 	ldrb	w0, [sp, #15]
   846f0:	14000002 	b	846f8 <uart_async_recv+0x98>
   846f4:	52800000 	mov	w0, #0x0                   	// #0
   846f8:	910043ff 	add	sp, sp, #0x10
   846fc:	d65f03c0 	ret

0000000000084700 <uart_async_gets>:
   84700:	d10083ff 	sub	sp, sp, #0x20
   84704:	f90007e0 	str	x0, [sp, #8]
   84708:	b90007e1 	str	w1, [sp, #4]
   8470c:	d28a0880 	mov	x0, #0x5044                	// #20548
   84710:	f2a7e420 	movk	x0, #0x3f21, lsl #16
   84714:	b9400001 	ldr	w1, [x0]
   84718:	d28a0880 	mov	x0, #0x5044                	// #20548
   8471c:	f2a7e420 	movk	x0, #0x3f21, lsl #16
   84720:	121f7821 	and	w1, w1, #0xfffffffe
   84724:	b9000001 	str	w1, [x0]
   84728:	b9001fff 	str	wzr, [sp, #28]
   8472c:	1400001a 	b	84794 <uart_async_gets+0x94>
   84730:	90000020 	adrp	x0, 88000 <get_current+0xce8>
   84734:	9135d000 	add	x0, x0, #0xd74
   84738:	b9400003 	ldr	w3, [x0]
   8473c:	b9801fe0 	ldrsw	x0, [sp, #28]
   84740:	f94007e1 	ldr	x1, [sp, #8]
   84744:	8b000020 	add	x0, x1, x0
   84748:	90000021 	adrp	x1, 88000 <get_current+0xce8>
   8474c:	912dc022 	add	x2, x1, #0xb70
   84750:	93407c61 	sxtw	x1, w3
   84754:	38616841 	ldrb	w1, [x2, x1]
   84758:	39000001 	strb	w1, [x0]
   8475c:	90000020 	adrp	x0, 88000 <get_current+0xce8>
   84760:	9135d000 	add	x0, x0, #0xd74
   84764:	b9400000 	ldr	w0, [x0]
   84768:	11000400 	add	w0, w0, #0x1
   8476c:	6b0003e1 	negs	w1, w0
   84770:	12001c00 	and	w0, w0, #0xff
   84774:	12001c21 	and	w1, w1, #0xff
   84778:	5a814401 	csneg	w1, w0, w1, mi  // mi = first
   8477c:	90000020 	adrp	x0, 88000 <get_current+0xce8>
   84780:	9135d000 	add	x0, x0, #0xd74
   84784:	b9000001 	str	w1, [x0]
   84788:	b9401fe0 	ldr	w0, [sp, #28]
   8478c:	11000400 	add	w0, w0, #0x1
   84790:	b9001fe0 	str	w0, [sp, #28]
   84794:	90000020 	adrp	x0, 88000 <get_current+0xce8>
   84798:	9135d000 	add	x0, x0, #0xd74
   8479c:	b9400001 	ldr	w1, [x0]
   847a0:	90000020 	adrp	x0, 88000 <get_current+0xce8>
   847a4:	9135c000 	add	x0, x0, #0xd70
   847a8:	b9400000 	ldr	w0, [x0]
   847ac:	6b00003f 	cmp	w1, w0
   847b0:	54fffc01 	b.ne	84730 <uart_async_gets+0x30>  // b.any
   847b4:	b9801fe0 	ldrsw	x0, [sp, #28]
   847b8:	f94007e1 	ldr	x1, [sp, #8]
   847bc:	8b000020 	add	x0, x1, x0
   847c0:	3900001f 	strb	wzr, [x0]
   847c4:	d503201f 	nop
   847c8:	910083ff 	add	sp, sp, #0x20
   847cc:	d65f03c0 	ret

00000000000847d0 <uart_async_send>:
   847d0:	d10043ff 	sub	sp, sp, #0x10
   847d4:	39003fe0 	strb	w0, [sp, #15]
   847d8:	39403fe0 	ldrb	w0, [sp, #15]
   847dc:	7100281f 	cmp	w0, #0xa
   847e0:	54000281 	b.ne	84830 <uart_async_send+0x60>  // b.any
   847e4:	90000020 	adrp	x0, 88000 <get_current+0xce8>
   847e8:	9135e000 	add	x0, x0, #0xd78
   847ec:	b9400002 	ldr	w2, [x0]
   847f0:	90000020 	adrp	x0, 88000 <get_current+0xce8>
   847f4:	9131c001 	add	x1, x0, #0xc70
   847f8:	93407c40 	sxtw	x0, w2
   847fc:	528001a2 	mov	w2, #0xd                   	// #13
   84800:	38206822 	strb	w2, [x1, x0]
   84804:	90000020 	adrp	x0, 88000 <get_current+0xce8>
   84808:	9135e000 	add	x0, x0, #0xd78
   8480c:	b9400000 	ldr	w0, [x0]
   84810:	11000400 	add	w0, w0, #0x1
   84814:	6b0003e1 	negs	w1, w0
   84818:	12001c00 	and	w0, w0, #0xff
   8481c:	12001c21 	and	w1, w1, #0xff
   84820:	5a814401 	csneg	w1, w0, w1, mi  // mi = first
   84824:	90000020 	adrp	x0, 88000 <get_current+0xce8>
   84828:	9135e000 	add	x0, x0, #0xd78
   8482c:	b9000001 	str	w1, [x0]
   84830:	90000020 	adrp	x0, 88000 <get_current+0xce8>
   84834:	9135e000 	add	x0, x0, #0xd78
   84838:	b9400002 	ldr	w2, [x0]
   8483c:	90000020 	adrp	x0, 88000 <get_current+0xce8>
   84840:	9131c001 	add	x1, x0, #0xc70
   84844:	93407c40 	sxtw	x0, w2
   84848:	39403fe2 	ldrb	w2, [sp, #15]
   8484c:	38206822 	strb	w2, [x1, x0]
   84850:	90000020 	adrp	x0, 88000 <get_current+0xce8>
   84854:	9135e000 	add	x0, x0, #0xd78
   84858:	b9400000 	ldr	w0, [x0]
   8485c:	11000400 	add	w0, w0, #0x1
   84860:	6b0003e1 	negs	w1, w0
   84864:	12001c00 	and	w0, w0, #0xff
   84868:	12001c21 	and	w1, w1, #0xff
   8486c:	5a814401 	csneg	w1, w0, w1, mi  // mi = first
   84870:	90000020 	adrp	x0, 88000 <get_current+0xce8>
   84874:	9135e000 	add	x0, x0, #0xd78
   84878:	b9000001 	str	w1, [x0]
   8487c:	d28a0880 	mov	x0, #0x5044                	// #20548
   84880:	f2a7e420 	movk	x0, #0x3f21, lsl #16
   84884:	b9400001 	ldr	w1, [x0]
   84888:	d28a0880 	mov	x0, #0x5044                	// #20548
   8488c:	f2a7e420 	movk	x0, #0x3f21, lsl #16
   84890:	321f0021 	orr	w1, w1, #0x2
   84894:	b9000001 	str	w1, [x0]
   84898:	d503201f 	nop
   8489c:	910043ff 	add	sp, sp, #0x10
   848a0:	d65f03c0 	ret

00000000000848a4 <uart_async_sends>:
   848a4:	a9bd7bfd 	stp	x29, x30, [sp, #-48]!
   848a8:	910003fd 	mov	x29, sp
   848ac:	f9000fe0 	str	x0, [sp, #24]
   848b0:	f9400fe0 	ldr	x0, [sp, #24]
   848b4:	940000f4 	bl	84c84 <strlen>
   848b8:	b9002be0 	str	w0, [sp, #40]
   848bc:	b9002fff 	str	wzr, [sp, #44]
   848c0:	14000033 	b	8498c <uart_async_sends+0xe8>
   848c4:	b9802fe0 	ldrsw	x0, [sp, #44]
   848c8:	f9400fe1 	ldr	x1, [sp, #24]
   848cc:	8b000020 	add	x0, x1, x0
   848d0:	39400000 	ldrb	w0, [x0]
   848d4:	7100281f 	cmp	w0, #0xa
   848d8:	54000281 	b.ne	84928 <uart_async_sends+0x84>  // b.any
   848dc:	90000020 	adrp	x0, 88000 <get_current+0xce8>
   848e0:	9135e000 	add	x0, x0, #0xd78
   848e4:	b9400002 	ldr	w2, [x0]
   848e8:	90000020 	adrp	x0, 88000 <get_current+0xce8>
   848ec:	9131c001 	add	x1, x0, #0xc70
   848f0:	93407c40 	sxtw	x0, w2
   848f4:	528001a2 	mov	w2, #0xd                   	// #13
   848f8:	38206822 	strb	w2, [x1, x0]
   848fc:	90000020 	adrp	x0, 88000 <get_current+0xce8>
   84900:	9135e000 	add	x0, x0, #0xd78
   84904:	b9400000 	ldr	w0, [x0]
   84908:	11000400 	add	w0, w0, #0x1
   8490c:	6b0003e1 	negs	w1, w0
   84910:	12001c00 	and	w0, w0, #0xff
   84914:	12001c21 	and	w1, w1, #0xff
   84918:	5a814401 	csneg	w1, w0, w1, mi  // mi = first
   8491c:	90000020 	adrp	x0, 88000 <get_current+0xce8>
   84920:	9135e000 	add	x0, x0, #0xd78
   84924:	b9000001 	str	w1, [x0]
   84928:	b9802fe0 	ldrsw	x0, [sp, #44]
   8492c:	f9400fe1 	ldr	x1, [sp, #24]
   84930:	8b000020 	add	x0, x1, x0
   84934:	90000021 	adrp	x1, 88000 <get_current+0xce8>
   84938:	9135e021 	add	x1, x1, #0xd78
   8493c:	b9400023 	ldr	w3, [x1]
   84940:	39400002 	ldrb	w2, [x0]
   84944:	90000020 	adrp	x0, 88000 <get_current+0xce8>
   84948:	9131c001 	add	x1, x0, #0xc70
   8494c:	93407c60 	sxtw	x0, w3
   84950:	38206822 	strb	w2, [x1, x0]
   84954:	90000020 	adrp	x0, 88000 <get_current+0xce8>
   84958:	9135e000 	add	x0, x0, #0xd78
   8495c:	b9400000 	ldr	w0, [x0]
   84960:	11000400 	add	w0, w0, #0x1
   84964:	6b0003e1 	negs	w1, w0
   84968:	12001c00 	and	w0, w0, #0xff
   8496c:	12001c21 	and	w1, w1, #0xff
   84970:	5a814401 	csneg	w1, w0, w1, mi  // mi = first
   84974:	90000020 	adrp	x0, 88000 <get_current+0xce8>
   84978:	9135e000 	add	x0, x0, #0xd78
   8497c:	b9000001 	str	w1, [x0]
   84980:	b9402fe0 	ldr	w0, [sp, #44]
   84984:	11000400 	add	w0, w0, #0x1
   84988:	b9002fe0 	str	w0, [sp, #44]
   8498c:	b9402fe1 	ldr	w1, [sp, #44]
   84990:	b9402be0 	ldr	w0, [sp, #40]
   84994:	6b00003f 	cmp	w1, w0
   84998:	54fff96b 	b.lt	848c4 <uart_async_sends+0x20>  // b.tstop
   8499c:	d28a0880 	mov	x0, #0x5044                	// #20548
   849a0:	f2a7e420 	movk	x0, #0x3f21, lsl #16
   849a4:	b9400001 	ldr	w1, [x0]
   849a8:	d28a0880 	mov	x0, #0x5044                	// #20548
   849ac:	f2a7e420 	movk	x0, #0x3f21, lsl #16
   849b0:	321f0021 	orr	w1, w1, #0x2
   849b4:	b9000001 	str	w1, [x0]
   849b8:	d503201f 	nop
   849bc:	a8c37bfd 	ldp	x29, x30, [sp], #48
   849c0:	d65f03c0 	ret

00000000000849c4 <uart_async_test>:
   849c4:	d10843ff 	sub	sp, sp, #0x210
   849c8:	a9007bfd 	stp	x29, x30, [sp]
   849cc:	910003fd 	mov	x29, sp
   849d0:	f0000000 	adrp	x0, 87000 <set_exception_vector_table>
   849d4:	91206000 	add	x0, x0, #0x818
   849d8:	97fffe5b 	bl	84344 <uart_sends>
   849dc:	910443e0 	add	x0, sp, #0x110
   849e0:	940001de 	bl	85158 <gets>
   849e4:	910443e0 	add	x0, sp, #0x110
   849e8:	94000216 	bl	85240 <atoi>
   849ec:	7100041f 	cmp	w0, #0x1
   849f0:	54000080 	b.eq	84a00 <uart_async_test+0x3c>  // b.none
   849f4:	7100081f 	cmp	w0, #0x2
   849f8:	540003e0 	b.eq	84a74 <uart_async_test+0xb0>  // b.none
   849fc:	1400002a 	b	84aa4 <uart_async_test+0xe0>
   84a00:	f0000000 	adrp	x0, 87000 <set_exception_vector_table>
   84a04:	91210000 	add	x0, x0, #0x840
   84a08:	97fffe4f 	bl	84344 <uart_sends>
   84a0c:	97fff8ad 	bl	82cc0 <mini_uart_irq_enable>
   84a10:	d28a0880 	mov	x0, #0x5044                	// #20548
   84a14:	f2a7e420 	movk	x0, #0x3f21, lsl #16
   84a18:	b9400001 	ldr	w1, [x0]
   84a1c:	d28a0880 	mov	x0, #0x5044                	// #20548
   84a20:	f2a7e420 	movk	x0, #0x3f21, lsl #16
   84a24:	32000021 	orr	w1, w1, #0x1
   84a28:	b9000001 	str	w1, [x0]
   84a2c:	5292d000 	mov	w0, #0x9680                	// #38528
   84a30:	72a01300 	movk	w0, #0x98, lsl #16
   84a34:	97fffdc7 	bl	84150 <delay>
   84a38:	910043e0 	add	x0, sp, #0x10
   84a3c:	52802001 	mov	w1, #0x100                 	// #256
   84a40:	97ffff30 	bl	84700 <uart_async_gets>
   84a44:	f0000000 	adrp	x0, 87000 <set_exception_vector_table>
   84a48:	91216000 	add	x0, x0, #0x858
   84a4c:	97ffff96 	bl	848a4 <uart_async_sends>
   84a50:	910043e0 	add	x0, sp, #0x10
   84a54:	97ffff94 	bl	848a4 <uart_async_sends>
   84a58:	52800140 	mov	w0, #0xa                   	// #10
   84a5c:	97ffff5d 	bl	847d0 <uart_async_send>
   84a60:	5292d000 	mov	w0, #0x9680                	// #38528
   84a64:	72a01300 	movk	w0, #0x98, lsl #16
   84a68:	97fffdba 	bl	84150 <delay>
   84a6c:	97fff89e 	bl	82ce4 <mini_uart_irq_disable>
   84a70:	14000011 	b	84ab4 <uart_async_test+0xf0>
   84a74:	f0000000 	adrp	x0, 87000 <set_exception_vector_table>
   84a78:	9121c000 	add	x0, x0, #0x870
   84a7c:	97fffe32 	bl	84344 <uart_sends>
   84a80:	97fff890 	bl	82cc0 <mini_uart_irq_enable>
   84a84:	f0000000 	adrp	x0, 87000 <set_exception_vector_table>
   84a88:	91222000 	add	x0, x0, #0x888
   84a8c:	97ffff86 	bl	848a4 <uart_async_sends>
   84a90:	5292d000 	mov	w0, #0x9680                	// #38528
   84a94:	72a01300 	movk	w0, #0x98, lsl #16
   84a98:	97fffdae 	bl	84150 <delay>
   84a9c:	97fff892 	bl	82ce4 <mini_uart_irq_disable>
   84aa0:	14000005 	b	84ab4 <uart_async_test+0xf0>
   84aa4:	f0000000 	adrp	x0, 87000 <set_exception_vector_table>
   84aa8:	91224000 	add	x0, x0, #0x890
   84aac:	97fffe26 	bl	84344 <uart_sends>
   84ab0:	d503201f 	nop
   84ab4:	d503201f 	nop
   84ab8:	a9407bfd 	ldp	x29, x30, [sp]
   84abc:	910843ff 	add	sp, sp, #0x210
   84ac0:	d65f03c0 	ret

0000000000084ac4 <shell_exec>:
   84ac4:	a9a97bfd 	stp	x29, x30, [sp, #-368]!
   84ac8:	910003fd 	mov	x29, sp
   84acc:	910183e0 	add	x0, sp, #0x60
   84ad0:	52802002 	mov	w2, #0x100                 	// #256
   84ad4:	52800001 	mov	w1, #0x0                   	// #0
   84ad8:	94000146 	bl	84ff0 <memset>
   84adc:	b9016fff 	str	wzr, [sp, #364]
   84ae0:	f0000000 	adrp	x0, 87000 <set_exception_vector_table>
   84ae4:	9122a000 	add	x0, x0, #0x8a8
   84ae8:	97fffe17 	bl	84344 <uart_sends>
   84aec:	910183e0 	add	x0, sp, #0x60
   84af0:	9400019a 	bl	85158 <gets>
   84af4:	910183e2 	add	x2, sp, #0x60
   84af8:	f0000000 	adrp	x0, 87000 <set_exception_vector_table>
   84afc:	9122c001 	add	x1, x0, #0x8b0
   84b00:	aa0203e0 	mov	x0, x2
   84b04:	94000070 	bl	84cc4 <strcmp>
   84b08:	7100001f 	cmp	w0, #0x0
   84b0c:	540003a0 	b.eq	84b80 <shell_exec+0xbc>  // b.none
   84b10:	910183e2 	add	x2, sp, #0x60
   84b14:	f0000000 	adrp	x0, 87000 <set_exception_vector_table>
   84b18:	9122e001 	add	x1, x0, #0x8b8
   84b1c:	aa0203e0 	mov	x0, x2
   84b20:	940000bb 	bl	84e0c <strtok>
   84b24:	f900b3e0 	str	x0, [sp, #352]
   84b28:	1400000e 	b	84b60 <shell_exec+0x9c>
   84b2c:	b9416fe0 	ldr	w0, [sp, #364]
   84b30:	11000401 	add	w1, w0, #0x1
   84b34:	b9016fe1 	str	w1, [sp, #364]
   84b38:	93407c00 	sxtw	x0, w0
   84b3c:	d37df000 	lsl	x0, x0, #3
   84b40:	910043e1 	add	x1, sp, #0x10
   84b44:	f940b3e2 	ldr	x2, [sp, #352]
   84b48:	f8206822 	str	x2, [x1, x0]
   84b4c:	f0000000 	adrp	x0, 87000 <set_exception_vector_table>
   84b50:	9122e001 	add	x1, x0, #0x8b8
   84b54:	d2800000 	mov	x0, #0x0                   	// #0
   84b58:	940000ad 	bl	84e0c <strtok>
   84b5c:	f900b3e0 	str	x0, [sp, #352]
   84b60:	f940b3e0 	ldr	x0, [sp, #352]
   84b64:	f100001f 	cmp	x0, #0x0
   84b68:	54fffe21 	b.ne	84b2c <shell_exec+0x68>  // b.any
   84b6c:	910043e0 	add	x0, sp, #0x10
   84b70:	aa0003e1 	mov	x1, x0
   84b74:	b9416fe0 	ldr	w0, [sp, #364]
   84b78:	94000004 	bl	84b88 <command_exec>
   84b7c:	17ffffd8 	b	84adc <shell_exec+0x18>
   84b80:	d503201f 	nop
   84b84:	17ffffd6 	b	84adc <shell_exec+0x18>

0000000000084b88 <command_exec>:
   84b88:	a9bd7bfd 	stp	x29, x30, [sp, #-48]!
   84b8c:	910003fd 	mov	x29, sp
   84b90:	b9001fe0 	str	w0, [sp, #28]
   84b94:	f9000be1 	str	x1, [sp, #16]
   84b98:	b9002fff 	str	wzr, [sp, #44]
   84b9c:	1400002f 	b	84c58 <command_exec+0xd0>
   84ba0:	f9400be0 	ldr	x0, [sp, #16]
   84ba4:	f9400003 	ldr	x3, [x0]
   84ba8:	90000020 	adrp	x0, 88000 <get_current+0xce8>
   84bac:	f944cc02 	ldr	x2, [x0, #2456]
   84bb0:	b9802fe1 	ldrsw	x1, [sp, #44]
   84bb4:	aa0103e0 	mov	x0, x1
   84bb8:	d37ff800 	lsl	x0, x0, #1
   84bbc:	8b010000 	add	x0, x0, x1
   84bc0:	d37df000 	lsl	x0, x0, #3
   84bc4:	8b000040 	add	x0, x2, x0
   84bc8:	f9400000 	ldr	x0, [x0]
   84bcc:	aa0003e1 	mov	x1, x0
   84bd0:	aa0303e0 	mov	x0, x3
   84bd4:	9400003c 	bl	84cc4 <strcmp>
   84bd8:	7100001f 	cmp	w0, #0x0
   84bdc:	54000381 	b.ne	84c4c <command_exec+0xc4>  // b.any
   84be0:	b9401fe0 	ldr	w0, [sp, #28]
   84be4:	7100041f 	cmp	w0, #0x1
   84be8:	540001a1 	b.ne	84c1c <command_exec+0x94>  // b.any
   84bec:	90000020 	adrp	x0, 88000 <get_current+0xce8>
   84bf0:	f944cc02 	ldr	x2, [x0, #2456]
   84bf4:	b9802fe1 	ldrsw	x1, [sp, #44]
   84bf8:	aa0103e0 	mov	x0, x1
   84bfc:	d37ff800 	lsl	x0, x0, #1
   84c00:	8b010000 	add	x0, x0, x1
   84c04:	d37df000 	lsl	x0, x0, #3
   84c08:	8b000040 	add	x0, x2, x0
   84c0c:	f9400801 	ldr	x1, [x0, #16]
   84c10:	d2800000 	mov	x0, #0x0                   	// #0
   84c14:	d63f0020 	blr	x1
   84c18:	14000019 	b	84c7c <command_exec+0xf4>
   84c1c:	90000020 	adrp	x0, 88000 <get_current+0xce8>
   84c20:	f944cc02 	ldr	x2, [x0, #2456]
   84c24:	b9802fe1 	ldrsw	x1, [sp, #44]
   84c28:	aa0103e0 	mov	x0, x1
   84c2c:	d37ff800 	lsl	x0, x0, #1
   84c30:	8b010000 	add	x0, x0, x1
   84c34:	d37df000 	lsl	x0, x0, #3
   84c38:	8b000040 	add	x0, x2, x0
   84c3c:	f9400801 	ldr	x1, [x0, #16]
   84c40:	f9400be0 	ldr	x0, [sp, #16]
   84c44:	d63f0020 	blr	x1
   84c48:	1400000d 	b	84c7c <command_exec+0xf4>
   84c4c:	b9402fe0 	ldr	w0, [sp, #44]
   84c50:	11000400 	add	w0, w0, #0x1
   84c54:	b9002fe0 	str	w0, [sp, #44]
   84c58:	b9402fe0 	ldr	w0, [sp, #44]
   84c5c:	7100201f 	cmp	w0, #0x8
   84c60:	54fffa0d 	b.le	84ba0 <command_exec+0x18>
   84c64:	f9400be0 	ldr	x0, [sp, #16]
   84c68:	f9400000 	ldr	x0, [x0]
   84c6c:	97fffdb6 	bl	84344 <uart_sends>
   84c70:	f0000000 	adrp	x0, 87000 <set_exception_vector_table>
   84c74:	91230000 	add	x0, x0, #0x8c0
   84c78:	97fffdb3 	bl	84344 <uart_sends>
   84c7c:	a8c37bfd 	ldp	x29, x30, [sp], #48
   84c80:	d65f03c0 	ret

0000000000084c84 <strlen>:
   84c84:	d10083ff 	sub	sp, sp, #0x20
   84c88:	f90007e0 	str	x0, [sp, #8]
   84c8c:	b9001fff 	str	wzr, [sp, #28]
   84c90:	14000004 	b	84ca0 <strlen+0x1c>
   84c94:	b9401fe0 	ldr	w0, [sp, #28]
   84c98:	11000400 	add	w0, w0, #0x1
   84c9c:	b9001fe0 	str	w0, [sp, #28]
   84ca0:	f94007e0 	ldr	x0, [sp, #8]
   84ca4:	91000401 	add	x1, x0, #0x1
   84ca8:	f90007e1 	str	x1, [sp, #8]
   84cac:	39400000 	ldrb	w0, [x0]
   84cb0:	7100001f 	cmp	w0, #0x0
   84cb4:	54ffff01 	b.ne	84c94 <strlen+0x10>  // b.any
   84cb8:	b9401fe0 	ldr	w0, [sp, #28]
   84cbc:	910083ff 	add	sp, sp, #0x20
   84cc0:	d65f03c0 	ret

0000000000084cc4 <strcmp>:
   84cc4:	d10043ff 	sub	sp, sp, #0x10
   84cc8:	f90007e0 	str	x0, [sp, #8]
   84ccc:	f90003e1 	str	x1, [sp]
   84cd0:	f94007e0 	ldr	x0, [sp, #8]
   84cd4:	39400000 	ldrb	w0, [x0]
   84cd8:	7100001f 	cmp	w0, #0x0
   84cdc:	540002c0 	b.eq	84d34 <strcmp+0x70>  // b.none
   84ce0:	f94003e0 	ldr	x0, [sp]
   84ce4:	39400000 	ldrb	w0, [x0]
   84ce8:	7100001f 	cmp	w0, #0x0
   84cec:	54000240 	b.eq	84d34 <strcmp+0x70>  // b.none
   84cf0:	f94007e0 	ldr	x0, [sp, #8]
   84cf4:	39400001 	ldrb	w1, [x0]
   84cf8:	f94003e0 	ldr	x0, [sp]
   84cfc:	39400000 	ldrb	w0, [x0]
   84d00:	6b00003f 	cmp	w1, w0
   84d04:	54000161 	b.ne	84d30 <strcmp+0x6c>  // b.any
   84d08:	f94007e0 	ldr	x0, [sp, #8]
   84d0c:	91000401 	add	x1, x0, #0x1
   84d10:	f90007e1 	str	x1, [sp, #8]
   84d14:	39400001 	ldrb	w1, [x0]
   84d18:	f94003e0 	ldr	x0, [sp]
   84d1c:	91000402 	add	x2, x0, #0x1
   84d20:	f90003e2 	str	x2, [sp]
   84d24:	39400000 	ldrb	w0, [x0]
   84d28:	6b00003f 	cmp	w1, w0
   84d2c:	17ffffe9 	b	84cd0 <strcmp+0xc>
   84d30:	d503201f 	nop
   84d34:	f94007e0 	ldr	x0, [sp, #8]
   84d38:	39400001 	ldrb	w1, [x0]
   84d3c:	f94003e0 	ldr	x0, [sp]
   84d40:	39400000 	ldrb	w0, [x0]
   84d44:	6b00003f 	cmp	w1, w0
   84d48:	1a9f07e0 	cset	w0, ne  // ne = any
   84d4c:	12001c00 	and	w0, w0, #0xff
   84d50:	910043ff 	add	sp, sp, #0x10
   84d54:	d65f03c0 	ret

0000000000084d58 <strcpy>:
   84d58:	d10043ff 	sub	sp, sp, #0x10
   84d5c:	f90007e0 	str	x0, [sp, #8]
   84d60:	f90003e1 	str	x1, [sp]
   84d64:	1400000e 	b	84d9c <strcpy+0x44>
   84d68:	f94007e0 	ldr	x0, [sp, #8]
   84d6c:	f100001f 	cmp	x0, #0x0
   84d70:	54000061 	b.ne	84d7c <strcpy+0x24>  // b.any
   84d74:	12800000 	mov	w0, #0xffffffff            	// #-1
   84d78:	14000010 	b	84db8 <strcpy+0x60>
   84d7c:	f94003e1 	ldr	x1, [sp]
   84d80:	91000420 	add	x0, x1, #0x1
   84d84:	f90003e0 	str	x0, [sp]
   84d88:	f94007e0 	ldr	x0, [sp, #8]
   84d8c:	91000402 	add	x2, x0, #0x1
   84d90:	f90007e2 	str	x2, [sp, #8]
   84d94:	39400021 	ldrb	w1, [x1]
   84d98:	39000001 	strb	w1, [x0]
   84d9c:	f94003e0 	ldr	x0, [sp]
   84da0:	39400000 	ldrb	w0, [x0]
   84da4:	7100001f 	cmp	w0, #0x0
   84da8:	54fffe01 	b.ne	84d68 <strcpy+0x10>  // b.any
   84dac:	f94007e0 	ldr	x0, [sp, #8]
   84db0:	3900001f 	strb	wzr, [x0]
   84db4:	52800000 	mov	w0, #0x0                   	// #0
   84db8:	910043ff 	add	sp, sp, #0x10
   84dbc:	d65f03c0 	ret

0000000000084dc0 <strdup>:
   84dc0:	a9bd7bfd 	stp	x29, x30, [sp, #-48]!
   84dc4:	910003fd 	mov	x29, sp
   84dc8:	f9000fe0 	str	x0, [sp, #24]
   84dcc:	f9400fe0 	ldr	x0, [sp, #24]
   84dd0:	97ffffad 	bl	84c84 <strlen>
   84dd4:	b9002fe0 	str	w0, [sp, #44]
   84dd8:	b9402fe0 	ldr	w0, [sp, #44]
   84ddc:	11000400 	add	w0, w0, #0x1
   84de0:	97fff4ce 	bl	82118 <simple_malloc>
   84de4:	f90013e0 	str	x0, [sp, #32]
   84de8:	f94013e0 	ldr	x0, [sp, #32]
   84dec:	f100001f 	cmp	x0, #0x0
   84df0:	54000080 	b.eq	84e00 <strdup+0x40>  // b.none
   84df4:	f9400fe1 	ldr	x1, [sp, #24]
   84df8:	f94013e0 	ldr	x0, [sp, #32]
   84dfc:	97ffffd7 	bl	84d58 <strcpy>
   84e00:	f94013e0 	ldr	x0, [sp, #32]
   84e04:	a8c37bfd 	ldp	x29, x30, [sp], #48
   84e08:	d65f03c0 	ret

0000000000084e0c <strtok>:
   84e0c:	d100c3ff 	sub	sp, sp, #0x30
   84e10:	f90007e0 	str	x0, [sp, #8]
   84e14:	f90003e1 	str	x1, [sp]
   84e18:	f90017ff 	str	xzr, [sp, #40]
   84e1c:	f94007e0 	ldr	x0, [sp, #8]
   84e20:	f100001f 	cmp	x0, #0x0
   84e24:	540007c0 	b.eq	84f1c <strtok+0x110>  // b.none
   84e28:	90000020 	adrp	x0, 88000 <get_current+0xce8>
   84e2c:	91360000 	add	x0, x0, #0xd80
   84e30:	f94007e1 	ldr	x1, [sp, #8]
   84e34:	f9000001 	str	x1, [x0]
   84e38:	14000039 	b	84f1c <strtok+0x110>
   84e3c:	b90027ff 	str	wzr, [sp, #36]
   84e40:	f94003e0 	ldr	x0, [sp]
   84e44:	f9000fe0 	str	x0, [sp, #24]
   84e48:	1400000f 	b	84e84 <strtok+0x78>
   84e4c:	90000020 	adrp	x0, 88000 <get_current+0xce8>
   84e50:	91360000 	add	x0, x0, #0xd80
   84e54:	f9400000 	ldr	x0, [x0]
   84e58:	39400001 	ldrb	w1, [x0]
   84e5c:	f9400fe0 	ldr	x0, [sp, #24]
   84e60:	39400000 	ldrb	w0, [x0]
   84e64:	6b00003f 	cmp	w1, w0
   84e68:	54000081 	b.ne	84e78 <strtok+0x6c>  // b.any
   84e6c:	52800020 	mov	w0, #0x1                   	// #1
   84e70:	b90027e0 	str	w0, [sp, #36]
   84e74:	14000008 	b	84e94 <strtok+0x88>
   84e78:	f9400fe0 	ldr	x0, [sp, #24]
   84e7c:	91000400 	add	x0, x0, #0x1
   84e80:	f9000fe0 	str	x0, [sp, #24]
   84e84:	f9400fe0 	ldr	x0, [sp, #24]
   84e88:	39400000 	ldrb	w0, [x0]
   84e8c:	7100001f 	cmp	w0, #0x0
   84e90:	54fffde1 	b.ne	84e4c <strtok+0x40>  // b.any
   84e94:	b94027e0 	ldr	w0, [sp, #36]
   84e98:	7100001f 	cmp	w0, #0x0
   84e9c:	54000121 	b.ne	84ec0 <strtok+0xb4>  // b.any
   84ea0:	f94017e0 	ldr	x0, [sp, #40]
   84ea4:	f100001f 	cmp	x0, #0x0
   84ea8:	540000c1 	b.ne	84ec0 <strtok+0xb4>  // b.any
   84eac:	90000020 	adrp	x0, 88000 <get_current+0xce8>
   84eb0:	91360000 	add	x0, x0, #0xd80
   84eb4:	f9400000 	ldr	x0, [x0]
   84eb8:	f90017e0 	str	x0, [sp, #40]
   84ebc:	14000011 	b	84f00 <strtok+0xf4>
   84ec0:	b94027e0 	ldr	w0, [sp, #36]
   84ec4:	7100001f 	cmp	w0, #0x0
   84ec8:	540001c0 	b.eq	84f00 <strtok+0xf4>  // b.none
   84ecc:	f94017e0 	ldr	x0, [sp, #40]
   84ed0:	f100001f 	cmp	x0, #0x0
   84ed4:	54000160 	b.eq	84f00 <strtok+0xf4>  // b.none
   84ed8:	90000020 	adrp	x0, 88000 <get_current+0xce8>
   84edc:	91360000 	add	x0, x0, #0xd80
   84ee0:	f9400000 	ldr	x0, [x0]
   84ee4:	91000402 	add	x2, x0, #0x1
   84ee8:	90000021 	adrp	x1, 88000 <get_current+0xce8>
   84eec:	91360021 	add	x1, x1, #0xd80
   84ef0:	f9000022 	str	x2, [x1]
   84ef4:	3900001f 	strb	wzr, [x0]
   84ef8:	f94017e0 	ldr	x0, [sp, #40]
   84efc:	1400000f 	b	84f38 <strtok+0x12c>
   84f00:	90000020 	adrp	x0, 88000 <get_current+0xce8>
   84f04:	91360000 	add	x0, x0, #0xd80
   84f08:	f9400000 	ldr	x0, [x0]
   84f0c:	91000401 	add	x1, x0, #0x1
   84f10:	90000020 	adrp	x0, 88000 <get_current+0xce8>
   84f14:	91360000 	add	x0, x0, #0xd80
   84f18:	f9000001 	str	x1, [x0]
   84f1c:	90000020 	adrp	x0, 88000 <get_current+0xce8>
   84f20:	91360000 	add	x0, x0, #0xd80
   84f24:	f9400000 	ldr	x0, [x0]
   84f28:	39400000 	ldrb	w0, [x0]
   84f2c:	7100001f 	cmp	w0, #0x0
   84f30:	54fff861 	b.ne	84e3c <strtok+0x30>  // b.any
   84f34:	f94017e0 	ldr	x0, [sp, #40]
   84f38:	9100c3ff 	add	sp, sp, #0x30
   84f3c:	d65f03c0 	ret

0000000000084f40 <memcmp>:
   84f40:	d10103ff 	sub	sp, sp, #0x40
   84f44:	f9000fe0 	str	x0, [sp, #24]
   84f48:	f9000be1 	str	x1, [sp, #16]
   84f4c:	b9000fe2 	str	w2, [sp, #12]
   84f50:	f9400fe0 	ldr	x0, [sp, #24]
   84f54:	f9001be0 	str	x0, [sp, #48]
   84f58:	f9400be0 	ldr	x0, [sp, #16]
   84f5c:	f90017e0 	str	x0, [sp, #40]
   84f60:	b9003fff 	str	wzr, [sp, #60]
   84f64:	1400001c 	b	84fd4 <memcmp+0x94>
   84f68:	b9803fe0 	ldrsw	x0, [sp, #60]
   84f6c:	f9401be1 	ldr	x1, [sp, #48]
   84f70:	8b000020 	add	x0, x1, x0
   84f74:	39400001 	ldrb	w1, [x0]
   84f78:	b9803fe0 	ldrsw	x0, [sp, #60]
   84f7c:	f94017e2 	ldr	x2, [sp, #40]
   84f80:	8b000040 	add	x0, x2, x0
   84f84:	39400000 	ldrb	w0, [x0]
   84f88:	6b00003f 	cmp	w1, w0
   84f8c:	54000062 	b.cs	84f98 <memcmp+0x58>  // b.hs, b.nlast
   84f90:	12800000 	mov	w0, #0xffffffff            	// #-1
   84f94:	14000015 	b	84fe8 <memcmp+0xa8>
   84f98:	b9803fe0 	ldrsw	x0, [sp, #60]
   84f9c:	f9401be1 	ldr	x1, [sp, #48]
   84fa0:	8b000020 	add	x0, x1, x0
   84fa4:	39400001 	ldrb	w1, [x0]
   84fa8:	b9803fe0 	ldrsw	x0, [sp, #60]
   84fac:	f94017e2 	ldr	x2, [sp, #40]
   84fb0:	8b000040 	add	x0, x2, x0
   84fb4:	39400000 	ldrb	w0, [x0]
   84fb8:	6b00003f 	cmp	w1, w0
   84fbc:	54000069 	b.ls	84fc8 <memcmp+0x88>  // b.plast
   84fc0:	52800020 	mov	w0, #0x1                   	// #1
   84fc4:	14000009 	b	84fe8 <memcmp+0xa8>
   84fc8:	b9403fe0 	ldr	w0, [sp, #60]
   84fcc:	11000400 	add	w0, w0, #0x1
   84fd0:	b9003fe0 	str	w0, [sp, #60]
   84fd4:	b9403fe1 	ldr	w1, [sp, #60]
   84fd8:	b9400fe0 	ldr	w0, [sp, #12]
   84fdc:	6b00003f 	cmp	w1, w0
   84fe0:	54fffc4b 	b.lt	84f68 <memcmp+0x28>  // b.tstop
   84fe4:	52800000 	mov	w0, #0x0                   	// #0
   84fe8:	910103ff 	add	sp, sp, #0x40
   84fec:	d65f03c0 	ret

0000000000084ff0 <memset>:
   84ff0:	d10083ff 	sub	sp, sp, #0x20
   84ff4:	f90007e0 	str	x0, [sp, #8]
   84ff8:	b90007e1 	str	w1, [sp, #4]
   84ffc:	b90003e2 	str	w2, [sp]
   85000:	f94007e0 	ldr	x0, [sp, #8]
   85004:	f9000be0 	str	x0, [sp, #16]
   85008:	f9000fff 	str	xzr, [sp, #24]
   8500c:	1400000a 	b	85034 <memset+0x44>
   85010:	f9400be1 	ldr	x1, [sp, #16]
   85014:	f9400fe0 	ldr	x0, [sp, #24]
   85018:	8b000020 	add	x0, x1, x0
   8501c:	b94007e1 	ldr	w1, [sp, #4]
   85020:	12001c21 	and	w1, w1, #0xff
   85024:	39000001 	strb	w1, [x0]
   85028:	f9400fe0 	ldr	x0, [sp, #24]
   8502c:	91000400 	add	x0, x0, #0x1
   85030:	f9000fe0 	str	x0, [sp, #24]
   85034:	b98003e0 	ldrsw	x0, [sp]
   85038:	f9400fe1 	ldr	x1, [sp, #24]
   8503c:	eb00003f 	cmp	x1, x0
   85040:	54fffe83 	b.cc	85010 <memset+0x20>  // b.lo, b.ul, b.last
   85044:	d503201f 	nop
   85048:	910083ff 	add	sp, sp, #0x20
   8504c:	d65f03c0 	ret

0000000000085050 <hstr2int>:
   85050:	d10083ff 	sub	sp, sp, #0x20
   85054:	f90007e0 	str	x0, [sp, #8]
   85058:	b90007e1 	str	w1, [sp, #4]
   8505c:	b9001fff 	str	wzr, [sp, #28]
   85060:	14000036 	b	85138 <hstr2int+0xe8>
   85064:	f94007e0 	ldr	x0, [sp, #8]
   85068:	39400000 	ldrb	w0, [x0]
   8506c:	7100bc1f 	cmp	w0, #0x2f
   85070:	540001e9 	b.ls	850ac <hstr2int+0x5c>  // b.plast
   85074:	f94007e0 	ldr	x0, [sp, #8]
   85078:	39400000 	ldrb	w0, [x0]
   8507c:	7100e41f 	cmp	w0, #0x39
   85080:	54000168 	b.hi	850ac <hstr2int+0x5c>  // b.pmore
   85084:	b9401fe0 	ldr	w0, [sp, #28]
   85088:	531c6c01 	lsl	w1, w0, #4
   8508c:	f94007e0 	ldr	x0, [sp, #8]
   85090:	91000402 	add	x2, x0, #0x1
   85094:	f90007e2 	str	x2, [sp, #8]
   85098:	39400000 	ldrb	w0, [x0]
   8509c:	5100c000 	sub	w0, w0, #0x30
   850a0:	0b000020 	add	w0, w1, w0
   850a4:	b9001fe0 	str	w0, [sp, #28]
   850a8:	14000024 	b	85138 <hstr2int+0xe8>
   850ac:	f94007e0 	ldr	x0, [sp, #8]
   850b0:	39400000 	ldrb	w0, [x0]
   850b4:	7101801f 	cmp	w0, #0x60
   850b8:	540001e9 	b.ls	850f4 <hstr2int+0xa4>  // b.plast
   850bc:	f94007e0 	ldr	x0, [sp, #8]
   850c0:	39400000 	ldrb	w0, [x0]
   850c4:	7101981f 	cmp	w0, #0x66
   850c8:	54000168 	b.hi	850f4 <hstr2int+0xa4>  // b.pmore
   850cc:	b9401fe0 	ldr	w0, [sp, #28]
   850d0:	531c6c01 	lsl	w1, w0, #4
   850d4:	f94007e0 	ldr	x0, [sp, #8]
   850d8:	91000402 	add	x2, x0, #0x1
   850dc:	f90007e2 	str	x2, [sp, #8]
   850e0:	39400000 	ldrb	w0, [x0]
   850e4:	51015c00 	sub	w0, w0, #0x57
   850e8:	0b000020 	add	w0, w1, w0
   850ec:	b9001fe0 	str	w0, [sp, #28]
   850f0:	14000012 	b	85138 <hstr2int+0xe8>
   850f4:	f94007e0 	ldr	x0, [sp, #8]
   850f8:	39400000 	ldrb	w0, [x0]
   850fc:	7101001f 	cmp	w0, #0x40
   85100:	540001c9 	b.ls	85138 <hstr2int+0xe8>  // b.plast
   85104:	f94007e0 	ldr	x0, [sp, #8]
   85108:	39400000 	ldrb	w0, [x0]
   8510c:	7101181f 	cmp	w0, #0x46
   85110:	54000148 	b.hi	85138 <hstr2int+0xe8>  // b.pmore
   85114:	b9401fe0 	ldr	w0, [sp, #28]
   85118:	531c6c01 	lsl	w1, w0, #4
   8511c:	f94007e0 	ldr	x0, [sp, #8]
   85120:	91000402 	add	x2, x0, #0x1
   85124:	f90007e2 	str	x2, [sp, #8]
   85128:	39400000 	ldrb	w0, [x0]
   8512c:	5100dc00 	sub	w0, w0, #0x37
   85130:	0b000020 	add	w0, w1, w0
   85134:	b9001fe0 	str	w0, [sp, #28]
   85138:	b94007e0 	ldr	w0, [sp, #4]
   8513c:	51000401 	sub	w1, w0, #0x1
   85140:	b90007e1 	str	w1, [sp, #4]
   85144:	7100001f 	cmp	w0, #0x0
   85148:	54fff8e1 	b.ne	85064 <hstr2int+0x14>  // b.any
   8514c:	b9401fe0 	ldr	w0, [sp, #28]
   85150:	910083ff 	add	sp, sp, #0x20
   85154:	d65f03c0 	ret

0000000000085158 <gets>:
   85158:	a9bd7bfd 	stp	x29, x30, [sp, #-48]!
   8515c:	910003fd 	mov	x29, sp
   85160:	f9000fe0 	str	x0, [sp, #24]
   85164:	f9400fe0 	ldr	x0, [sp, #24]
   85168:	f90017e0 	str	x0, [sp, #40]
   8516c:	b90027ff 	str	wzr, [sp, #36]
   85170:	1400002a 	b	85218 <gets+0xc0>
   85174:	97fffc4e 	bl	842ac <uart_recv>
   85178:	12001c01 	and	w1, w0, #0xff
   8517c:	f94017e0 	ldr	x0, [sp, #40]
   85180:	39000001 	strb	w1, [x0]
   85184:	f94017e0 	ldr	x0, [sp, #40]
   85188:	39400000 	ldrb	w0, [x0]
   8518c:	97fffc85 	bl	843a0 <uart_sendc>
   85190:	f94017e0 	ldr	x0, [sp, #40]
   85194:	39400000 	ldrb	w0, [x0]
   85198:	7101fc1f 	cmp	w0, #0x7f
   8519c:	540002a1 	b.ne	851f0 <gets+0x98>  // b.any
   851a0:	b94027e0 	ldr	w0, [sp, #36]
   851a4:	51000400 	sub	w0, w0, #0x1
   851a8:	b90027e0 	str	w0, [sp, #36]
   851ac:	b94027e0 	ldr	w0, [sp, #36]
   851b0:	7100001f 	cmp	w0, #0x0
   851b4:	540002cb 	b.lt	8520c <gets+0xb4>  // b.tstop
   851b8:	b94027e0 	ldr	w0, [sp, #36]
   851bc:	51000400 	sub	w0, w0, #0x1
   851c0:	b90027e0 	str	w0, [sp, #36]
   851c4:	f94017e0 	ldr	x0, [sp, #40]
   851c8:	d1000401 	sub	x1, x0, #0x1
   851cc:	f90017e1 	str	x1, [sp, #40]
   851d0:	3900001f 	strb	wzr, [x0]
   851d4:	52800100 	mov	w0, #0x8                   	// #8
   851d8:	97fffc72 	bl	843a0 <uart_sendc>
   851dc:	52800400 	mov	w0, #0x20                  	// #32
   851e0:	97fffc70 	bl	843a0 <uart_sendc>
   851e4:	52800100 	mov	w0, #0x8                   	// #8
   851e8:	97fffc6e 	bl	843a0 <uart_sendc>
   851ec:	14000008 	b	8520c <gets+0xb4>
   851f0:	f94017e0 	ldr	x0, [sp, #40]
   851f4:	39400000 	ldrb	w0, [x0]
   851f8:	7100281f 	cmp	w0, #0xa
   851fc:	54000160 	b.eq	85228 <gets+0xd0>  // b.none
   85200:	f94017e0 	ldr	x0, [sp, #40]
   85204:	91000400 	add	x0, x0, #0x1
   85208:	f90017e0 	str	x0, [sp, #40]
   8520c:	b94027e0 	ldr	w0, [sp, #36]
   85210:	11000400 	add	w0, w0, #0x1
   85214:	b90027e0 	str	w0, [sp, #36]
   85218:	b94027e0 	ldr	w0, [sp, #36]
   8521c:	7103fc1f 	cmp	w0, #0xff
   85220:	54fffaad 	b.le	85174 <gets+0x1c>
   85224:	14000002 	b	8522c <gets+0xd4>
   85228:	d503201f 	nop
   8522c:	f94017e0 	ldr	x0, [sp, #40]
   85230:	3900001f 	strb	wzr, [x0]
   85234:	52800000 	mov	w0, #0x0                   	// #0
   85238:	a8c37bfd 	ldp	x29, x30, [sp], #48
   8523c:	d65f03c0 	ret

0000000000085240 <atoi>:
   85240:	d10083ff 	sub	sp, sp, #0x20
   85244:	f90007e0 	str	x0, [sp, #8]
   85248:	b9001fff 	str	wzr, [sp, #28]
   8524c:	1400000f 	b	85288 <atoi+0x48>
   85250:	b9401fe1 	ldr	w1, [sp, #28]
   85254:	2a0103e0 	mov	w0, w1
   85258:	531e7400 	lsl	w0, w0, #2
   8525c:	0b010000 	add	w0, w0, w1
   85260:	531f7800 	lsl	w0, w0, #1
   85264:	2a0003e1 	mov	w1, w0
   85268:	f94007e0 	ldr	x0, [sp, #8]
   8526c:	39400000 	ldrb	w0, [x0]
   85270:	5100c000 	sub	w0, w0, #0x30
   85274:	0b000020 	add	w0, w1, w0
   85278:	b9001fe0 	str	w0, [sp, #28]
   8527c:	f94007e0 	ldr	x0, [sp, #8]
   85280:	91000400 	add	x0, x0, #0x1
   85284:	f90007e0 	str	x0, [sp, #8]
   85288:	f94007e0 	ldr	x0, [sp, #8]
   8528c:	39400000 	ldrb	w0, [x0]
   85290:	7100001f 	cmp	w0, #0x0
   85294:	54fffde1 	b.ne	85250 <atoi+0x10>  // b.any
   85298:	b9401fe0 	ldr	w0, [sp, #28]
   8529c:	910083ff 	add	sp, sp, #0x20
   852a0:	d65f03c0 	ret

00000000000852a4 <sys_getpid>:
   852a4:	a9be7bfd 	stp	x29, x30, [sp, #-32]!
   852a8:	910003fd 	mov	x29, sp
   852ac:	9400081b 	bl	87318 <get_current>
   852b0:	f9000fe0 	str	x0, [sp, #24]
   852b4:	f9400fe0 	ldr	x0, [sp, #24]
   852b8:	b9406800 	ldr	w0, [x0, #104]
   852bc:	a8c27bfd 	ldp	x29, x30, [sp], #32
   852c0:	d65f03c0 	ret

00000000000852c4 <sys_uartread>:
   852c4:	a9bc7bfd 	stp	x29, x30, [sp, #-64]!
   852c8:	910003fd 	mov	x29, sp
   852cc:	f9000bf3 	str	x19, [sp, #16]
   852d0:	f90017e0 	str	x0, [sp, #40]
   852d4:	f90013e1 	str	x1, [sp, #32]
   852d8:	f9001fff 	str	xzr, [sp, #56]
   852dc:	1400000a 	b	85304 <sys_uartread+0x40>
   852e0:	f94017e1 	ldr	x1, [sp, #40]
   852e4:	f9401fe0 	ldr	x0, [sp, #56]
   852e8:	8b000033 	add	x19, x1, x0
   852ec:	97fffbf0 	bl	842ac <uart_recv>
   852f0:	12001c00 	and	w0, w0, #0xff
   852f4:	39000260 	strb	w0, [x19]
   852f8:	f9401fe0 	ldr	x0, [sp, #56]
   852fc:	91000400 	add	x0, x0, #0x1
   85300:	f9001fe0 	str	x0, [sp, #56]
   85304:	f9401fe1 	ldr	x1, [sp, #56]
   85308:	f94013e0 	ldr	x0, [sp, #32]
   8530c:	eb00003f 	cmp	x1, x0
   85310:	54fffe83 	b.cc	852e0 <sys_uartread+0x1c>  // b.lo, b.ul, b.last
   85314:	f9401fe0 	ldr	x0, [sp, #56]
   85318:	f9400bf3 	ldr	x19, [sp, #16]
   8531c:	a8c47bfd 	ldp	x29, x30, [sp], #64
   85320:	d65f03c0 	ret

0000000000085324 <sys_uartwrite>:
   85324:	a9bd7bfd 	stp	x29, x30, [sp, #-48]!
   85328:	910003fd 	mov	x29, sp
   8532c:	f9000fe0 	str	x0, [sp, #24]
   85330:	f9000be1 	str	x1, [sp, #16]
   85334:	f90017ff 	str	xzr, [sp, #40]
   85338:	14000009 	b	8535c <sys_uartwrite+0x38>
   8533c:	f9400fe1 	ldr	x1, [sp, #24]
   85340:	f94017e0 	ldr	x0, [sp, #40]
   85344:	8b000020 	add	x0, x1, x0
   85348:	39400000 	ldrb	w0, [x0]
   8534c:	97fffc15 	bl	843a0 <uart_sendc>
   85350:	f94017e0 	ldr	x0, [sp, #40]
   85354:	91000400 	add	x0, x0, #0x1
   85358:	f90017e0 	str	x0, [sp, #40]
   8535c:	f94017e1 	ldr	x1, [sp, #40]
   85360:	f9400be0 	ldr	x0, [sp, #16]
   85364:	eb00003f 	cmp	x1, x0
   85368:	54fffea3 	b.cc	8533c <sys_uartwrite+0x18>  // b.lo, b.ul, b.last
   8536c:	f94017e0 	ldr	x0, [sp, #40]
   85370:	a8c37bfd 	ldp	x29, x30, [sp], #48
   85374:	d65f03c0 	ret

0000000000085378 <sys_exec>:
   85378:	a9bb7bfd 	stp	x29, x30, [sp, #-80]!
   8537c:	910003fd 	mov	x29, sp
   85380:	f9000fe0 	str	x0, [sp, #24]
   85384:	f9000be1 	str	x1, [sp, #16]
   85388:	f9400fe0 	ldr	x0, [sp, #24]
   8538c:	97fff469 	bl	82530 <fetch_exec>
   85390:	f90023e0 	str	x0, [sp, #64]
   85394:	f9400fe0 	ldr	x0, [sp, #24]
   85398:	97fff4c4 	bl	826a8 <get_exec_size>
   8539c:	b9003fe0 	str	w0, [sp, #60]
   853a0:	b9403fe0 	ldr	w0, [sp, #60]
   853a4:	97fffb2e 	bl	8405c <kmalloc>
   853a8:	f9001be0 	str	x0, [sp, #48]
   853ac:	b9004fff 	str	wzr, [sp, #76]
   853b0:	1400000c 	b	853e0 <sys_exec+0x68>
   853b4:	b9804fe0 	ldrsw	x0, [sp, #76]
   853b8:	f94023e1 	ldr	x1, [sp, #64]
   853bc:	8b000021 	add	x1, x1, x0
   853c0:	b9804fe0 	ldrsw	x0, [sp, #76]
   853c4:	f9401be2 	ldr	x2, [sp, #48]
   853c8:	8b000040 	add	x0, x2, x0
   853cc:	39400021 	ldrb	w1, [x1]
   853d0:	39000001 	strb	w1, [x0]
   853d4:	b9404fe0 	ldr	w0, [sp, #76]
   853d8:	11000400 	add	w0, w0, #0x1
   853dc:	b9004fe0 	str	w0, [sp, #76]
   853e0:	b9404fe1 	ldr	w1, [sp, #76]
   853e4:	b9403fe0 	ldr	w0, [sp, #60]
   853e8:	6b00003f 	cmp	w1, w0
   853ec:	54fffe4b 	b.lt	853b4 <sys_exec+0x3c>  // b.tstop
   853f0:	940007ca 	bl	87318 <get_current>
   853f4:	f90017e0 	str	x0, [sp, #40]
   853f8:	f9401be1 	ldr	x1, [sp, #48]
   853fc:	f94017e0 	ldr	x0, [sp, #40]
   85400:	f9002c01 	str	x1, [x0, #88]
   85404:	97fff5b9 	bl	82ae8 <core_timer_enable>
   85408:	f94017e0 	ldr	x0, [sp, #40]
   8540c:	f9402c01 	ldr	x1, [x0, #88]
   85410:	f94017e0 	ldr	x0, [sp, #40]
   85414:	f9403002 	ldr	x2, [x0, #96]
   85418:	f94017e0 	ldr	x0, [sp, #40]
   8541c:	f9404000 	ldr	x0, [x0, #128]
   85420:	91400403 	add	x3, x0, #0x1, lsl #12
   85424:	f94017e0 	ldr	x0, [sp, #40]
   85428:	d518d080 	msr	tpidr_el1, x0
   8542c:	d2800004 	mov	x4, #0x0                   	// #0
   85430:	d5184004 	msr	spsr_el1, x4
   85434:	d5184021 	msr	elr_el1, x1
   85438:	d5184102 	msr	sp_el0, x2
   8543c:	9100007f 	mov	sp, x3
   85440:	d69f03e0 	eret
   85444:	52800000 	mov	w0, #0x0                   	// #0
   85448:	a8c57bfd 	ldp	x29, x30, [sp], #80
   8544c:	d65f03c0 	ret

0000000000085450 <set_child_lr>:
   85450:	d10083ff 	sub	sp, sp, #0x20
   85454:	f90007e0 	str	x0, [sp, #8]
   85458:	aa1e03e0 	mov	x0, x30
   8545c:	f9000fe0 	str	x0, [sp, #24]
   85460:	f94007e0 	ldr	x0, [sp, #8]
   85464:	f9400fe1 	ldr	x1, [sp, #24]
   85468:	f9002c01 	str	x1, [x0, #88]
   8546c:	d503201f 	nop
   85470:	910083ff 	add	sp, sp, #0x20
   85474:	d65f03c0 	ret

0000000000085478 <sys_fork>:
   85478:	a9ba7bfd 	stp	x29, x30, [sp, #-96]!
   8547c:	910003fd 	mov	x29, sp
   85480:	f9000fe0 	str	x0, [sp, #24]
   85484:	940007a5 	bl	87318 <get_current>
   85488:	f90027e0 	str	x0, [sp, #72]
   8548c:	d2800000 	mov	x0, #0x0                   	// #0
   85490:	940001ee 	bl	85c48 <thread_create>
   85494:	f90023e0 	str	x0, [sp, #64]
   85498:	f94023e0 	ldr	x0, [sp, #64]
   8549c:	b9406800 	ldr	w0, [x0, #104]
   854a0:	b9003fe0 	str	w0, [sp, #60]
   854a4:	b9005fff 	str	wzr, [sp, #92]
   854a8:	1400000e 	b	854e0 <sys_fork+0x68>
   854ac:	f94027e0 	ldr	x0, [sp, #72]
   854b0:	f9403c01 	ldr	x1, [x0, #120]
   854b4:	b9805fe0 	ldrsw	x0, [sp, #92]
   854b8:	8b000021 	add	x1, x1, x0
   854bc:	f94023e0 	ldr	x0, [sp, #64]
   854c0:	f9403c02 	ldr	x2, [x0, #120]
   854c4:	b9805fe0 	ldrsw	x0, [sp, #92]
   854c8:	8b000040 	add	x0, x2, x0
   854cc:	39400021 	ldrb	w1, [x1]
   854d0:	39000001 	strb	w1, [x0]
   854d4:	b9405fe0 	ldr	w0, [sp, #92]
   854d8:	11000400 	add	w0, w0, #0x1
   854dc:	b9005fe0 	str	w0, [sp, #92]
   854e0:	b9405fe0 	ldr	w0, [sp, #92]
   854e4:	713ffc1f 	cmp	w0, #0xfff
   854e8:	54fffe2d 	b.le	854ac <sys_fork+0x34>
   854ec:	b9005bff 	str	wzr, [sp, #88]
   854f0:	1400000e 	b	85528 <sys_fork+0xb0>
   854f4:	f94027e0 	ldr	x0, [sp, #72]
   854f8:	f9404001 	ldr	x1, [x0, #128]
   854fc:	b9805be0 	ldrsw	x0, [sp, #88]
   85500:	8b000021 	add	x1, x1, x0
   85504:	f94023e0 	ldr	x0, [sp, #64]
   85508:	f9404002 	ldr	x2, [x0, #128]
   8550c:	b9805be0 	ldrsw	x0, [sp, #88]
   85510:	8b000040 	add	x0, x2, x0
   85514:	39400021 	ldrb	w1, [x1]
   85518:	39000001 	strb	w1, [x0]
   8551c:	b9405be0 	ldr	w0, [sp, #88]
   85520:	11000400 	add	w0, w0, #0x1
   85524:	b9005be0 	str	w0, [sp, #88]
   85528:	b9405be0 	ldr	w0, [sp, #88]
   8552c:	713ffc1f 	cmp	w0, #0xfff
   85530:	54fffe2d 	b.le	854f4 <sys_fork+0x7c>
   85534:	f94027e0 	ldr	x0, [sp, #72]
   85538:	f9403801 	ldr	x1, [x0, #112]
   8553c:	f94023e0 	ldr	x0, [sp, #64]
   85540:	f9003801 	str	x1, [x0, #112]
   85544:	910003e0 	mov	x0, sp
   85548:	f9001be0 	str	x0, [sp, #48]
   8554c:	f94023e0 	ldr	x0, [sp, #64]
   85550:	f9404001 	ldr	x1, [x0, #128]
   85554:	f94027e0 	ldr	x0, [sp, #72]
   85558:	f9404000 	ldr	x0, [x0, #128]
   8555c:	cb000020 	sub	x0, x1, x0
   85560:	aa0003e1 	mov	x1, x0
   85564:	f9401be0 	ldr	x0, [sp, #48]
   85568:	8b000021 	add	x1, x1, x0
   8556c:	f94023e0 	ldr	x0, [sp, #64]
   85570:	f9003001 	str	x1, [x0, #96]
   85574:	f94023e0 	ldr	x0, [sp, #64]
   85578:	f9404000 	ldr	x0, [x0, #128]
   8557c:	f94027e1 	ldr	x1, [sp, #72]
   85580:	f9404021 	ldr	x1, [x1, #128]
   85584:	f9400fe2 	ldr	x2, [sp, #24]
   85588:	cb010041 	sub	x1, x2, x1
   8558c:	8b010000 	add	x0, x0, x1
   85590:	f90017e0 	str	x0, [sp, #40]
   85594:	f94017e0 	ldr	x0, [sp, #40]
   85598:	f900001f 	str	xzr, [x0]
   8559c:	f94023e0 	ldr	x0, [sp, #64]
   855a0:	f9403c00 	ldr	x0, [x0, #120]
   855a4:	f9400fe1 	ldr	x1, [sp, #24]
   855a8:	f9408421 	ldr	x1, [x1, #264]
   855ac:	aa0103e2 	mov	x2, x1
   855b0:	f94027e1 	ldr	x1, [sp, #72]
   855b4:	f9403c21 	ldr	x1, [x1, #120]
   855b8:	cb010041 	sub	x1, x2, x1
   855bc:	8b010000 	add	x0, x0, x1
   855c0:	aa0003e1 	mov	x1, x0
   855c4:	f94017e0 	ldr	x0, [sp, #40]
   855c8:	f9008401 	str	x1, [x0, #264]
   855cc:	f94023e0 	ldr	x0, [sp, #64]
   855d0:	97ffffa0 	bl	85450 <set_child_lr>
   855d4:	94000751 	bl	87318 <get_current>
   855d8:	b9406800 	ldr	w0, [x0, #104]
   855dc:	b9403fe1 	ldr	w1, [sp, #60]
   855e0:	6b00003f 	cmp	w1, w0
   855e4:	54000201 	b.ne	85624 <sys_fork+0x1ac>  // b.any
   855e8:	d0000000 	adrp	x0, 87000 <set_exception_vector_table>
   855ec:	91236000 	add	x0, x0, #0x8d8
   855f0:	97fffb55 	bl	84344 <uart_sends>
   855f4:	b90057ff 	str	wzr, [sp, #84]
   855f8:	14000004 	b	85608 <sys_fork+0x190>
   855fc:	b94057e0 	ldr	w0, [sp, #84]
   85600:	11000400 	add	w0, w0, #0x1
   85604:	b90057e0 	str	w0, [sp, #84]
   85608:	b94057e1 	ldr	w1, [sp, #84]
   8560c:	528847e0 	mov	w0, #0x423f                	// #16959
   85610:	72a001e0 	movk	w0, #0xf, lsl #16
   85614:	6b00003f 	cmp	w1, w0
   85618:	54ffff2d 	b.le	855fc <sys_fork+0x184>
   8561c:	52800000 	mov	w0, #0x0                   	// #0
   85620:	14000006 	b	85638 <sys_fork+0x1c0>
   85624:	b9803fe1 	ldrsw	x1, [sp, #60]
   85628:	f9400fe0 	ldr	x0, [sp, #24]
   8562c:	f9000001 	str	x1, [x0]
   85630:	f94023e0 	ldr	x0, [sp, #64]
   85634:	b9406800 	ldr	w0, [x0, #104]
   85638:	a8c67bfd 	ldp	x29, x30, [sp], #96
   8563c:	d65f03c0 	ret

0000000000085640 <sys_mbox_call>:
   85640:	a9be7bfd 	stp	x29, x30, [sp, #-32]!
   85644:	910003fd 	mov	x29, sp
   85648:	39007fe0 	strb	w0, [sp, #31]
   8564c:	f9000be1 	str	x1, [sp, #16]
   85650:	f9400be1 	ldr	x1, [sp, #16]
   85654:	39407fe0 	ldrb	w0, [sp, #31]
   85658:	97fff612 	bl	82ea0 <mailbox_call>
   8565c:	a8c27bfd 	ldp	x29, x30, [sp], #32
   85660:	d65f03c0 	ret

0000000000085664 <sys_exit>:
   85664:	a9be7bfd 	stp	x29, x30, [sp, #-32]!
   85668:	910003fd 	mov	x29, sp
   8566c:	b9001fe0 	str	w0, [sp, #28]
   85670:	940001dd 	bl	85de4 <thread_exit>
   85674:	d503201f 	nop
   85678:	a8c27bfd 	ldp	x29, x30, [sp], #32
   8567c:	d65f03c0 	ret

0000000000085680 <sys_kill>:
   85680:	a9be7bfd 	stp	x29, x30, [sp, #-32]!
   85684:	910003fd 	mov	x29, sp
   85688:	b9001fe0 	str	w0, [sp, #28]
   8568c:	b9401fe0 	ldr	w0, [sp, #28]
   85690:	940001ed 	bl	85e44 <thread_kill>
   85694:	d503201f 	nop
   85698:	a8c27bfd 	ldp	x29, x30, [sp], #32
   8569c:	d65f03c0 	ret

00000000000856a0 <getpid>:
   856a0:	d10043ff 	sub	sp, sp, #0x10
   856a4:	d2800008 	mov	x8, #0x0                   	// #0
   856a8:	d4000001 	svc	#0x0
   856ac:	aa0003e0 	mov	x0, x0
   856b0:	b9000fe0 	str	w0, [sp, #12]
   856b4:	b9400fe0 	ldr	w0, [sp, #12]
   856b8:	910043ff 	add	sp, sp, #0x10
   856bc:	d65f03c0 	ret

00000000000856c0 <fork>:
   856c0:	d10043ff 	sub	sp, sp, #0x10
   856c4:	d2800088 	mov	x8, #0x4                   	// #4
   856c8:	d4000001 	svc	#0x0
   856cc:	aa0003e0 	mov	x0, x0
   856d0:	b9000fe0 	str	w0, [sp, #12]
   856d4:	b9400fe0 	ldr	w0, [sp, #12]
   856d8:	910043ff 	add	sp, sp, #0x10
   856dc:	d65f03c0 	ret

00000000000856e0 <exit>:
   856e0:	d10043ff 	sub	sp, sp, #0x10
   856e4:	b9000fe0 	str	w0, [sp, #12]
   856e8:	d28000a8 	mov	x8, #0x5                   	// #5
   856ec:	d4000001 	svc	#0x0
   856f0:	d503201f 	nop
   856f4:	910043ff 	add	sp, sp, #0x10
   856f8:	d65f03c0 	ret

00000000000856fc <jump_to_el0>:
   856fc:	a9be7bfd 	stp	x29, x30, [sp, #-32]!
   85700:	910003fd 	mov	x29, sp
   85704:	94000705 	bl	87318 <get_current>
   85708:	f9000be0 	str	x0, [sp, #16]
   8570c:	f9400be0 	ldr	x0, [sp, #16]
   85710:	b9406800 	ldr	w0, [x0, #104]
   85714:	97fffb6e 	bl	844cc <uart_sendi>
   85718:	b9001fff 	str	wzr, [sp, #28]
   8571c:	14000004 	b	8572c <jump_to_el0+0x30>
   85720:	b9401fe0 	ldr	w0, [sp, #28]
   85724:	11000400 	add	w0, w0, #0x1
   85728:	b9001fe0 	str	w0, [sp, #28]
   8572c:	b9401fe1 	ldr	w1, [sp, #28]
   85730:	528847e0 	mov	w0, #0x423f                	// #16959
   85734:	72a001e0 	movk	w0, #0xf, lsl #16
   85738:	6b00003f 	cmp	w1, w0
   8573c:	54ffff2d 	b.le	85720 <jump_to_el0+0x24>
   85740:	52807800 	mov	w0, #0x3c0                 	// #960
   85744:	d5184000 	msr	spsr_el1, x0
   85748:	90000000 	adrp	x0, 85000 <memset+0x10>
   8574c:	911e0000 	add	x0, x0, #0x780
   85750:	d5184020 	msr	elr_el1, x0
   85754:	f9400be0 	ldr	x0, [sp, #16]
   85758:	f9403000 	ldr	x0, [x0, #96]
   8575c:	d5184100 	msr	sp_el0, x0
   85760:	f9400be0 	ldr	x0, [sp, #16]
   85764:	f9404000 	ldr	x0, [x0, #128]
   85768:	91400400 	add	x0, x0, #0x1, lsl #12
   8576c:	9100001f 	mov	sp, x0
   85770:	d69f03e0 	eret
   85774:	d503201f 	nop
   85778:	a8c27bfd 	ldp	x29, x30, [sp], #32
   8577c:	d65f03c0 	ret

0000000000085780 <fork_test>:
   85780:	a9bd7bfd 	stp	x29, x30, [sp, #-48]!
   85784:	910003fd 	mov	x29, sp
   85788:	d0000000 	adrp	x0, 87000 <set_exception_vector_table>
   8578c:	91238000 	add	x0, x0, #0x8e0
   85790:	97fffaed 	bl	84344 <uart_sends>
   85794:	97ffffc3 	bl	856a0 <getpid>
   85798:	97fffb4d 	bl	844cc <uart_sendi>
   8579c:	d0000000 	adrp	x0, 87000 <set_exception_vector_table>
   857a0:	9123e000 	add	x0, x0, #0x8f8
   857a4:	97fffae8 	bl	84344 <uart_sends>
   857a8:	b9002fff 	str	wzr, [sp, #44]
   857ac:	14000004 	b	857bc <fork_test+0x3c>
   857b0:	b9402fe0 	ldr	w0, [sp, #44]
   857b4:	11000400 	add	w0, w0, #0x1
   857b8:	b9002fe0 	str	w0, [sp, #44]
   857bc:	b9402fe1 	ldr	w1, [sp, #44]
   857c0:	528847e0 	mov	w0, #0x423f                	// #16959
   857c4:	72a001e0 	movk	w0, #0xf, lsl #16
   857c8:	6b00003f 	cmp	w1, w0
   857cc:	54ffff2d 	b.le	857b0 <fork_test+0x30>
   857d0:	52800020 	mov	w0, #0x1                   	// #1
   857d4:	b9001fe0 	str	w0, [sp, #28]
   857d8:	b9002bff 	str	wzr, [sp, #40]
   857dc:	97ffffb9 	bl	856c0 <fork>
   857e0:	b9002be0 	str	w0, [sp, #40]
   857e4:	b9402be0 	ldr	w0, [sp, #40]
   857e8:	7100001f 	cmp	w0, #0x0
   857ec:	54000bc1 	b.ne	85964 <fork_test+0x1e4>  // b.any
   857f0:	910003e0 	mov	x0, sp
   857f4:	f90013e0 	str	x0, [sp, #32]
   857f8:	d0000000 	adrp	x0, 87000 <set_exception_vector_table>
   857fc:	91240000 	add	x0, x0, #0x900
   85800:	97fffad1 	bl	84344 <uart_sends>
   85804:	97ffffa7 	bl	856a0 <getpid>
   85808:	97fffb31 	bl	844cc <uart_sendi>
   8580c:	d0000000 	adrp	x0, 87000 <set_exception_vector_table>
   85810:	91246000 	add	x0, x0, #0x918
   85814:	97fffacc 	bl	84344 <uart_sends>
   85818:	b9401fe0 	ldr	w0, [sp, #28]
   8581c:	97fffb2c 	bl	844cc <uart_sendi>
   85820:	d0000000 	adrp	x0, 87000 <set_exception_vector_table>
   85824:	91248000 	add	x0, x0, #0x920
   85828:	97fffac7 	bl	84344 <uart_sends>
   8582c:	910073e0 	add	x0, sp, #0x1c
   85830:	97fffae9 	bl	843d4 <uart_sendh>
   85834:	d0000000 	adrp	x0, 87000 <set_exception_vector_table>
   85838:	9124a000 	add	x0, x0, #0x928
   8583c:	97fffac2 	bl	84344 <uart_sends>
   85840:	f94013e0 	ldr	x0, [sp, #32]
   85844:	97fffae4 	bl	843d4 <uart_sendh>
   85848:	d0000000 	adrp	x0, 87000 <set_exception_vector_table>
   8584c:	9123e000 	add	x0, x0, #0x8f8
   85850:	97fffabd 	bl	84344 <uart_sends>
   85854:	b9401fe0 	ldr	w0, [sp, #28]
   85858:	11000400 	add	w0, w0, #0x1
   8585c:	b9001fe0 	str	w0, [sp, #28]
   85860:	97ffff98 	bl	856c0 <fork>
   85864:	b9002be0 	str	w0, [sp, #40]
   85868:	b9402be0 	ldr	w0, [sp, #40]
   8586c:	7100001f 	cmp	w0, #0x0
   85870:	540006e0 	b.eq	8594c <fork_test+0x1cc>  // b.none
   85874:	910003e0 	mov	x0, sp
   85878:	f90013e0 	str	x0, [sp, #32]
   8587c:	d0000000 	adrp	x0, 87000 <set_exception_vector_table>
   85880:	91240000 	add	x0, x0, #0x900
   85884:	97fffab0 	bl	84344 <uart_sends>
   85888:	97ffff86 	bl	856a0 <getpid>
   8588c:	97fffb10 	bl	844cc <uart_sendi>
   85890:	d0000000 	adrp	x0, 87000 <set_exception_vector_table>
   85894:	91246000 	add	x0, x0, #0x918
   85898:	97fffaab 	bl	84344 <uart_sends>
   8589c:	b9401fe0 	ldr	w0, [sp, #28]
   858a0:	97fffb0b 	bl	844cc <uart_sendi>
   858a4:	d0000000 	adrp	x0, 87000 <set_exception_vector_table>
   858a8:	91248000 	add	x0, x0, #0x920
   858ac:	97fffaa6 	bl	84344 <uart_sends>
   858b0:	910073e0 	add	x0, sp, #0x1c
   858b4:	97fffac8 	bl	843d4 <uart_sendh>
   858b8:	d0000000 	adrp	x0, 87000 <set_exception_vector_table>
   858bc:	9124a000 	add	x0, x0, #0x928
   858c0:	97fffaa1 	bl	84344 <uart_sends>
   858c4:	f94013e0 	ldr	x0, [sp, #32]
   858c8:	97fffac3 	bl	843d4 <uart_sendh>
   858cc:	d0000000 	adrp	x0, 87000 <set_exception_vector_table>
   858d0:	9123e000 	add	x0, x0, #0x8f8
   858d4:	97fffa9c 	bl	84344 <uart_sends>
   858d8:	14000020 	b	85958 <fork_test+0x1d8>
   858dc:	910003e0 	mov	x0, sp
   858e0:	f90013e0 	str	x0, [sp, #32]
   858e4:	d0000000 	adrp	x0, 87000 <set_exception_vector_table>
   858e8:	9124c000 	add	x0, x0, #0x930
   858ec:	97fffa96 	bl	84344 <uart_sends>
   858f0:	97ffff6c 	bl	856a0 <getpid>
   858f4:	97fffaf6 	bl	844cc <uart_sendi>
   858f8:	d0000000 	adrp	x0, 87000 <set_exception_vector_table>
   858fc:	91246000 	add	x0, x0, #0x918
   85900:	97fffa91 	bl	84344 <uart_sends>
   85904:	b9401fe0 	ldr	w0, [sp, #28]
   85908:	97fffaf1 	bl	844cc <uart_sendi>
   8590c:	d0000000 	adrp	x0, 87000 <set_exception_vector_table>
   85910:	91248000 	add	x0, x0, #0x920
   85914:	97fffa8c 	bl	84344 <uart_sends>
   85918:	910073e0 	add	x0, sp, #0x1c
   8591c:	97fffaae 	bl	843d4 <uart_sendh>
   85920:	d0000000 	adrp	x0, 87000 <set_exception_vector_table>
   85924:	9124a000 	add	x0, x0, #0x928
   85928:	97fffa87 	bl	84344 <uart_sends>
   8592c:	f94013e0 	ldr	x0, [sp, #32]
   85930:	97fffaa9 	bl	843d4 <uart_sendh>
   85934:	d0000000 	adrp	x0, 87000 <set_exception_vector_table>
   85938:	9123e000 	add	x0, x0, #0x8f8
   8593c:	97fffa82 	bl	84344 <uart_sends>
   85940:	b9401fe0 	ldr	w0, [sp, #28]
   85944:	11000400 	add	w0, w0, #0x1
   85948:	b9001fe0 	str	w0, [sp, #28]
   8594c:	b9401fe0 	ldr	w0, [sp, #28]
   85950:	7100101f 	cmp	w0, #0x4
   85954:	54fffc4d 	b.le	858dc <fork_test+0x15c>
   85958:	52800000 	mov	w0, #0x0                   	// #0
   8595c:	97ffff61 	bl	856e0 <exit>
   85960:	14000010 	b	859a0 <fork_test+0x220>
   85964:	d0000000 	adrp	x0, 87000 <set_exception_vector_table>
   85968:	91252000 	add	x0, x0, #0x948
   8596c:	97fffa76 	bl	84344 <uart_sends>
   85970:	97ffff4c 	bl	856a0 <getpid>
   85974:	97fffad6 	bl	844cc <uart_sendi>
   85978:	d0000000 	adrp	x0, 87000 <set_exception_vector_table>
   8597c:	91258000 	add	x0, x0, #0x960
   85980:	97fffa71 	bl	84344 <uart_sends>
   85984:	b9402be0 	ldr	w0, [sp, #40]
   85988:	97fffad1 	bl	844cc <uart_sendi>
   8598c:	d0000000 	adrp	x0, 87000 <set_exception_vector_table>
   85990:	9123e000 	add	x0, x0, #0x8f8
   85994:	97fffa6c 	bl	84344 <uart_sends>
   85998:	52800000 	mov	w0, #0x0                   	// #0
   8599c:	97ffff51 	bl	856e0 <exit>
   859a0:	d503201f 	nop
   859a4:	a8c37bfd 	ldp	x29, x30, [sp], #48
   859a8:	d65f03c0 	ret

00000000000859ac <sys_fork_test>:
   859ac:	a9be7bfd 	stp	x29, x30, [sp, #-32]!
   859b0:	910003fd 	mov	x29, sp
   859b4:	90000000 	adrp	x0, 85000 <memset+0x10>
   859b8:	911bf000 	add	x0, x0, #0x6fc
   859bc:	940000a3 	bl	85c48 <thread_create>
   859c0:	f9000fe0 	str	x0, [sp, #24]
   859c4:	940000eb 	bl	85d70 <idle>
   859c8:	d503201f 	nop
   859cc:	a8c27bfd 	ldp	x29, x30, [sp], #32
   859d0:	d65f03c0 	ret

00000000000859d4 <enqueue>:
   859d4:	d10043ff 	sub	sp, sp, #0x10
   859d8:	f90007e0 	str	x0, [sp, #8]
   859dc:	f90003e1 	str	x1, [sp]
   859e0:	f94007e0 	ldr	x0, [sp, #8]
   859e4:	f9400000 	ldr	x0, [x0]
   859e8:	f100001f 	cmp	x0, #0x0
   859ec:	54000161 	b.ne	85a18 <enqueue+0x44>  // b.any
   859f0:	f94003e0 	ldr	x0, [sp]
   859f4:	f94003e1 	ldr	x1, [sp]
   859f8:	f9004801 	str	x1, [x0, #144]
   859fc:	f94003e0 	ldr	x0, [sp]
   85a00:	f94003e1 	ldr	x1, [sp]
   85a04:	f9004401 	str	x1, [x0, #136]
   85a08:	f94007e0 	ldr	x0, [sp, #8]
   85a0c:	f94003e1 	ldr	x1, [sp]
   85a10:	f9000001 	str	x1, [x0]
   85a14:	14000013 	b	85a60 <enqueue+0x8c>
   85a18:	f94007e0 	ldr	x0, [sp, #8]
   85a1c:	f9400000 	ldr	x0, [x0]
   85a20:	f9404801 	ldr	x1, [x0, #144]
   85a24:	f94003e0 	ldr	x0, [sp]
   85a28:	f9004801 	str	x1, [x0, #144]
   85a2c:	f94007e0 	ldr	x0, [sp, #8]
   85a30:	f9400001 	ldr	x1, [x0]
   85a34:	f94003e0 	ldr	x0, [sp]
   85a38:	f9004401 	str	x1, [x0, #136]
   85a3c:	f94007e0 	ldr	x0, [sp, #8]
   85a40:	f9400000 	ldr	x0, [x0]
   85a44:	f9404800 	ldr	x0, [x0, #144]
   85a48:	f94003e1 	ldr	x1, [sp]
   85a4c:	f9004401 	str	x1, [x0, #136]
   85a50:	f94007e0 	ldr	x0, [sp, #8]
   85a54:	f9400000 	ldr	x0, [x0]
   85a58:	f94003e1 	ldr	x1, [sp]
   85a5c:	f9004801 	str	x1, [x0, #144]
   85a60:	d503201f 	nop
   85a64:	910043ff 	add	sp, sp, #0x10
   85a68:	d65f03c0 	ret

0000000000085a6c <dequeue>:
   85a6c:	d10083ff 	sub	sp, sp, #0x20
   85a70:	f90007e0 	str	x0, [sp, #8]
   85a74:	f94007e0 	ldr	x0, [sp, #8]
   85a78:	f9400000 	ldr	x0, [x0]
   85a7c:	f100001f 	cmp	x0, #0x0
   85a80:	54000061 	b.ne	85a8c <dequeue+0x20>  // b.any
   85a84:	d2800000 	mov	x0, #0x0                   	// #0
   85a88:	1400001b 	b	85af4 <dequeue+0x88>
   85a8c:	f94007e0 	ldr	x0, [sp, #8]
   85a90:	f9400000 	ldr	x0, [x0]
   85a94:	f9000fe0 	str	x0, [sp, #24]
   85a98:	f9400fe0 	ldr	x0, [sp, #24]
   85a9c:	f9404400 	ldr	x0, [x0, #136]
   85aa0:	f9400fe1 	ldr	x1, [sp, #24]
   85aa4:	eb00003f 	cmp	x1, x0
   85aa8:	54000081 	b.ne	85ab8 <dequeue+0x4c>  // b.any
   85aac:	f94007e0 	ldr	x0, [sp, #8]
   85ab0:	f900001f 	str	xzr, [x0]
   85ab4:	1400000f 	b	85af0 <dequeue+0x84>
   85ab8:	f9400fe0 	ldr	x0, [sp, #24]
   85abc:	f9404800 	ldr	x0, [x0, #144]
   85ac0:	f9400fe1 	ldr	x1, [sp, #24]
   85ac4:	f9404421 	ldr	x1, [x1, #136]
   85ac8:	f9004401 	str	x1, [x0, #136]
   85acc:	f9400fe0 	ldr	x0, [sp, #24]
   85ad0:	f9404400 	ldr	x0, [x0, #136]
   85ad4:	f9400fe1 	ldr	x1, [sp, #24]
   85ad8:	f9404821 	ldr	x1, [x1, #144]
   85adc:	f9004801 	str	x1, [x0, #144]
   85ae0:	f9400fe0 	ldr	x0, [sp, #24]
   85ae4:	f9404401 	ldr	x1, [x0, #136]
   85ae8:	f94007e0 	ldr	x0, [sp, #8]
   85aec:	f9000001 	str	x1, [x0]
   85af0:	f9400fe0 	ldr	x0, [sp, #24]
   85af4:	910083ff 	add	sp, sp, #0x20
   85af8:	d65f03c0 	ret

0000000000085afc <dequeue_t>:
   85afc:	d10043ff 	sub	sp, sp, #0x10
   85b00:	f90007e0 	str	x0, [sp, #8]
   85b04:	f90003e1 	str	x1, [sp]
   85b08:	f94007e0 	ldr	x0, [sp, #8]
   85b0c:	f9400000 	ldr	x0, [x0]
   85b10:	f100001f 	cmp	x0, #0x0
   85b14:	54000280 	b.eq	85b64 <dequeue_t+0x68>  // b.none
   85b18:	f94003e0 	ldr	x0, [sp]
   85b1c:	f9404400 	ldr	x0, [x0, #136]
   85b20:	f94003e1 	ldr	x1, [sp]
   85b24:	eb00003f 	cmp	x1, x0
   85b28:	54000081 	b.ne	85b38 <dequeue_t+0x3c>  // b.any
   85b2c:	f94007e0 	ldr	x0, [sp, #8]
   85b30:	f900001f 	str	xzr, [x0]
   85b34:	1400000d 	b	85b68 <dequeue_t+0x6c>
   85b38:	f94003e0 	ldr	x0, [sp]
   85b3c:	f9404800 	ldr	x0, [x0, #144]
   85b40:	f94003e1 	ldr	x1, [sp]
   85b44:	f9404421 	ldr	x1, [x1, #136]
   85b48:	f9004401 	str	x1, [x0, #136]
   85b4c:	f94003e0 	ldr	x0, [sp]
   85b50:	f9404400 	ldr	x0, [x0, #136]
   85b54:	f94003e1 	ldr	x1, [sp]
   85b58:	f9404821 	ldr	x1, [x1, #144]
   85b5c:	f9004801 	str	x1, [x0, #144]
   85b60:	14000002 	b	85b68 <dequeue_t+0x6c>
   85b64:	d503201f 	nop
   85b68:	910043ff 	add	sp, sp, #0x10
   85b6c:	d65f03c0 	ret

0000000000085b70 <front>:
   85b70:	d10043ff 	sub	sp, sp, #0x10
   85b74:	f90007e0 	str	x0, [sp, #8]
   85b78:	f94007e0 	ldr	x0, [sp, #8]
   85b7c:	f100001f 	cmp	x0, #0x0
   85b80:	54000061 	b.ne	85b8c <front+0x1c>  // b.any
   85b84:	d2800000 	mov	x0, #0x0                   	// #0
   85b88:	14000002 	b	85b90 <front+0x20>
   85b8c:	f94007e0 	ldr	x0, [sp, #8]
   85b90:	910043ff 	add	sp, sp, #0x10
   85b94:	d65f03c0 	ret

0000000000085b98 <show_queue>:
   85b98:	a9bd7bfd 	stp	x29, x30, [sp, #-48]!
   85b9c:	910003fd 	mov	x29, sp
   85ba0:	f9000fe0 	str	x0, [sp, #24]
   85ba4:	f9400fe0 	ldr	x0, [sp, #24]
   85ba8:	f90017e0 	str	x0, [sp, #40]
   85bac:	f9400fe0 	ldr	x0, [sp, #24]
   85bb0:	f100001f 	cmp	x0, #0x0
   85bb4:	54000240 	b.eq	85bfc <show_queue+0x64>  // b.none
   85bb8:	f94017e0 	ldr	x0, [sp, #40]
   85bbc:	b9406800 	ldr	w0, [x0, #104]
   85bc0:	97fffa43 	bl	844cc <uart_sendi>
   85bc4:	d0000000 	adrp	x0, 87000 <set_exception_vector_table>
   85bc8:	9125c000 	add	x0, x0, #0x970
   85bcc:	97fff9de 	bl	84344 <uart_sends>
   85bd0:	f94017e0 	ldr	x0, [sp, #40]
   85bd4:	f9404400 	ldr	x0, [x0, #136]
   85bd8:	f90017e0 	str	x0, [sp, #40]
   85bdc:	f94017e1 	ldr	x1, [sp, #40]
   85be0:	f9400fe0 	ldr	x0, [sp, #24]
   85be4:	eb00003f 	cmp	x1, x0
   85be8:	54fffe81 	b.ne	85bb8 <show_queue+0x20>  // b.any
   85bec:	d0000000 	adrp	x0, 87000 <set_exception_vector_table>
   85bf0:	9125e000 	add	x0, x0, #0x978
   85bf4:	97fff9d4 	bl	84344 <uart_sends>
   85bf8:	14000002 	b	85c00 <show_queue+0x68>
   85bfc:	d503201f 	nop
   85c00:	a8c37bfd 	ldp	x29, x30, [sp], #48
   85c04:	d65f03c0 	ret

0000000000085c08 <thread_init>:
   85c08:	a9bf7bfd 	stp	x29, x30, [sp, #-16]!
   85c0c:	910003fd 	mov	x29, sp
   85c10:	90000000 	adrp	x0, 85000 <memset+0x10>
   85c14:	9135c000 	add	x0, x0, #0xd70
   85c18:	9400000c 	bl	85c48 <thread_create>
   85c1c:	aa0003e1 	mov	x1, x0
   85c20:	f0000000 	adrp	x0, 88000 <get_current+0xce8>
   85c24:	91366000 	add	x0, x0, #0xd98
   85c28:	f9000001 	str	x1, [x0]
   85c2c:	f0000000 	adrp	x0, 88000 <get_current+0xce8>
   85c30:	91366000 	add	x0, x0, #0xd98
   85c34:	f9400000 	ldr	x0, [x0]
   85c38:	d518d080 	msr	tpidr_el1, x0
   85c3c:	d503201f 	nop
   85c40:	a8c17bfd 	ldp	x29, x30, [sp], #16
   85c44:	d65f03c0 	ret

0000000000085c48 <thread_create>:
   85c48:	a9bd7bfd 	stp	x29, x30, [sp, #-48]!
   85c4c:	910003fd 	mov	x29, sp
   85c50:	f9000fe0 	str	x0, [sp, #24]
   85c54:	52801300 	mov	w0, #0x98                  	// #152
   85c58:	97fff901 	bl	8405c <kmalloc>
   85c5c:	f90017e0 	str	x0, [sp, #40]
   85c60:	f0000000 	adrp	x0, 88000 <get_current+0xce8>
   85c64:	91368000 	add	x0, x0, #0xda0
   85c68:	b9400000 	ldr	w0, [x0]
   85c6c:	11000402 	add	w2, w0, #0x1
   85c70:	f0000001 	adrp	x1, 88000 <get_current+0xce8>
   85c74:	91368021 	add	x1, x1, #0xda0
   85c78:	b9000022 	str	w2, [x1]
   85c7c:	f94017e1 	ldr	x1, [sp, #40]
   85c80:	b9006820 	str	w0, [x1, #104]
   85c84:	f94017e0 	ldr	x0, [sp, #40]
   85c88:	b9006c1f 	str	wzr, [x0, #108]
   85c8c:	f94017e0 	ldr	x0, [sp, #40]
   85c90:	f900381f 	str	xzr, [x0, #112]
   85c94:	f9400fe1 	ldr	x1, [sp, #24]
   85c98:	f94017e0 	ldr	x0, [sp, #40]
   85c9c:	f9002c01 	str	x1, [x0, #88]
   85ca0:	52820000 	mov	w0, #0x1000                	// #4096
   85ca4:	97fff8ee 	bl	8405c <kmalloc>
   85ca8:	aa0003e1 	mov	x1, x0
   85cac:	f94017e0 	ldr	x0, [sp, #40]
   85cb0:	f9003c01 	str	x1, [x0, #120]
   85cb4:	52820000 	mov	w0, #0x1000                	// #4096
   85cb8:	97fff8e9 	bl	8405c <kmalloc>
   85cbc:	aa0003e1 	mov	x1, x0
   85cc0:	f94017e0 	ldr	x0, [sp, #40]
   85cc4:	f9004001 	str	x1, [x0, #128]
   85cc8:	f94017e0 	ldr	x0, [sp, #40]
   85ccc:	f9403c00 	ldr	x0, [x0, #120]
   85cd0:	91400400 	add	x0, x0, #0x1, lsl #12
   85cd4:	aa0003e1 	mov	x1, x0
   85cd8:	f94017e0 	ldr	x0, [sp, #40]
   85cdc:	f9003001 	str	x1, [x0, #96]
   85ce0:	f94017e0 	ldr	x0, [sp, #40]
   85ce4:	f9403001 	ldr	x1, [x0, #96]
   85ce8:	f94017e0 	ldr	x0, [sp, #40]
   85cec:	f9002801 	str	x1, [x0, #80]
   85cf0:	f94017e1 	ldr	x1, [sp, #40]
   85cf4:	f0000000 	adrp	x0, 88000 <get_current+0xce8>
   85cf8:	91362000 	add	x0, x0, #0xd88
   85cfc:	97ffff36 	bl	859d4 <enqueue>
   85d00:	f94017e0 	ldr	x0, [sp, #40]
   85d04:	a8c37bfd 	ldp	x29, x30, [sp], #48
   85d08:	d65f03c0 	ret

0000000000085d0c <schedule>:
   85d0c:	a9be7bfd 	stp	x29, x30, [sp, #-32]!
   85d10:	910003fd 	mov	x29, sp
   85d14:	94000581 	bl	87318 <get_current>
   85d18:	f9000fe0 	str	x0, [sp, #24]
   85d1c:	f9400fe0 	ldr	x0, [sp, #24]
   85d20:	b9406c00 	ldr	w0, [x0, #108]
   85d24:	7100001f 	cmp	w0, #0x0
   85d28:	54000120 	b.eq	85d4c <schedule+0x40>  // b.none
   85d2c:	f0000000 	adrp	x0, 88000 <get_current+0xce8>
   85d30:	91362000 	add	x0, x0, #0xd88
   85d34:	f9400000 	ldr	x0, [x0]
   85d38:	97ffff8e 	bl	85b70 <front>
   85d3c:	aa0003e1 	mov	x1, x0
   85d40:	f9400fe0 	ldr	x0, [sp, #24]
   85d44:	94000563 	bl	872d0 <switch_to>
   85d48:	14000007 	b	85d64 <schedule+0x58>
   85d4c:	f9400fe0 	ldr	x0, [sp, #24]
   85d50:	f9404400 	ldr	x0, [x0, #136]
   85d54:	f9000be0 	str	x0, [sp, #16]
   85d58:	f9400be1 	ldr	x1, [sp, #16]
   85d5c:	f9400fe0 	ldr	x0, [sp, #24]
   85d60:	9400055c 	bl	872d0 <switch_to>
   85d64:	d503201f 	nop
   85d68:	a8c27bfd 	ldp	x29, x30, [sp], #32
   85d6c:	d65f03c0 	ret

0000000000085d70 <idle>:
   85d70:	a9bf7bfd 	stp	x29, x30, [sp, #-16]!
   85d74:	910003fd 	mov	x29, sp
   85d78:	94000003 	bl	85d84 <kill_zombies>
   85d7c:	97ffffe4 	bl	85d0c <schedule>
   85d80:	17fffffe 	b	85d78 <idle+0x8>

0000000000085d84 <kill_zombies>:
   85d84:	a9be7bfd 	stp	x29, x30, [sp, #-32]!
   85d88:	910003fd 	mov	x29, sp
   85d8c:	1400000d 	b	85dc0 <kill_zombies+0x3c>
   85d90:	f0000000 	adrp	x0, 88000 <get_current+0xce8>
   85d94:	91364000 	add	x0, x0, #0xd90
   85d98:	97ffff35 	bl	85a6c <dequeue>
   85d9c:	f9000fe0 	str	x0, [sp, #24]
   85da0:	f9400fe0 	ldr	x0, [sp, #24]
   85da4:	f9403c00 	ldr	x0, [x0, #120]
   85da8:	97fff8cb 	bl	840d4 <kfree>
   85dac:	f9400fe0 	ldr	x0, [sp, #24]
   85db0:	f9404000 	ldr	x0, [x0, #128]
   85db4:	97fff8c8 	bl	840d4 <kfree>
   85db8:	f9400fe0 	ldr	x0, [sp, #24]
   85dbc:	97fff8c6 	bl	840d4 <kfree>
   85dc0:	f0000000 	adrp	x0, 88000 <get_current+0xce8>
   85dc4:	91364000 	add	x0, x0, #0xd90
   85dc8:	f9400000 	ldr	x0, [x0]
   85dcc:	f100001f 	cmp	x0, #0x0
   85dd0:	54fffe01 	b.ne	85d90 <kill_zombies+0xc>  // b.any
   85dd4:	d503201f 	nop
   85dd8:	d503201f 	nop
   85ddc:	a8c27bfd 	ldp	x29, x30, [sp], #32
   85de0:	d65f03c0 	ret

0000000000085de4 <thread_exit>:
   85de4:	a9be7bfd 	stp	x29, x30, [sp, #-32]!
   85de8:	910003fd 	mov	x29, sp
   85dec:	9400054b 	bl	87318 <get_current>
   85df0:	f9000fe0 	str	x0, [sp, #24]
   85df4:	f9400fe0 	ldr	x0, [sp, #24]
   85df8:	52800041 	mov	w1, #0x2                   	// #2
   85dfc:	b9006c01 	str	w1, [x0, #108]
   85e00:	f9400fe0 	ldr	x0, [sp, #24]
   85e04:	f9404401 	ldr	x1, [x0, #136]
   85e08:	f0000000 	adrp	x0, 88000 <get_current+0xce8>
   85e0c:	91362000 	add	x0, x0, #0xd88
   85e10:	f9000001 	str	x1, [x0]
   85e14:	f9400fe1 	ldr	x1, [sp, #24]
   85e18:	f0000000 	adrp	x0, 88000 <get_current+0xce8>
   85e1c:	91362000 	add	x0, x0, #0xd88
   85e20:	97ffff37 	bl	85afc <dequeue_t>
   85e24:	f9400fe1 	ldr	x1, [sp, #24]
   85e28:	f0000000 	adrp	x0, 88000 <get_current+0xce8>
   85e2c:	91364000 	add	x0, x0, #0xd90
   85e30:	97fffee9 	bl	859d4 <enqueue>
   85e34:	97ffffb6 	bl	85d0c <schedule>
   85e38:	d503201f 	nop
   85e3c:	a8c27bfd 	ldp	x29, x30, [sp], #32
   85e40:	d65f03c0 	ret

0000000000085e44 <thread_kill>:
   85e44:	a9bd7bfd 	stp	x29, x30, [sp, #-48]!
   85e48:	910003fd 	mov	x29, sp
   85e4c:	b9001fe0 	str	w0, [sp, #28]
   85e50:	f0000000 	adrp	x0, 88000 <get_current+0xce8>
   85e54:	91362000 	add	x0, x0, #0xd88
   85e58:	f9400000 	ldr	x0, [x0]
   85e5c:	f90017e0 	str	x0, [sp, #40]
   85e60:	14000016 	b	85eb8 <thread_kill+0x74>
   85e64:	f94017e0 	ldr	x0, [sp, #40]
   85e68:	b9406800 	ldr	w0, [x0, #104]
   85e6c:	b9401fe1 	ldr	w1, [sp, #28]
   85e70:	6b00003f 	cmp	w1, w0
   85e74:	540001c1 	b.ne	85eac <thread_kill+0x68>  // b.any
   85e78:	f94017e0 	ldr	x0, [sp, #40]
   85e7c:	52800041 	mov	w1, #0x2                   	// #2
   85e80:	b9006c01 	str	w1, [x0, #108]
   85e84:	f94017e1 	ldr	x1, [sp, #40]
   85e88:	f0000000 	adrp	x0, 88000 <get_current+0xce8>
   85e8c:	91362000 	add	x0, x0, #0xd88
   85e90:	97ffff1b 	bl	85afc <dequeue_t>
   85e94:	f94017e1 	ldr	x1, [sp, #40]
   85e98:	f0000000 	adrp	x0, 88000 <get_current+0xce8>
   85e9c:	91364000 	add	x0, x0, #0xd90
   85ea0:	97fffecd 	bl	859d4 <enqueue>
   85ea4:	52800000 	mov	w0, #0x0                   	// #0
   85ea8:	14000008 	b	85ec8 <thread_kill+0x84>
   85eac:	f94017e0 	ldr	x0, [sp, #40]
   85eb0:	f9404400 	ldr	x0, [x0, #136]
   85eb4:	f90017e0 	str	x0, [sp, #40]
   85eb8:	f94017e0 	ldr	x0, [sp, #40]
   85ebc:	f100001f 	cmp	x0, #0x0
   85ec0:	54fffd21 	b.ne	85e64 <thread_kill+0x20>  // b.any
   85ec4:	52800020 	mov	w0, #0x1                   	// #1
   85ec8:	a8c37bfd 	ldp	x29, x30, [sp], #48
   85ecc:	d65f03c0 	ret

0000000000085ed0 <do_scheduler>:
   85ed0:	a9bf7bfd 	stp	x29, x30, [sp, #-16]!
   85ed4:	910003fd 	mov	x29, sp
   85ed8:	97ffff8d 	bl	85d0c <schedule>
   85edc:	d503201f 	nop
   85ee0:	a8c17bfd 	ldp	x29, x30, [sp], #16
   85ee4:	d65f03c0 	ret

0000000000085ee8 <add_scheduler>:
   85ee8:	a9be7bfd 	stp	x29, x30, [sp, #-32]!
   85eec:	910003fd 	mov	x29, sp
   85ef0:	94000057 	bl	8604c <get_freq>
   85ef4:	f9000fe0 	str	x0, [sp, #24]
   85ef8:	d2800002 	mov	x2, #0x0                   	// #0
   85efc:	90000000 	adrp	x0, 85000 <memset+0x10>
   85f00:	913ba001 	add	x1, x0, #0xee8
   85f04:	d2800020 	mov	x0, #0x1                   	// #1
   85f08:	9400006a 	bl	860b0 <add_timer>
   85f0c:	d2800002 	mov	x2, #0x0                   	// #0
   85f10:	90000000 	adrp	x0, 85000 <memset+0x10>
   85f14:	913b4001 	add	x1, x0, #0xed0
   85f18:	f9400fe0 	ldr	x0, [sp, #24]
   85f1c:	94000065 	bl	860b0 <add_timer>
   85f20:	d503201f 	nop
   85f24:	a8c27bfd 	ldp	x29, x30, [sp], #32
   85f28:	d65f03c0 	ret

0000000000085f2c <foo>:
   85f2c:	a9be7bfd 	stp	x29, x30, [sp, #-32]!
   85f30:	910003fd 	mov	x29, sp
   85f34:	b9001fff 	str	wzr, [sp, #28]
   85f38:	1400001d 	b	85fac <foo+0x80>
   85f3c:	d0000000 	adrp	x0, 87000 <set_exception_vector_table>
   85f40:	91260000 	add	x0, x0, #0x980
   85f44:	97fff900 	bl	84344 <uart_sends>
   85f48:	940004f4 	bl	87318 <get_current>
   85f4c:	b9406800 	ldr	w0, [x0, #104]
   85f50:	97fff95f 	bl	844cc <uart_sendi>
   85f54:	d0000000 	adrp	x0, 87000 <set_exception_vector_table>
   85f58:	91264000 	add	x0, x0, #0x990
   85f5c:	97fff8fa 	bl	84344 <uart_sends>
   85f60:	b9401fe0 	ldr	w0, [sp, #28]
   85f64:	97fff95a 	bl	844cc <uart_sendi>
   85f68:	d0000000 	adrp	x0, 87000 <set_exception_vector_table>
   85f6c:	9125e000 	add	x0, x0, #0x978
   85f70:	97fff8f5 	bl	84344 <uart_sends>
   85f74:	b9001bff 	str	wzr, [sp, #24]
   85f78:	14000004 	b	85f88 <foo+0x5c>
   85f7c:	b9401be0 	ldr	w0, [sp, #24]
   85f80:	11000400 	add	w0, w0, #0x1
   85f84:	b9001be0 	str	w0, [sp, #24]
   85f88:	b9401be1 	ldr	w1, [sp, #24]
   85f8c:	528847e0 	mov	w0, #0x423f                	// #16959
   85f90:	72a001e0 	movk	w0, #0xf, lsl #16
   85f94:	6b00003f 	cmp	w1, w0
   85f98:	54ffff2d 	b.le	85f7c <foo+0x50>
   85f9c:	97ffff5c 	bl	85d0c <schedule>
   85fa0:	b9401fe0 	ldr	w0, [sp, #28]
   85fa4:	11000400 	add	w0, w0, #0x1
   85fa8:	b9001fe0 	str	w0, [sp, #28]
   85fac:	b9401fe0 	ldr	w0, [sp, #28]
   85fb0:	7100241f 	cmp	w0, #0x9
   85fb4:	54fffc4d 	b.le	85f3c <foo+0x10>
   85fb8:	97ffff8b 	bl	85de4 <thread_exit>
   85fbc:	d503201f 	nop
   85fc0:	a8c27bfd 	ldp	x29, x30, [sp], #32
   85fc4:	d65f03c0 	ret

0000000000085fc8 <thread_test>:
   85fc8:	a9be7bfd 	stp	x29, x30, [sp, #-32]!
   85fcc:	910003fd 	mov	x29, sp
   85fd0:	b9001fff 	str	wzr, [sp, #28]
   85fd4:	14000007 	b	85ff0 <thread_test+0x28>
   85fd8:	90000000 	adrp	x0, 85000 <memset+0x10>
   85fdc:	913cb000 	add	x0, x0, #0xf2c
   85fe0:	97ffff1a 	bl	85c48 <thread_create>
   85fe4:	b9401fe0 	ldr	w0, [sp, #28]
   85fe8:	11000400 	add	w0, w0, #0x1
   85fec:	b9001fe0 	str	w0, [sp, #28]
   85ff0:	b9401fe0 	ldr	w0, [sp, #28]
   85ff4:	7100081f 	cmp	w0, #0x2
   85ff8:	54ffff0d 	b.le	85fd8 <thread_test+0x10>
   85ffc:	97ffff5d 	bl	85d70 <idle>
   86000:	d503201f 	nop
   86004:	a8c27bfd 	ldp	x29, x30, [sp], #32
   86008:	d65f03c0 	ret

000000000008600c <get_time_s>:
   8600c:	a9be7bfd 	stp	x29, x30, [sp, #-32]!
   86010:	910003fd 	mov	x29, sp
   86014:	f9000bf3 	str	x19, [sp, #16]
   86018:	94000007 	bl	86034 <get_time>
   8601c:	aa0003f3 	mov	x19, x0
   86020:	9400000b 	bl	8604c <get_freq>
   86024:	9ac00a60 	udiv	x0, x19, x0
   86028:	f9400bf3 	ldr	x19, [sp, #16]
   8602c:	a8c27bfd 	ldp	x29, x30, [sp], #32
   86030:	d65f03c0 	ret

0000000000086034 <get_time>:
   86034:	d10043ff 	sub	sp, sp, #0x10
   86038:	d53be020 	mrs	x0, cntpct_el0
   8603c:	f90007e0 	str	x0, [sp, #8]
   86040:	f94007e0 	ldr	x0, [sp, #8]
   86044:	910043ff 	add	sp, sp, #0x10
   86048:	d65f03c0 	ret

000000000008604c <get_freq>:
   8604c:	d10043ff 	sub	sp, sp, #0x10
   86050:	d53be000 	mrs	x0, cntfrq_el0
   86054:	f90007e0 	str	x0, [sp, #8]
   86058:	f94007e0 	ldr	x0, [sp, #8]
   8605c:	910043ff 	add	sp, sp, #0x10
   86060:	d65f03c0 	ret

0000000000086064 <set_timeout>:
   86064:	a9bd7bfd 	stp	x29, x30, [sp, #-48]!
   86068:	910003fd 	mov	x29, sp
   8606c:	f9000fe0 	str	x0, [sp, #24]
   86070:	f9000be1 	str	x1, [sp, #16]
   86074:	97fffff6 	bl	8604c <get_freq>
   86078:	aa0003e1 	mov	x1, x0
   8607c:	f9400be0 	ldr	x0, [sp, #16]
   86080:	9b017c00 	mul	x0, x0, x1
   86084:	f90017e0 	str	x0, [sp, #40]
   86088:	f9400fe0 	ldr	x0, [sp, #24]
   8608c:	97fffb4d 	bl	84dc0 <strdup>
   86090:	aa0003e2 	mov	x2, x0
   86094:	90000000 	adrp	x0, 86000 <thread_test+0x38>
   86098:	91075001 	add	x1, x0, #0x1d4
   8609c:	f94017e0 	ldr	x0, [sp, #40]
   860a0:	94000004 	bl	860b0 <add_timer>
   860a4:	d503201f 	nop
   860a8:	a8c37bfd 	ldp	x29, x30, [sp], #48
   860ac:	d65f03c0 	ret

00000000000860b0 <add_timer>:
   860b0:	a9bb7bfd 	stp	x29, x30, [sp, #-80]!
   860b4:	910003fd 	mov	x29, sp
   860b8:	f90017e0 	str	x0, [sp, #40]
   860bc:	f90013e1 	str	x1, [sp, #32]
   860c0:	f9000fe2 	str	x2, [sp, #24]
   860c4:	52800400 	mov	w0, #0x20                  	// #32
   860c8:	97fff7e5 	bl	8405c <kmalloc>
   860cc:	f9001fe0 	str	x0, [sp, #56]
   860d0:	f9401fe0 	ldr	x0, [sp, #56]
   860d4:	f100001f 	cmp	x0, #0x0
   860d8:	540000c1 	b.ne	860f0 <add_timer+0x40>  // b.any
   860dc:	b0000000 	adrp	x0, 87000 <set_exception_vector_table>
   860e0:	91266000 	add	x0, x0, #0x998
   860e4:	97fff898 	bl	84344 <uart_sends>
   860e8:	12800000 	mov	w0, #0xffffffff            	// #-1
   860ec:	14000038 	b	861cc <add_timer+0x11c>
   860f0:	97ffffd1 	bl	86034 <get_time>
   860f4:	aa0003e1 	mov	x1, x0
   860f8:	f94017e0 	ldr	x0, [sp, #40]
   860fc:	8b000021 	add	x1, x1, x0
   86100:	f9401fe0 	ldr	x0, [sp, #56]
   86104:	f9000001 	str	x1, [x0]
   86108:	f9401fe0 	ldr	x0, [sp, #56]
   8610c:	f94013e1 	ldr	x1, [sp, #32]
   86110:	f9000401 	str	x1, [x0, #8]
   86114:	f9401fe0 	ldr	x0, [sp, #56]
   86118:	f9400fe1 	ldr	x1, [sp, #24]
   8611c:	f9000801 	str	x1, [x0, #16]
   86120:	f9401fe0 	ldr	x0, [sp, #56]
   86124:	f9000c1f 	str	xzr, [x0, #24]
   86128:	d0000000 	adrp	x0, 88000 <get_current+0xce8>
   8612c:	9136a000 	add	x0, x0, #0xda8
   86130:	f9400000 	ldr	x0, [x0]
   86134:	f90027e0 	str	x0, [sp, #72]
   86138:	f90023ff 	str	xzr, [sp, #64]
   8613c:	14000006 	b	86154 <add_timer+0xa4>
   86140:	f94027e0 	ldr	x0, [sp, #72]
   86144:	f90023e0 	str	x0, [sp, #64]
   86148:	f94027e0 	ldr	x0, [sp, #72]
   8614c:	f9400c00 	ldr	x0, [x0, #24]
   86150:	f90027e0 	str	x0, [sp, #72]
   86154:	f94027e0 	ldr	x0, [sp, #72]
   86158:	f100001f 	cmp	x0, #0x0
   8615c:	540000e0 	b.eq	86178 <add_timer+0xc8>  // b.none
   86160:	f94027e0 	ldr	x0, [sp, #72]
   86164:	f9400001 	ldr	x1, [x0]
   86168:	f9401fe0 	ldr	x0, [sp, #56]
   8616c:	f9400000 	ldr	x0, [x0]
   86170:	eb00003f 	cmp	x1, x0
   86174:	54fffe63 	b.cc	86140 <add_timer+0x90>  // b.lo, b.ul, b.last
   86178:	f94023e0 	ldr	x0, [sp, #64]
   8617c:	f100001f 	cmp	x0, #0x0
   86180:	54000161 	b.ne	861ac <add_timer+0xfc>  // b.any
   86184:	d0000000 	adrp	x0, 88000 <get_current+0xce8>
   86188:	9136a000 	add	x0, x0, #0xda8
   8618c:	f9400001 	ldr	x1, [x0]
   86190:	f9401fe0 	ldr	x0, [sp, #56]
   86194:	f9000c01 	str	x1, [x0, #24]
   86198:	d0000000 	adrp	x0, 88000 <get_current+0xce8>
   8619c:	9136a000 	add	x0, x0, #0xda8
   861a0:	f9401fe1 	ldr	x1, [sp, #56]
   861a4:	f9000001 	str	x1, [x0]
   861a8:	14000007 	b	861c4 <add_timer+0x114>
   861ac:	f9401fe0 	ldr	x0, [sp, #56]
   861b0:	f94027e1 	ldr	x1, [sp, #72]
   861b4:	f9000c01 	str	x1, [x0, #24]
   861b8:	f94023e0 	ldr	x0, [sp, #64]
   861bc:	f9401fe1 	ldr	x1, [sp, #56]
   861c0:	f9000c01 	str	x1, [x0, #24]
   861c4:	97fff249 	bl	82ae8 <core_timer_enable>
   861c8:	52800000 	mov	w0, #0x0                   	// #0
   861cc:	a8c57bfd 	ldp	x29, x30, [sp], #80
   861d0:	d65f03c0 	ret

00000000000861d4 <print_message>:
   861d4:	a9bd7bfd 	stp	x29, x30, [sp, #-48]!
   861d8:	910003fd 	mov	x29, sp
   861dc:	f9000fe0 	str	x0, [sp, #24]
   861e0:	f9400fe0 	ldr	x0, [sp, #24]
   861e4:	f90017e0 	str	x0, [sp, #40]
   861e8:	b0000000 	adrp	x0, 87000 <set_exception_vector_table>
   861ec:	9126a000 	add	x0, x0, #0x9a8
   861f0:	97fff855 	bl	84344 <uart_sends>
   861f4:	f94017e0 	ldr	x0, [sp, #40]
   861f8:	97fff853 	bl	84344 <uart_sends>
   861fc:	b0000000 	adrp	x0, 87000 <set_exception_vector_table>
   86200:	9126e000 	add	x0, x0, #0x9b8
   86204:	97fff850 	bl	84344 <uart_sends>
   86208:	d503201f 	nop
   8620c:	a8c37bfd 	ldp	x29, x30, [sp], #48
   86210:	d65f03c0 	ret
	...

0000000000086800 <exception_vector_table>:
   86800:	14000203 	b	8700c <exception_handler>
   86804:	d503201f 	nop
   86808:	d503201f 	nop
   8680c:	d503201f 	nop
   86810:	d503201f 	nop
   86814:	d503201f 	nop
   86818:	d503201f 	nop
   8681c:	d503201f 	nop
   86820:	d503201f 	nop
   86824:	d503201f 	nop
   86828:	d503201f 	nop
   8682c:	d503201f 	nop
   86830:	d503201f 	nop
   86834:	d503201f 	nop
   86838:	d503201f 	nop
   8683c:	d503201f 	nop
   86840:	d503201f 	nop
   86844:	d503201f 	nop
   86848:	d503201f 	nop
   8684c:	d503201f 	nop
   86850:	d503201f 	nop
   86854:	d503201f 	nop
   86858:	d503201f 	nop
   8685c:	d503201f 	nop
   86860:	d503201f 	nop
   86864:	d503201f 	nop
   86868:	d503201f 	nop
   8686c:	d503201f 	nop
   86870:	d503201f 	nop
   86874:	d503201f 	nop
   86878:	d503201f 	nop
   8687c:	d503201f 	nop
   86880:	140001e3 	b	8700c <exception_handler>
   86884:	d503201f 	nop
   86888:	d503201f 	nop
   8688c:	d503201f 	nop
   86890:	d503201f 	nop
   86894:	d503201f 	nop
   86898:	d503201f 	nop
   8689c:	d503201f 	nop
   868a0:	d503201f 	nop
   868a4:	d503201f 	nop
   868a8:	d503201f 	nop
   868ac:	d503201f 	nop
   868b0:	d503201f 	nop
   868b4:	d503201f 	nop
   868b8:	d503201f 	nop
   868bc:	d503201f 	nop
   868c0:	d503201f 	nop
   868c4:	d503201f 	nop
   868c8:	d503201f 	nop
   868cc:	d503201f 	nop
   868d0:	d503201f 	nop
   868d4:	d503201f 	nop
   868d8:	d503201f 	nop
   868dc:	d503201f 	nop
   868e0:	d503201f 	nop
   868e4:	d503201f 	nop
   868e8:	d503201f 	nop
   868ec:	d503201f 	nop
   868f0:	d503201f 	nop
   868f4:	d503201f 	nop
   868f8:	d503201f 	nop
   868fc:	d503201f 	nop
   86900:	140001c3 	b	8700c <exception_handler>
   86904:	d503201f 	nop
   86908:	d503201f 	nop
   8690c:	d503201f 	nop
   86910:	d503201f 	nop
   86914:	d503201f 	nop
   86918:	d503201f 	nop
   8691c:	d503201f 	nop
   86920:	d503201f 	nop
   86924:	d503201f 	nop
   86928:	d503201f 	nop
   8692c:	d503201f 	nop
   86930:	d503201f 	nop
   86934:	d503201f 	nop
   86938:	d503201f 	nop
   8693c:	d503201f 	nop
   86940:	d503201f 	nop
   86944:	d503201f 	nop
   86948:	d503201f 	nop
   8694c:	d503201f 	nop
   86950:	d503201f 	nop
   86954:	d503201f 	nop
   86958:	d503201f 	nop
   8695c:	d503201f 	nop
   86960:	d503201f 	nop
   86964:	d503201f 	nop
   86968:	d503201f 	nop
   8696c:	d503201f 	nop
   86970:	d503201f 	nop
   86974:	d503201f 	nop
   86978:	d503201f 	nop
   8697c:	d503201f 	nop
   86980:	140001a3 	b	8700c <exception_handler>
   86984:	d503201f 	nop
   86988:	d503201f 	nop
   8698c:	d503201f 	nop
   86990:	d503201f 	nop
   86994:	d503201f 	nop
   86998:	d503201f 	nop
   8699c:	d503201f 	nop
   869a0:	d503201f 	nop
   869a4:	d503201f 	nop
   869a8:	d503201f 	nop
   869ac:	d503201f 	nop
   869b0:	d503201f 	nop
   869b4:	d503201f 	nop
   869b8:	d503201f 	nop
   869bc:	d503201f 	nop
   869c0:	d503201f 	nop
   869c4:	d503201f 	nop
   869c8:	d503201f 	nop
   869cc:	d503201f 	nop
   869d0:	d503201f 	nop
   869d4:	d503201f 	nop
   869d8:	d503201f 	nop
   869dc:	d503201f 	nop
   869e0:	d503201f 	nop
   869e4:	d503201f 	nop
   869e8:	d503201f 	nop
   869ec:	d503201f 	nop
   869f0:	d503201f 	nop
   869f4:	d503201f 	nop
   869f8:	d503201f 	nop
   869fc:	d503201f 	nop
   86a00:	14000183 	b	8700c <exception_handler>
   86a04:	d503201f 	nop
   86a08:	d503201f 	nop
   86a0c:	d503201f 	nop
   86a10:	d503201f 	nop
   86a14:	d503201f 	nop
   86a18:	d503201f 	nop
   86a1c:	d503201f 	nop
   86a20:	d503201f 	nop
   86a24:	d503201f 	nop
   86a28:	d503201f 	nop
   86a2c:	d503201f 	nop
   86a30:	d503201f 	nop
   86a34:	d503201f 	nop
   86a38:	d503201f 	nop
   86a3c:	d503201f 	nop
   86a40:	d503201f 	nop
   86a44:	d503201f 	nop
   86a48:	d503201f 	nop
   86a4c:	d503201f 	nop
   86a50:	d503201f 	nop
   86a54:	d503201f 	nop
   86a58:	d503201f 	nop
   86a5c:	d503201f 	nop
   86a60:	d503201f 	nop
   86a64:	d503201f 	nop
   86a68:	d503201f 	nop
   86a6c:	d503201f 	nop
   86a70:	d503201f 	nop
   86a74:	d503201f 	nop
   86a78:	d503201f 	nop
   86a7c:	d503201f 	nop
   86a80:	1400018f 	b	870bc <irq_handler>
   86a84:	d503201f 	nop
   86a88:	d503201f 	nop
   86a8c:	d503201f 	nop
   86a90:	d503201f 	nop
   86a94:	d503201f 	nop
   86a98:	d503201f 	nop
   86a9c:	d503201f 	nop
   86aa0:	d503201f 	nop
   86aa4:	d503201f 	nop
   86aa8:	d503201f 	nop
   86aac:	d503201f 	nop
   86ab0:	d503201f 	nop
   86ab4:	d503201f 	nop
   86ab8:	d503201f 	nop
   86abc:	d503201f 	nop
   86ac0:	d503201f 	nop
   86ac4:	d503201f 	nop
   86ac8:	d503201f 	nop
   86acc:	d503201f 	nop
   86ad0:	d503201f 	nop
   86ad4:	d503201f 	nop
   86ad8:	d503201f 	nop
   86adc:	d503201f 	nop
   86ae0:	d503201f 	nop
   86ae4:	d503201f 	nop
   86ae8:	d503201f 	nop
   86aec:	d503201f 	nop
   86af0:	d503201f 	nop
   86af4:	d503201f 	nop
   86af8:	d503201f 	nop
   86afc:	d503201f 	nop
   86b00:	14000143 	b	8700c <exception_handler>
   86b04:	d503201f 	nop
   86b08:	d503201f 	nop
   86b0c:	d503201f 	nop
   86b10:	d503201f 	nop
   86b14:	d503201f 	nop
   86b18:	d503201f 	nop
   86b1c:	d503201f 	nop
   86b20:	d503201f 	nop
   86b24:	d503201f 	nop
   86b28:	d503201f 	nop
   86b2c:	d503201f 	nop
   86b30:	d503201f 	nop
   86b34:	d503201f 	nop
   86b38:	d503201f 	nop
   86b3c:	d503201f 	nop
   86b40:	d503201f 	nop
   86b44:	d503201f 	nop
   86b48:	d503201f 	nop
   86b4c:	d503201f 	nop
   86b50:	d503201f 	nop
   86b54:	d503201f 	nop
   86b58:	d503201f 	nop
   86b5c:	d503201f 	nop
   86b60:	d503201f 	nop
   86b64:	d503201f 	nop
   86b68:	d503201f 	nop
   86b6c:	d503201f 	nop
   86b70:	d503201f 	nop
   86b74:	d503201f 	nop
   86b78:	d503201f 	nop
   86b7c:	d503201f 	nop
   86b80:	14000123 	b	8700c <exception_handler>
   86b84:	d503201f 	nop
   86b88:	d503201f 	nop
   86b8c:	d503201f 	nop
   86b90:	d503201f 	nop
   86b94:	d503201f 	nop
   86b98:	d503201f 	nop
   86b9c:	d503201f 	nop
   86ba0:	d503201f 	nop
   86ba4:	d503201f 	nop
   86ba8:	d503201f 	nop
   86bac:	d503201f 	nop
   86bb0:	d503201f 	nop
   86bb4:	d503201f 	nop
   86bb8:	d503201f 	nop
   86bbc:	d503201f 	nop
   86bc0:	d503201f 	nop
   86bc4:	d503201f 	nop
   86bc8:	d503201f 	nop
   86bcc:	d503201f 	nop
   86bd0:	d503201f 	nop
   86bd4:	d503201f 	nop
   86bd8:	d503201f 	nop
   86bdc:	d503201f 	nop
   86be0:	d503201f 	nop
   86be4:	d503201f 	nop
   86be8:	d503201f 	nop
   86bec:	d503201f 	nop
   86bf0:	d503201f 	nop
   86bf4:	d503201f 	nop
   86bf8:	d503201f 	nop
   86bfc:	d503201f 	nop
   86c00:	1400015b 	b	8716c <lower_exception_handler>
   86c04:	d503201f 	nop
   86c08:	d503201f 	nop
   86c0c:	d503201f 	nop
   86c10:	d503201f 	nop
   86c14:	d503201f 	nop
   86c18:	d503201f 	nop
   86c1c:	d503201f 	nop
   86c20:	d503201f 	nop
   86c24:	d503201f 	nop
   86c28:	d503201f 	nop
   86c2c:	d503201f 	nop
   86c30:	d503201f 	nop
   86c34:	d503201f 	nop
   86c38:	d503201f 	nop
   86c3c:	d503201f 	nop
   86c40:	d503201f 	nop
   86c44:	d503201f 	nop
   86c48:	d503201f 	nop
   86c4c:	d503201f 	nop
   86c50:	d503201f 	nop
   86c54:	d503201f 	nop
   86c58:	d503201f 	nop
   86c5c:	d503201f 	nop
   86c60:	d503201f 	nop
   86c64:	d503201f 	nop
   86c68:	d503201f 	nop
   86c6c:	d503201f 	nop
   86c70:	d503201f 	nop
   86c74:	d503201f 	nop
   86c78:	d503201f 	nop
   86c7c:	d503201f 	nop
   86c80:	14000168 	b	87220 <lower_irq_hadler>
   86c84:	d503201f 	nop
   86c88:	d503201f 	nop
   86c8c:	d503201f 	nop
   86c90:	d503201f 	nop
   86c94:	d503201f 	nop
   86c98:	d503201f 	nop
   86c9c:	d503201f 	nop
   86ca0:	d503201f 	nop
   86ca4:	d503201f 	nop
   86ca8:	d503201f 	nop
   86cac:	d503201f 	nop
   86cb0:	d503201f 	nop
   86cb4:	d503201f 	nop
   86cb8:	d503201f 	nop
   86cbc:	d503201f 	nop
   86cc0:	d503201f 	nop
   86cc4:	d503201f 	nop
   86cc8:	d503201f 	nop
   86ccc:	d503201f 	nop
   86cd0:	d503201f 	nop
   86cd4:	d503201f 	nop
   86cd8:	d503201f 	nop
   86cdc:	d503201f 	nop
   86ce0:	d503201f 	nop
   86ce4:	d503201f 	nop
   86ce8:	d503201f 	nop
   86cec:	d503201f 	nop
   86cf0:	d503201f 	nop
   86cf4:	d503201f 	nop
   86cf8:	d503201f 	nop
   86cfc:	d503201f 	nop
   86d00:	140000c3 	b	8700c <exception_handler>
   86d04:	d503201f 	nop
   86d08:	d503201f 	nop
   86d0c:	d503201f 	nop
   86d10:	d503201f 	nop
   86d14:	d503201f 	nop
   86d18:	d503201f 	nop
   86d1c:	d503201f 	nop
   86d20:	d503201f 	nop
   86d24:	d503201f 	nop
   86d28:	d503201f 	nop
   86d2c:	d503201f 	nop
   86d30:	d503201f 	nop
   86d34:	d503201f 	nop
   86d38:	d503201f 	nop
   86d3c:	d503201f 	nop
   86d40:	d503201f 	nop
   86d44:	d503201f 	nop
   86d48:	d503201f 	nop
   86d4c:	d503201f 	nop
   86d50:	d503201f 	nop
   86d54:	d503201f 	nop
   86d58:	d503201f 	nop
   86d5c:	d503201f 	nop
   86d60:	d503201f 	nop
   86d64:	d503201f 	nop
   86d68:	d503201f 	nop
   86d6c:	d503201f 	nop
   86d70:	d503201f 	nop
   86d74:	d503201f 	nop
   86d78:	d503201f 	nop
   86d7c:	d503201f 	nop
   86d80:	140000a3 	b	8700c <exception_handler>
   86d84:	d503201f 	nop
   86d88:	d503201f 	nop
   86d8c:	d503201f 	nop
   86d90:	d503201f 	nop
   86d94:	d503201f 	nop
   86d98:	d503201f 	nop
   86d9c:	d503201f 	nop
   86da0:	d503201f 	nop
   86da4:	d503201f 	nop
   86da8:	d503201f 	nop
   86dac:	d503201f 	nop
   86db0:	d503201f 	nop
   86db4:	d503201f 	nop
   86db8:	d503201f 	nop
   86dbc:	d503201f 	nop
   86dc0:	d503201f 	nop
   86dc4:	d503201f 	nop
   86dc8:	d503201f 	nop
   86dcc:	d503201f 	nop
   86dd0:	d503201f 	nop
   86dd4:	d503201f 	nop
   86dd8:	d503201f 	nop
   86ddc:	d503201f 	nop
   86de0:	d503201f 	nop
   86de4:	d503201f 	nop
   86de8:	d503201f 	nop
   86dec:	d503201f 	nop
   86df0:	d503201f 	nop
   86df4:	d503201f 	nop
   86df8:	d503201f 	nop
   86dfc:	d503201f 	nop
   86e00:	14000083 	b	8700c <exception_handler>
   86e04:	d503201f 	nop
   86e08:	d503201f 	nop
   86e0c:	d503201f 	nop
   86e10:	d503201f 	nop
   86e14:	d503201f 	nop
   86e18:	d503201f 	nop
   86e1c:	d503201f 	nop
   86e20:	d503201f 	nop
   86e24:	d503201f 	nop
   86e28:	d503201f 	nop
   86e2c:	d503201f 	nop
   86e30:	d503201f 	nop
   86e34:	d503201f 	nop
   86e38:	d503201f 	nop
   86e3c:	d503201f 	nop
   86e40:	d503201f 	nop
   86e44:	d503201f 	nop
   86e48:	d503201f 	nop
   86e4c:	d503201f 	nop
   86e50:	d503201f 	nop
   86e54:	d503201f 	nop
   86e58:	d503201f 	nop
   86e5c:	d503201f 	nop
   86e60:	d503201f 	nop
   86e64:	d503201f 	nop
   86e68:	d503201f 	nop
   86e6c:	d503201f 	nop
   86e70:	d503201f 	nop
   86e74:	d503201f 	nop
   86e78:	d503201f 	nop
   86e7c:	d503201f 	nop
   86e80:	14000063 	b	8700c <exception_handler>
   86e84:	d503201f 	nop
   86e88:	d503201f 	nop
   86e8c:	d503201f 	nop
   86e90:	d503201f 	nop
   86e94:	d503201f 	nop
   86e98:	d503201f 	nop
   86e9c:	d503201f 	nop
   86ea0:	d503201f 	nop
   86ea4:	d503201f 	nop
   86ea8:	d503201f 	nop
   86eac:	d503201f 	nop
   86eb0:	d503201f 	nop
   86eb4:	d503201f 	nop
   86eb8:	d503201f 	nop
   86ebc:	d503201f 	nop
   86ec0:	d503201f 	nop
   86ec4:	d503201f 	nop
   86ec8:	d503201f 	nop
   86ecc:	d503201f 	nop
   86ed0:	d503201f 	nop
   86ed4:	d503201f 	nop
   86ed8:	d503201f 	nop
   86edc:	d503201f 	nop
   86ee0:	d503201f 	nop
   86ee4:	d503201f 	nop
   86ee8:	d503201f 	nop
   86eec:	d503201f 	nop
   86ef0:	d503201f 	nop
   86ef4:	d503201f 	nop
   86ef8:	d503201f 	nop
   86efc:	d503201f 	nop
   86f00:	14000043 	b	8700c <exception_handler>
   86f04:	d503201f 	nop
   86f08:	d503201f 	nop
   86f0c:	d503201f 	nop
   86f10:	d503201f 	nop
   86f14:	d503201f 	nop
   86f18:	d503201f 	nop
   86f1c:	d503201f 	nop
   86f20:	d503201f 	nop
   86f24:	d503201f 	nop
   86f28:	d503201f 	nop
   86f2c:	d503201f 	nop
   86f30:	d503201f 	nop
   86f34:	d503201f 	nop
   86f38:	d503201f 	nop
   86f3c:	d503201f 	nop
   86f40:	d503201f 	nop
   86f44:	d503201f 	nop
   86f48:	d503201f 	nop
   86f4c:	d503201f 	nop
   86f50:	d503201f 	nop
   86f54:	d503201f 	nop
   86f58:	d503201f 	nop
   86f5c:	d503201f 	nop
   86f60:	d503201f 	nop
   86f64:	d503201f 	nop
   86f68:	d503201f 	nop
   86f6c:	d503201f 	nop
   86f70:	d503201f 	nop
   86f74:	d503201f 	nop
   86f78:	d503201f 	nop
   86f7c:	d503201f 	nop
   86f80:	14000023 	b	8700c <exception_handler>
   86f84:	d503201f 	nop
   86f88:	d503201f 	nop
   86f8c:	d503201f 	nop
   86f90:	d503201f 	nop
   86f94:	d503201f 	nop
   86f98:	d503201f 	nop
   86f9c:	d503201f 	nop
   86fa0:	d503201f 	nop
   86fa4:	d503201f 	nop
   86fa8:	d503201f 	nop
   86fac:	d503201f 	nop
   86fb0:	d503201f 	nop
   86fb4:	d503201f 	nop
   86fb8:	d503201f 	nop
   86fbc:	d503201f 	nop
   86fc0:	d503201f 	nop
   86fc4:	d503201f 	nop
   86fc8:	d503201f 	nop
   86fcc:	d503201f 	nop
   86fd0:	d503201f 	nop
   86fd4:	d503201f 	nop
   86fd8:	d503201f 	nop
   86fdc:	d503201f 	nop
   86fe0:	d503201f 	nop
   86fe4:	d503201f 	nop
   86fe8:	d503201f 	nop
   86fec:	d503201f 	nop
   86ff0:	d503201f 	nop
   86ff4:	d503201f 	nop
   86ff8:	d503201f 	nop
   86ffc:	d503201f 	nop

0000000000087000 <set_exception_vector_table>:
   87000:	10ffc004 	adr	x4, 86800 <exception_vector_table>
   87004:	d518c004 	msr	vbar_el1, x4
   87008:	d65f03c0 	ret

000000000008700c <exception_handler>:
   8700c:	d10483ff 	sub	sp, sp, #0x120
   87010:	a90007e0 	stp	x0, x1, [sp]
   87014:	a9010fe2 	stp	x2, x3, [sp, #16]
   87018:	a90217e4 	stp	x4, x5, [sp, #32]
   8701c:	a9031fe6 	stp	x6, x7, [sp, #48]
   87020:	a90427e8 	stp	x8, x9, [sp, #64]
   87024:	a9052fea 	stp	x10, x11, [sp, #80]
   87028:	a90637ec 	stp	x12, x13, [sp, #96]
   8702c:	a9073fee 	stp	x14, x15, [sp, #112]
   87030:	a90847f0 	stp	x16, x17, [sp, #128]
   87034:	a9094ff2 	stp	x18, x19, [sp, #144]
   87038:	a90a57f4 	stp	x20, x21, [sp, #160]
   8703c:	a90b5ff6 	stp	x22, x23, [sp, #176]
   87040:	a90c67f8 	stp	x24, x25, [sp, #192]
   87044:	a90d6ffa 	stp	x26, x27, [sp, #208]
   87048:	a90e77fc 	stp	x28, x29, [sp, #224]
   8704c:	d5384000 	mrs	x0, spsr_el1
   87050:	a90f03fe 	stp	x30, x0, [sp, #240]
   87054:	d5384020 	mrs	x0, elr_el1
   87058:	d5384101 	mrs	x1, sp_el0
   8705c:	a91007e0 	stp	x0, x1, [sp, #256]
   87060:	97ffeb8a 	bl	81e88 <exception_entry>
   87064:	a95007e0 	ldp	x0, x1, [sp, #256]
   87068:	d5184020 	msr	elr_el1, x0
   8706c:	d5184101 	msr	sp_el0, x1
   87070:	a94f03fe 	ldp	x30, x0, [sp, #240]
   87074:	d5184000 	msr	spsr_el1, x0
   87078:	a94007e0 	ldp	x0, x1, [sp]
   8707c:	a9410fe2 	ldp	x2, x3, [sp, #16]
   87080:	a94217e4 	ldp	x4, x5, [sp, #32]
   87084:	a9431fe6 	ldp	x6, x7, [sp, #48]
   87088:	a94427e8 	ldp	x8, x9, [sp, #64]
   8708c:	a9452fea 	ldp	x10, x11, [sp, #80]
   87090:	a94637ec 	ldp	x12, x13, [sp, #96]
   87094:	a9473fee 	ldp	x14, x15, [sp, #112]
   87098:	a94847f0 	ldp	x16, x17, [sp, #128]
   8709c:	a9494ff2 	ldp	x18, x19, [sp, #144]
   870a0:	a94a57f4 	ldp	x20, x21, [sp, #160]
   870a4:	a94b5ff6 	ldp	x22, x23, [sp, #176]
   870a8:	a94c67f8 	ldp	x24, x25, [sp, #192]
   870ac:	a94d6ffa 	ldp	x26, x27, [sp, #208]
   870b0:	a94e77fc 	ldp	x28, x29, [sp, #224]
   870b4:	910483ff 	add	sp, sp, #0x120
   870b8:	d69f03e0 	eret

00000000000870bc <irq_handler>:
   870bc:	d10483ff 	sub	sp, sp, #0x120
   870c0:	a90007e0 	stp	x0, x1, [sp]
   870c4:	a9010fe2 	stp	x2, x3, [sp, #16]
   870c8:	a90217e4 	stp	x4, x5, [sp, #32]
   870cc:	a9031fe6 	stp	x6, x7, [sp, #48]
   870d0:	a90427e8 	stp	x8, x9, [sp, #64]
   870d4:	a9052fea 	stp	x10, x11, [sp, #80]
   870d8:	a90637ec 	stp	x12, x13, [sp, #96]
   870dc:	a9073fee 	stp	x14, x15, [sp, #112]
   870e0:	a90847f0 	stp	x16, x17, [sp, #128]
   870e4:	a9094ff2 	stp	x18, x19, [sp, #144]
   870e8:	a90a57f4 	stp	x20, x21, [sp, #160]
   870ec:	a90b5ff6 	stp	x22, x23, [sp, #176]
   870f0:	a90c67f8 	stp	x24, x25, [sp, #192]
   870f4:	a90d6ffa 	stp	x26, x27, [sp, #208]
   870f8:	a90e77fc 	stp	x28, x29, [sp, #224]
   870fc:	d5384000 	mrs	x0, spsr_el1
   87100:	a90f03fe 	stp	x30, x0, [sp, #240]
   87104:	d5384020 	mrs	x0, elr_el1
   87108:	d5384101 	mrs	x1, sp_el0
   8710c:	a91007e0 	stp	x0, x1, [sp, #256]
   87110:	97ffee13 	bl	8295c <irq_entry>
   87114:	a95007e0 	ldp	x0, x1, [sp, #256]
   87118:	d5184020 	msr	elr_el1, x0
   8711c:	d5184101 	msr	sp_el0, x1
   87120:	a94f03fe 	ldp	x30, x0, [sp, #240]
   87124:	d5184000 	msr	spsr_el1, x0
   87128:	a94007e0 	ldp	x0, x1, [sp]
   8712c:	a9410fe2 	ldp	x2, x3, [sp, #16]
   87130:	a94217e4 	ldp	x4, x5, [sp, #32]
   87134:	a9431fe6 	ldp	x6, x7, [sp, #48]
   87138:	a94427e8 	ldp	x8, x9, [sp, #64]
   8713c:	a9452fea 	ldp	x10, x11, [sp, #80]
   87140:	a94637ec 	ldp	x12, x13, [sp, #96]
   87144:	a9473fee 	ldp	x14, x15, [sp, #112]
   87148:	a94847f0 	ldp	x16, x17, [sp, #128]
   8714c:	a9494ff2 	ldp	x18, x19, [sp, #144]
   87150:	a94a57f4 	ldp	x20, x21, [sp, #160]
   87154:	a94b5ff6 	ldp	x22, x23, [sp, #176]
   87158:	a94c67f8 	ldp	x24, x25, [sp, #192]
   8715c:	a94d6ffa 	ldp	x26, x27, [sp, #208]
   87160:	a94e77fc 	ldp	x28, x29, [sp, #224]
   87164:	910483ff 	add	sp, sp, #0x120
   87168:	d69f03e0 	eret

000000000008716c <lower_exception_handler>:
   8716c:	d10483ff 	sub	sp, sp, #0x120
   87170:	a90007e0 	stp	x0, x1, [sp]
   87174:	a9010fe2 	stp	x2, x3, [sp, #16]
   87178:	a90217e4 	stp	x4, x5, [sp, #32]
   8717c:	a9031fe6 	stp	x6, x7, [sp, #48]
   87180:	a90427e8 	stp	x8, x9, [sp, #64]
   87184:	a9052fea 	stp	x10, x11, [sp, #80]
   87188:	a90637ec 	stp	x12, x13, [sp, #96]
   8718c:	a9073fee 	stp	x14, x15, [sp, #112]
   87190:	a90847f0 	stp	x16, x17, [sp, #128]
   87194:	a9094ff2 	stp	x18, x19, [sp, #144]
   87198:	a90a57f4 	stp	x20, x21, [sp, #160]
   8719c:	a90b5ff6 	stp	x22, x23, [sp, #176]
   871a0:	a90c67f8 	stp	x24, x25, [sp, #192]
   871a4:	a90d6ffa 	stp	x26, x27, [sp, #208]
   871a8:	a90e77fc 	stp	x28, x29, [sp, #224]
   871ac:	d5384000 	mrs	x0, spsr_el1
   871b0:	a90f03fe 	stp	x30, x0, [sp, #240]
   871b4:	d5384020 	mrs	x0, elr_el1
   871b8:	d5384101 	mrs	x1, sp_el0
   871bc:	a91007e0 	stp	x0, x1, [sp, #256]
   871c0:	910003e0 	mov	x0, sp
   871c4:	97ffeb54 	bl	81f14 <lower_exception_entry>
   871c8:	a95007e0 	ldp	x0, x1, [sp, #256]
   871cc:	d5184020 	msr	elr_el1, x0
   871d0:	d5184101 	msr	sp_el0, x1
   871d4:	a94f03fe 	ldp	x30, x0, [sp, #240]
   871d8:	d5184000 	msr	spsr_el1, x0
   871dc:	a94007e0 	ldp	x0, x1, [sp]
   871e0:	a9410fe2 	ldp	x2, x3, [sp, #16]
   871e4:	a94217e4 	ldp	x4, x5, [sp, #32]
   871e8:	a9431fe6 	ldp	x6, x7, [sp, #48]
   871ec:	a94427e8 	ldp	x8, x9, [sp, #64]
   871f0:	a9452fea 	ldp	x10, x11, [sp, #80]
   871f4:	a94637ec 	ldp	x12, x13, [sp, #96]
   871f8:	a9473fee 	ldp	x14, x15, [sp, #112]
   871fc:	a94847f0 	ldp	x16, x17, [sp, #128]
   87200:	a9494ff2 	ldp	x18, x19, [sp, #144]
   87204:	a94a57f4 	ldp	x20, x21, [sp, #160]
   87208:	a94b5ff6 	ldp	x22, x23, [sp, #176]
   8720c:	a94c67f8 	ldp	x24, x25, [sp, #192]
   87210:	a94d6ffa 	ldp	x26, x27, [sp, #208]
   87214:	a94e77fc 	ldp	x28, x29, [sp, #224]
   87218:	910483ff 	add	sp, sp, #0x120
   8721c:	d69f03e0 	eret

0000000000087220 <lower_irq_hadler>:
   87220:	d10483ff 	sub	sp, sp, #0x120
   87224:	a90007e0 	stp	x0, x1, [sp]
   87228:	a9010fe2 	stp	x2, x3, [sp, #16]
   8722c:	a90217e4 	stp	x4, x5, [sp, #32]
   87230:	a9031fe6 	stp	x6, x7, [sp, #48]
   87234:	a90427e8 	stp	x8, x9, [sp, #64]
   87238:	a9052fea 	stp	x10, x11, [sp, #80]
   8723c:	a90637ec 	stp	x12, x13, [sp, #96]
   87240:	a9073fee 	stp	x14, x15, [sp, #112]
   87244:	a90847f0 	stp	x16, x17, [sp, #128]
   87248:	a9094ff2 	stp	x18, x19, [sp, #144]
   8724c:	a90a57f4 	stp	x20, x21, [sp, #160]
   87250:	a90b5ff6 	stp	x22, x23, [sp, #176]
   87254:	a90c67f8 	stp	x24, x25, [sp, #192]
   87258:	a90d6ffa 	stp	x26, x27, [sp, #208]
   8725c:	a90e77fc 	stp	x28, x29, [sp, #224]
   87260:	d5384000 	mrs	x0, spsr_el1
   87264:	a90f03fe 	stp	x30, x0, [sp, #240]
   87268:	d5384020 	mrs	x0, elr_el1
   8726c:	d5384101 	mrs	x1, sp_el0
   87270:	a91007e0 	stp	x0, x1, [sp, #256]
   87274:	97ffeddc 	bl	829e4 <lower_irq_entry>
   87278:	a95007e0 	ldp	x0, x1, [sp, #256]
   8727c:	d5184020 	msr	elr_el1, x0
   87280:	d5184101 	msr	sp_el0, x1
   87284:	a94f03fe 	ldp	x30, x0, [sp, #240]
   87288:	d5184000 	msr	spsr_el1, x0
   8728c:	a94007e0 	ldp	x0, x1, [sp]
   87290:	a9410fe2 	ldp	x2, x3, [sp, #16]
   87294:	a94217e4 	ldp	x4, x5, [sp, #32]
   87298:	a9431fe6 	ldp	x6, x7, [sp, #48]
   8729c:	a94427e8 	ldp	x8, x9, [sp, #64]
   872a0:	a9452fea 	ldp	x10, x11, [sp, #80]
   872a4:	a94637ec 	ldp	x12, x13, [sp, #96]
   872a8:	a9473fee 	ldp	x14, x15, [sp, #112]
   872ac:	a94847f0 	ldp	x16, x17, [sp, #128]
   872b0:	a9494ff2 	ldp	x18, x19, [sp, #144]
   872b4:	a94a57f4 	ldp	x20, x21, [sp, #160]
   872b8:	a94b5ff6 	ldp	x22, x23, [sp, #176]
   872bc:	a94c67f8 	ldp	x24, x25, [sp, #192]
   872c0:	a94d6ffa 	ldp	x26, x27, [sp, #208]
   872c4:	a94e77fc 	ldp	x28, x29, [sp, #224]
   872c8:	910483ff 	add	sp, sp, #0x120
   872cc:	d69f03e0 	eret

00000000000872d0 <switch_to>:
   872d0:	a9005013 	stp	x19, x20, [x0]
   872d4:	a9015815 	stp	x21, x22, [x0, #16]
   872d8:	a9026017 	stp	x23, x24, [x0, #32]
   872dc:	a9036819 	stp	x25, x26, [x0, #48]
   872e0:	a904701b 	stp	x27, x28, [x0, #64]
   872e4:	a905781d 	stp	x29, x30, [x0, #80]
   872e8:	910003e9 	mov	x9, sp
   872ec:	f9003009 	str	x9, [x0, #96]
   872f0:	a9405033 	ldp	x19, x20, [x1]
   872f4:	a9415835 	ldp	x21, x22, [x1, #16]
   872f8:	a9426037 	ldp	x23, x24, [x1, #32]
   872fc:	a9436839 	ldp	x25, x26, [x1, #48]
   87300:	a944703b 	ldp	x27, x28, [x1, #64]
   87304:	a945783d 	ldp	x29, x30, [x1, #80]
   87308:	f9403029 	ldr	x9, [x1, #96]
   8730c:	9100013f 	mov	sp, x9
   87310:	d518d081 	msr	tpidr_el1, x1
   87314:	d65f03c0 	ret

0000000000087318 <get_current>:
   87318:	d538d080 	mrs	x0, tpidr_el1
   8731c:	d65f03c0 	ret

Disassembly of section .rodata:

0000000000087320 <.rodata>:
   87320:	6f727245 	fcmla	v5.8h, v18.8h, v18.h[1], #270
   87324:	6d203a72 	stp	d18, d14, [x19, #-512]
   87328:	6f6c6c61 	.inst	0x6f6c6c61 ; undefined
   8732c:	61662063 	.inst	0x61662063 ; undefined
   87330:	64656c69 	.inst	0x64656c69 ; undefined
   87334:	0000000a 	udf	#10
   87338:	00000020 	udf	#32
   8733c:	00000000 	udf	#0
   87340:	706c6568 	adr	x8, 15ffef <bss_end+0xd723f>
   87344:	00000000 	udf	#0
   87348:	6e697270 	uabdl2	v16.4s, v19.8h, v9.8h
   8734c:	6c612074 	ldnp	d20, d8, [x3, #-496]
   87350:	7661206c 	.inst	0x7661206c ; undefined
   87354:	616c6961 	.inst	0x616c6961 ; undefined
   87358:	20656c62 	.inst	0x20656c62 ; undefined
   8735c:	6d6d6f63 	ldp	d3, d27, [x27, #-304]
   87360:	73646e61 	.inst	0x73646e61 ; undefined
   87364:	0000002e 	udf	#46
   87368:	6c6c6568 	ldnp	d8, d25, [x11, #-320]
   8736c:	0000006f 	udf	#111
   87370:	6e697270 	uabdl2	v16.4s, v19.8h, v9.8h
   87374:	65482074 	.inst	0x65482074 ; undefined
   87378:	206f6c6c 	.inst	0x206f6c6c ; undefined
   8737c:	6c726f57 	ldnp	d23, d27, [x26, #-224]
   87380:	00002164 	udf	#8548
   87384:	00000000 	udf	#0
   87388:	7768736c 	.inst	0x7768736c ; undefined
   8738c:	00000000 	udf	#0
   87390:	776f6873 	.inst	0x776f6873 ; undefined
   87394:	6d6f7320 	ldp	d0, d28, [x25, #-272]
   87398:	61682065 	.inst	0x61682065 ; undefined
   8739c:	61776472 	.inst	0x61776472 ; undefined
   873a0:	69206572 	stgp	x18, x25, [x11, #-1024]
   873a4:	726f666e 	.inst	0x726f666e ; undefined
   873a8:	6974616d 	ldpsw	x13, x24, [x11, #-96]
   873ac:	002e6e6f 	.inst	0x002e6e6f ; NYI
   873b0:	6f626572 	sqshlu	v18.2d, v11.2d, #34
   873b4:	0000746f 	udf	#29807
   873b8:	6f626572 	sqshlu	v18.2d, v11.2d, #34
   873bc:	7420746f 	.inst	0x7420746f ; undefined
   873c0:	64206568 	.inst	0x64206568 ; undefined
   873c4:	63697665 	.inst	0x63697665 ; undefined
   873c8:	00002e65 	udf	#11877
   873cc:	00000000 	udf	#0
   873d0:	0000736c 	udf	#29548
   873d4:	00000000 	udf	#0
   873d8:	7473696c 	.inst	0x7473696c ; undefined
   873dc:	72696420 	.inst	0x72696420 ; undefined
   873e0:	6f746365 	umlsl2	v5.4s, v27.8h, v4.h[3]
   873e4:	63207972 	.inst	0x63207972 ; undefined
   873e8:	65746e6f 	fnmls	z15.h, p3/m, z19.h, z20.h
   873ec:	0073746e 	.inst	0x0073746e ; undefined
   873f0:	00746163 	.inst	0x00746163 ; undefined
   873f4:	00000000 	udf	#0
   873f8:	6e697270 	uabdl2	v16.4s, v19.8h, v9.8h
   873fc:	6e6f2074 	usubl2	v20.4s, v3.8h, v15.8h
   87400:	65687420 	fnmls	z0.h, p5/m, z1.h, z8.h
   87404:	61747320 	.inst	0x61747320 ; undefined
   87408:	7261646e 	.inst	0x7261646e ; undefined
   8740c:	756f2064 	.inst	0x756f2064 ; undefined
   87410:	74757074 	.inst	0x74757074 ; undefined
   87414:	00000000 	udf	#0
   87418:	63657865 	.inst	0x63657865 ; undefined
   8741c:	00000000 	udf	#0
   87420:	75637865 	.inst	0x75637865 ; undefined
   87424:	6e6f6974 	.inst	0x6e6f6974 ; undefined
   87428:	75206120 	.inst	0x75206120 ; undefined
   8742c:	20726573 	.inst	0x20726573 ; undefined
   87430:	676f7270 	.inst	0x676f7270 ; undefined
   87434:	006d6172 	.inst	0x006d6172 ; undefined
   87438:	74746573 	.inst	0x74746573 ; undefined
   8743c:	6f656d69 	.inst	0x6f656d69 ; undefined
   87440:	00007475 	udf	#29813
   87444:	00000000 	udf	#0
   87448:	6e697270 	uabdl2	v16.4s, v19.8h, v9.8h
   8744c:	4d207374 	st4	{v20.h-v23.h}[6], [x27]
   87450:	41535345 	.inst	0x41535345 ; undefined
   87454:	61204547 	.inst	0x61204547 ; undefined
   87458:	72657466 	.inst	0x72657466 ; undefined
   8745c:	43455320 	.inst	0x43455320 ; undefined
   87460:	53444e4f 	.inst	0x53444e4f ; undefined
   87464:	74697720 	.inst	0x74697720 ; undefined
   87468:	68742068 	.inst	0x68742068 ; undefined
   8746c:	75632065 	.inst	0x75632065 ; undefined
   87470:	6e657272 	uabdl2	v18.4s, v19.8h, v5.8h
   87474:	69742074 	ldpsw	x20, x8, [x3, #-96]
   87478:	6120656d 	.inst	0x6120656d ; undefined
   8747c:	7420646e 	.inst	0x7420646e ; undefined
   87480:	63206568 	.inst	0x63206568 ; undefined
   87484:	616d6d6f 	.inst	0x616d6d6f ; undefined
   87488:	6520646e 	.inst	0x6520646e ; undefined
   8748c:	75636578 	.inst	0x75636578 ; undefined
   87490:	20646574 	.inst	0x20646574 ; undefined
   87494:	656d6974 	fnmls	z20.h, p2/m, z11.h, z13.h
	...
   874a0:	74736574 	.inst	0x74736574 ; undefined
   874a4:	00000000 	udf	#0
   874a8:	6f6d6564 	sqshlu	v4.2d, v11.2d, #45
   874ac:	73657420 	.inst	0x73657420 ; undefined
   874b0:	00000074 	udf	#116
   874b4:	00000000 	udf	#0
   874b8:	00203a09 	.inst	0x00203a09 ; NYI
   874bc:	00000000 	udf	#0
   874c0:	6c6c6548 	ldnp	d8, d25, [x10, #-320]
   874c4:	6f77206f 	umlal2	v15.4s, v3.8h, v7.h[3]
   874c8:	21646c72 	.inst	0x21646c72 ; undefined
   874cc:	0000000a 	udf	#10
   874d0:	63657865 	.inst	0x63657865 ; undefined
   874d4:	0000203a 	udf	#8250
   874d8:	206f4e20 	.inst	0x206f4e20 ; undefined
   874dc:	68637573 	.inst	0x68637573 ; undefined
   874e0:	6c696620 	ldnp	d0, d25, [x17, #-368]
   874e4:	726f2065 	.inst	0x726f2065 ; undefined
   874e8:	72696420 	.inst	0x72696420 ; undefined
   874ec:	6f746365 	umlsl2	v5.4s, v27.8h, v4.h[3]
   874f0:	000a7972 	.inst	0x000a7972 ; undefined
   874f4:	00000000 	udf	#0
   874f8:	6f6d6564 	sqshlu	v4.2d, v11.2d, #45
   874fc:	74706f20 	.inst	0x74706f20 ; undefined
   87500:	3a6e6f69 	.inst	0x3a6e6f69 ; undefined
   87504:	0000000a 	udf	#10
   87508:	75202e31 	.inst	0x75202e31 ; undefined
   8750c:	5f747261 	sqdmlsl	s1, h19, v4.h[3]
   87510:	6e797361 	uabdl2	v1.4s, v27.8h, v25.8h
   87514:	65745f63 	fnmla	z3.h, p7/m, z27.h, z20.h
   87518:	000a7473 	.inst	0x000a7473 ; undefined
   8751c:	00000000 	udf	#0
   87520:	74202e32 	.inst	0x74202e32 ; undefined
   87524:	61657268 	.inst	0x61657268 ; undefined
   87528:	65745f64 	fnmla	z4.h, p7/m, z27.h, z20.h
   8752c:	000a7473 	.inst	0x000a7473 ; undefined
   87530:	66202e33 	.inst	0x66202e33 ; undefined
   87534:	5f6b726f 	sqdmlsl	s15, h19, v11.h[2]
   87538:	74736574 	.inst	0x74736574 ; undefined
   8753c:	0000000a 	udf	#10
   87540:	0000203e 	udf	#8254
   87544:	00000000 	udf	#0
   87548:	72617473 	.inst	0x72617473 ; undefined
   8754c:	61702074 	.inst	0x61702074 ; undefined
   87550:	6e697372 	uabdl2	v18.4s, v27.8h, v9.8h
   87554:	00000a67 	udf	#2663
   87558:	65646f4e 	fnmls	z14.h, p3/m, z26.h, z4.h
   8755c:	6d616e20 	ldp	d0, d27, [x17, #-496]
   87560:	00203a65 	.inst	0x00203a65 ; NYI
   87564:	00000000 	udf	#0
   87568:	65646f6e 	fnmls	z14.h, p3/m, z27.h, z4.h
   8756c:	646e6520 	.inst	0x646e6520 ; undefined
   87570:	0000000a 	udf	#10
   87574:	00000000 	udf	#0
   87578:	706f7250 	adr	x16, 1663c3 <bss_end+0xdd613>
   8757c:	79747265 	ldrh	w5, [x19, #6712]
   87580:	6d616e20 	ldp	d0, d27, [x17, #-496]
   87584:	00203a65 	.inst	0x00203a65 ; NYI
   87588:	6e697073 	uabdl2	v19.4s, v3.8h, v9.8h
   8758c:	00000000 	udf	#0
   87590:	6f6d656d 	sqshlu	v13.2d, v11.2d, #45
   87594:	6e207972 	sqneg	v18.16b, v11.16b
   87598:	0a65646f 	bic	w15, w3, w5, lsr #25
   8759c:	00000000 	udf	#0
   875a0:	706f7250 	adr	x16, 1663eb <bss_end+0xdd63b>
   875a4:	79747265 	ldrh	w5, [x19, #6712]
   875a8:	6c617620 	ldnp	d0, d29, [x17, #-496]
   875ac:	203a6575 	.inst	0x203a6575 ; undefined
	...
   875b8:	6c6c756e 	ldnp	d14, d29, [x11, #-320]
   875bc:	0000000a 	udf	#10
   875c0:	0a736559 	bic	w25, w10, w19, lsr #25
   875c4:	00000000 	udf	#0
   875c8:	000a6f4e 	.inst	0x000a6f4e ; undefined
   875cc:	00000000 	udf	#0
   875d0:	65637865 	fnmls	z5.h, p6/m, z3.h, z3.h
   875d4:	6f697470 	uqshl	v16.2d, v3.2d, #41
   875d8:	6e65206e 	usubl2	v14.4s, v3.8h, v5.8h
   875dc:	21797274 	.inst	0x21797274 ; undefined
   875e0:	0000000a 	udf	#10
   875e4:	00000000 	udf	#0
   875e8:	72737073 	.inst	0x72737073 ; undefined
   875ec:	316c655f 	cmn	w10, #0xb19, lsl #12
   875f0:	0000203a 	udf	#8250
   875f4:	00000000 	udf	#0
   875f8:	5f726c65 	.inst	0x5f726c65 ; undefined
   875fc:	3a316c65 	.inst	0x3a316c65 ; undefined
   87600:	00000020 	udf	#32
   87604:	00000000 	udf	#0
   87608:	5f727365 	sqdmlsl	s5, h27, v2.h[3]
   8760c:	3a316c65 	.inst	0x3a316c65 ; undefined
   87610:	00000020 	udf	#32
   87614:	00000000 	udf	#0
   87618:	6e6b6e75 	umin	v21.8h, v19.8h, v11.8h
   8761c:	206e776f 	.inst	0x206e776f ; undefined
   87620:	63737973 	.inst	0x63737973 ; undefined
   87624:	0a6c6c61 	bic	w1, w3, w12, lsr #27
	...
   87630:	37303730 	tbnz	w16, #6, 87d14 <get_current+0x9fc>
   87634:	00003130 	udf	#12592
   87638:	49415254 	.inst	0x49415254 ; undefined
   8763c:	2152454c 	.inst	0x2152454c ; undefined
   87640:	00002121 	udf	#8481
   87644:	00000000 	udf	#0
   87648:	3a746163 	.inst	0x3a746163 ; undefined
   8764c:	00000020 	udf	#32
   87650:	206f4e20 	.inst	0x206f4e20 ; undefined
   87654:	68637573 	.inst	0x68637573 ; undefined
   87658:	6c696620 	ldnp	d0, d25, [x17, #-368]
   8765c:	726f2065 	.inst	0x726f2065 ; undefined
   87660:	72696420 	.inst	0x72696420 ; undefined
   87664:	6f746365 	umlsl2	v5.4s, v27.8h, v4.h[3]
   87668:	000a7972 	.inst	0x000a7972 ; undefined
   8766c:	00000000 	udf	#0
   87670:	756e696c 	.inst	0x756e696c ; undefined
   87674:	6e692c78 	uqsub	v24.8h, v3.8h, v9.8h
   87678:	64727469 	.inst	0x64727469 ; undefined
   8767c:	6174732d 	.inst	0x6174732d ; undefined
   87680:	00007472 	udf	#29810
   87684:	00000000 	udf	#0
   87688:	756e696c 	.inst	0x756e696c ; undefined
   8768c:	6e692c78 	uqsub	v24.8h, v3.8h, v9.8h
   87690:	64727469 	.inst	0x64727469 ; undefined
   87694:	646e652d 	.inst	0x646e652d ; undefined
	...
   876a0:	6c696146 	ldnp	d6, d24, [x10, #-368]
   876a4:	6c616d20 	ldnp	d0, d27, [x9, #-496]
   876a8:	00636f6c 	.inst	0x00636f6c ; undefined
   876ac:	00000000 	udf	#0
   876b0:	74736574 	.inst	0x74736574 ; undefined
   876b4:	00000000 	udf	#0
   876b8:	65776f6c 	fnmls	z12.h, p3/m, z27.h, z23.h
   876bc:	6f632072 	umlal2	v18.4s, v3.8h, v3.h[2]
   876c0:	74206572 	.inst	0x74206572 ; undefined
   876c4:	72656d69 	.inst	0x72656d69 ; undefined
   876c8:	71726920 	subs	w0, w9, #0xc9a, lsl #12
   876cc:	0000000a 	udf	#10
   876d0:	616f7262 	.inst	0x616f7262 ; undefined
   876d4:	65722064 	fmls	z4.h, p0/m, z3.h, z18.h
   876d8:	69736976 	ldpsw	x22, x26, [x11, #-104]
   876dc:	3a096e6f 	.inst	0x3a096e6f ; undefined
   876e0:	00000020 	udf	#32
   876e4:	00000000 	udf	#0
   876e8:	206d7241 	.inst	0x206d7241 ; undefined
   876ec:	6f6d656d 	sqshlu	v13.2d, v11.2d, #45
   876f0:	62207972 	.inst	0x62207972 ; undefined
   876f4:	20657361 	.inst	0x20657361 ; undefined
   876f8:	72646461 	.inst	0x72646461 ; undefined
   876fc:	09737365 	.inst	0x09737365 ; undefined
   87700:	0000203a 	udf	#8250
   87704:	00000000 	udf	#0
   87708:	6d72410a 	ldp	d10, d16, [x8, #-224]
   8770c:	6d656d20 	ldp	d0, d27, [x9, #-432]
   87710:	2079726f 	.inst	0x2079726f ; undefined
   87714:	657a6973 	fnmls	z19.h, p2/m, z11.h, z26.h
   87718:	00203a09 	.inst	0x00203a09 ; NYI
   8771c:	00000000 	udf	#0
   87720:	74706d45 	.inst	0x74706d45 ; undefined
   87724:	696c2079 	ldpsw	x25, x8, [x3, #-160]
   87728:	000a7473 	.inst	0x000a7473 ; undefined
   8772c:	00000000 	udf	#0
   87730:	00000020 	udf	#32
   87734:	00000000 	udf	#0
   87738:	0000000a 	udf	#10
   8773c:	00000000 	udf	#0
   87740:	6f727245 	fcmla	v5.8h, v18.8h, v18.h[1], #270
   87744:	62203a72 	.inst	0x62203a72 ; undefined
   87748:	79646475 	ldrh	w21, [x3, #4658]
   8774c:	696e695f 	ldpsw	xzr, x26, [x10, #-144]
   87750:	61662074 	.inst	0x61662074 ; undefined
   87754:	64656c69 	.inst	0x64656c69 ; undefined
   87758:	0000000a 	udf	#10
   8775c:	00000000 	udf	#0
   87760:	6e69460a 	ushl	v10.8h, v16.8h, v9.8h
   87764:	20687369 	.inst	0x20687369 ; undefined
   87768:	64647562 	.inst	0x64647562 ; undefined
   8776c:	6e692079 	usubl2	v25.4s, v3.8h, v9.8h
   87770:	000a7469 	.inst	0x000a7469 ; undefined
   87774:	00000000 	udf	#0
   87778:	6f727245 	fcmla	v5.8h, v18.8h, v18.h[1], #270
   8777c:	6f203a72 	.inst	0x6f203a72 ; undefined
   87780:	72656472 	.inst	0x72656472 ; undefined
   87784:	20736920 	.inst	0x20736920 ; undefined
   87788:	206f6f74 	.inst	0x206f6f74 ; undefined
   8778c:	6772616c 	.inst	0x6772616c ; undefined
   87790:	00000a65 	udf	#2661
   87794:	00000000 	udf	#0
   87798:	6f727245 	fcmla	v5.8h, v18.8h, v18.h[1], #270
   8779c:	66203a72 	.inst	0x66203a72 ; undefined
   877a0:	5f656572 	.inst	0x5f656572 ; undefined
   877a4:	65676170 	fnmls	z16.h, p0/m, z11.h, z7.h
   877a8:	61662073 	.inst	0x61662073 ; undefined
   877ac:	64656c69 	.inst	0x64656c69 ; undefined
   877b0:	0000000a 	udf	#10
   877b4:	00000000 	udf	#0
   877b8:	6f727245 	fcmla	v5.8h, v18.8h, v18.h[1], #270
   877bc:	6b203a72 	.inst	0x6b203a72 ; undefined
   877c0:	5f6d656d 	.inst	0x5f6d656d ; undefined
   877c4:	68636163 	.inst	0x68636163 ; undefined
   877c8:	72635f65 	.inst	0x72635f65 ; undefined
   877cc:	65746165 	fnmls	z5.h, p0/m, z11.h, z20.h
   877d0:	69616620 	ldpsw	x0, x25, [x17, #-248]
   877d4:	0a64656c 	bic	w12, w11, w4, lsr #25
	...
   877e0:	6f727245 	fcmla	v5.8h, v18.8h, v18.h[1], #270
   877e4:	6d203a72 	stp	d18, d14, [x19, #-512]
   877e8:	6f6c6c61 	.inst	0x6f6c6c61 ; undefined
   877ec:	61662063 	.inst	0x61662063 ; undefined
   877f0:	64656c69 	.inst	0x64656c69 ; undefined
   877f4:	0000000a 	udf	#10
   877f8:	6f727245 	fcmla	v5.8h, v18.8h, v18.h[1], #270
   877fc:	6b203a72 	.inst	0x6b203a72 ; undefined
   87800:	5f6d656d 	.inst	0x5f6d656d ; undefined
   87804:	68636163 	.inst	0x68636163 ; undefined
   87808:	69665f65 	ldpsw	x5, x23, [x27, #-208]
   8780c:	6620646e 	.inst	0x6620646e ; undefined
   87810:	656c6961 	fnmls	z1.h, p2/m, z11.h, z12.h
   87814:	000a2e64 	.inst	0x000a2e64 ; undefined
   87818:	74736574 	.inst	0x74736574 ; undefined
   8781c:	726f6620 	.inst	0x726f6620 ; undefined
   87820:	29312820 	stp	w0, w10, [x1, #-120]
   87824:	6e797361 	uabdl2	v1.4s, v27.8h, v25.8h
   87828:	32282063 	orr	w3, w3, #0xff000001
   8782c:	65727029 	fnmls	z9.h, p4/m, z1.h, z18.h
   87830:	74706d65 	.inst	0x74706d65 ; undefined
   87834:	206e6f69 	.inst	0x206e6f69 ; undefined
   87838:	0000203e 	udf	#8254
   8783c:	00000000 	udf	#0
   87840:	74726175 	.inst	0x74726175 ; undefined
   87844:	79736120 	ldrh	w0, [x9, #6576]
   87848:	7420636e 	.inst	0x7420636e ; undefined
   8784c:	21747365 	.inst	0x21747365 ; undefined
   87850:	0000000a 	udf	#10
   87854:	00000000 	udf	#0
   87858:	6e797361 	uabdl2	v1.4s, v27.8h, v25.8h
   8785c:	726f6863 	.inst	0x726f6863 ; undefined
   87860:	73756f6e 	.inst	0x73756f6e ; undefined
   87864:	63657220 	.inst	0x63657220 ; undefined
   87868:	65766965 	fnmls	z5.h, p2/m, z11.h, z22.h
   8786c:	0000203a 	udf	#8250
   87870:	65657270 	fnmls	z16.h, p4/m, z19.h, z5.h
   87874:	6974706d 	ldpsw	x13, x28, [x3, #-96]
   87878:	74206e6f 	.inst	0x74206e6f ; undefined
   8787c:	21747365 	.inst	0x21747365 ; undefined
   87880:	0000000a 	udf	#10
   87884:	00000000 	udf	#0
   87888:	74736574 	.inst	0x74736574 ; undefined
   8788c:	0000000a 	udf	#10
   87890:	65646e55 	fnmls	z21.h, p3/m, z18.h, z4.h
   87894:	656e6966 	fnmls	z6.h, p2/m, z11.h, z14.h
   87898:	6e692064 	usubl2	v4.4s, v3.8h, v9.8h
   8789c:	2e747075 	uabdl	v21.4s, v3.4h, v20.4h
   878a0:	0000000a 	udf	#10
   878a4:	00000000 	udf	#0
   878a8:	00002023 	udf	#8227
	...
   878b8:	00000020 	udf	#32
   878bc:	00000000 	udf	#0
   878c0:	6f63203a 	umlal2	v26.4s, v1.8h, v3.h[2]
   878c4:	6e616d6d 	umin	v13.8h, v11.8h, v1.8h
   878c8:	6f6e2064 	umlal2	v4.4s, v3.8h, v14.h[2]
   878cc:	6f662074 	umlal2	v20.4s, v3.8h, v6.h[2]
   878d0:	0a646e75 	bic	w21, w19, w4, lsr #27
   878d4:	00000000 	udf	#0
   878d8:	6c696863 	ldnp	d3, d26, [x3, #-368]
   878dc:	00000a64 	udf	#2660
   878e0:	726f460a 	.inst	0x726f460a ; undefined
   878e4:	6554206b 	.inst	0x6554206b ; undefined
   878e8:	202c7473 	.inst	0x202c7473 ; undefined
   878ec:	20646970 	.inst	0x20646970 ; undefined
	...
   878f8:	0000000a 	udf	#10
   878fc:	00000000 	udf	#0
   87900:	73726966 	.inst	0x73726966 ; undefined
   87904:	68632074 	.inst	0x68632074 ; undefined
   87908:	20646c69 	.inst	0x20646c69 ; undefined
   8790c:	3a646970 	.inst	0x3a646970 ; undefined
   87910:	00000020 	udf	#32
   87914:	00000000 	udf	#0
   87918:	6e63202c 	usubl2	v12.4s, v1.8h, v3.8h
   8791c:	00203a74 	.inst	0x00203a74 ; NYI
   87920:	7470202c 	.inst	0x7470202c ; undefined
   87924:	00203a72 	.inst	0x00203a72 ; NYI
   87928:	7073202c 	adr	x12, 16dd2f <bss_end+0xe4f7f>
   8792c:	0000203a 	udf	#8250
   87930:	6f636573 	sqshlu	v19.2d, v11.2d, #35
   87934:	6320646e 	.inst	0x6320646e ; undefined
   87938:	646c6968 	.inst	0x646c6968 ; undefined
   8793c:	64697020 	.inst	0x64697020 ; undefined
   87940:	0000203a 	udf	#8250
   87944:	00000000 	udf	#0
   87948:	65726170 	fnmls	z16.h, p0/m, z11.h, z18.h
   8794c:	6820746e 	.inst	0x6820746e ; undefined
   87950:	2c657265 	ldnp	s5, s28, [x19, #-216]
   87954:	64697020 	.inst	0x64697020 ; undefined
   87958:	00000020 	udf	#32
   8795c:	00000000 	udf	#0
   87960:	6863202c 	.inst	0x6863202c ; undefined
   87964:	20646c69 	.inst	0x20646c69 ; undefined
	...
   87970:	00000020 	udf	#32
   87974:	00000000 	udf	#0
   87978:	0000000a 	udf	#10
   8797c:	00000000 	udf	#0
   87980:	65726854 	fnmls	z20.h, p2/m, z2.h, z18.h
   87984:	69206461 	stgp	x1, x25, [x3, #-1024]
   87988:	00203a64 	.inst	0x00203a64 ; NYI
   8798c:	00000000 	udf	#0
   87990:	2069202c 	.inst	0x2069202c ; undefined
   87994:	0000203d 	udf	#8253
   87998:	6c696166 	ldnp	d6, d24, [x11, #-368]
   8799c:	6c616d20 	ldnp	d0, d27, [x9, #-496]
   879a0:	0a636f6c 	bic	w12, w27, w3, lsr #27
   879a4:	00000000 	udf	#0
   879a8:	656d6954 	fnmls	z20.h, p2/m, z10.h, z13.h
   879ac:	656d2072 	fmls	z18.h, p0/m, z3.h, z13.h
   879b0:	67617373 	.inst	0x67617373 ; undefined
   879b4:	00203a65 	.inst	0x00203a65 ; NYI
   879b8:	Address 0x00000000000879b8 is out of bounds.


Disassembly of section .eh_frame:

00000000000879c0 <.eh_frame>:
   879c0:	00000010 	udf	#16
   879c4:	00000000 	udf	#0
   879c8:	00527a01 	.inst	0x00527a01 ; undefined
   879cc:	011e7804 	.inst	0x011e7804 ; undefined
   879d0:	001f0c1b 	.inst	0x001f0c1b ; undefined
   879d4:	00000014 	udf	#20
   879d8:	00000018 	udf	#24
   879dc:	ffff8e24 	.inst	0xffff8e24 ; undefined
   879e0:	00000150 	udf	#336
   879e4:	200e4100 	.inst	0x200e4100 ; undefined
   879e8:	000e5202 	.inst	0x000e5202 ; undefined
   879ec:	00000014 	udf	#20
   879f0:	00000030 	udf	#48
   879f4:	ffff8f5c 	.inst	0xffff8f5c ; undefined
   879f8:	00000150 	udf	#336
   879fc:	200e4100 	.inst	0x200e4100 ; undefined
   87a00:	000e5202 	.inst	0x000e5202 ; undefined
   87a04:	00000014 	udf	#20
   87a08:	00000048 	udf	#72
   87a0c:	ffff9094 	.inst	0xffff9094 ; undefined
   87a10:	000000ac 	udf	#172
   87a14:	100e4100 	adr	x0, a4234 <bss_end+0x1b484>
   87a18:	00000e69 	udf	#3689
   87a1c:	00000014 	udf	#20
   87a20:	00000060 	udf	#96
   87a24:	ffff9128 	.inst	0xffff9128 ; undefined
   87a28:	00000040 	udf	#64
   87a2c:	200e4100 	.inst	0x200e4100 ; undefined
   87a30:	00000e4e 	udf	#3662
   87a34:	00000020 	udf	#32
   87a38:	00000078 	udf	#120
   87a3c:	ffff9150 	.inst	0xffff9150 ; undefined
   87a40:	00000380 	udf	#896
   87a44:	400e4100 	.inst	0x400e4100 ; undefined
   87a48:	079e089d 	.inst	0x079e089d ; undefined
   87a4c:	02069342 	.inst	0x02069342 ; undefined
   87a50:	d3dddedc 	.inst	0xd3dddedc ; undefined
   87a54:	0000000e 	udf	#14
   87a58:	00000020 	udf	#32
   87a5c:	0000009c 	udf	#156
   87a60:	ffff94ac 	.inst	0xffff94ac ; undefined
   87a64:	0000044c 	udf	#1100
   87a68:	500e4100 	adr	x0, a428a <bss_end+0x1b4da>
   87a6c:	099e0a9d 	.inst	0x099e0a9d ; undefined
   87a70:	03089342 	.inst	0x03089342 ; undefined
   87a74:	ddde010f 	.inst	0xddde010f ; undefined
   87a78:	00000ed3 	udf	#3795
   87a7c:	0000001c 	udf	#28
   87a80:	000000c0 	udf	#192
   87a84:	ffff98d4 	.inst	0xffff98d4 ; undefined
   87a88:	00000054 	udf	#84
   87a8c:	200e4100 	.inst	0x200e4100 ; undefined
   87a90:	039e049d 	.inst	0x039e049d ; undefined
   87a94:	0eddde53 	.inst	0x0eddde53 ; undefined
   87a98:	00000000 	udf	#0
   87a9c:	00000020 	udf	#32
   87aa0:	000000e0 	udf	#224
   87aa4:	ffff9908 	.inst	0xffff9908 ; undefined
   87aa8:	00000054 	udf	#84
   87aac:	200e4100 	.inst	0x200e4100 ; undefined
   87ab0:	039e049d 	.inst	0x039e049d ; undefined
   87ab4:	0eddde53 	.inst	0x0eddde53 ; undefined
	...
   87ac0:	0000001c 	udf	#28
   87ac4:	00000104 	udf	#260
   87ac8:	ffff9938 	.inst	0xffff9938 ; undefined
   87acc:	0000009c 	udf	#156
   87ad0:	300e4100 	adr	x0, a42f1 <bss_end+0x1b541>
   87ad4:	059e069d 	mov	z29.s, p14/z, #52
   87ad8:	0eddde65 	.inst	0x0eddde65 ; undefined
   87adc:	00000000 	udf	#0
   87ae0:	0000001c 	udf	#28
   87ae4:	00000124 	udf	#292
   87ae8:	ffff99b4 	.inst	0xffff99b4 ; undefined
   87aec:	00000024 	udf	#36
   87af0:	200e4100 	.inst	0x200e4100 ; undefined
   87af4:	039e049d 	.inst	0x039e049d ; undefined
   87af8:	0eddde47 	.inst	0x0eddde47 ; undefined
   87afc:	00000000 	udf	#0
   87b00:	0000001c 	udf	#28
   87b04:	00000144 	udf	#324
   87b08:	ffff99b8 	.inst	0xffff99b8 ; undefined
   87b0c:	00000020 	udf	#32
   87b10:	200e4100 	.inst	0x200e4100 ; undefined
   87b14:	039e049d 	.inst	0x039e049d ; undefined
   87b18:	0eddde46 	.inst	0x0eddde46 ; undefined
   87b1c:	00000000 	udf	#0
   87b20:	00000014 	udf	#20
   87b24:	00000164 	udf	#356
   87b28:	ffff99b8 	.inst	0xffff99b8 ; undefined
   87b2c:	0000003c 	udf	#60
   87b30:	100e4100 	adr	x0, a4350 <bss_end+0x1b5a0>
   87b34:	00000e4d 	udf	#3661
   87b38:	0000001c 	udf	#28
   87b3c:	0000017c 	udf	#380
   87b40:	ffff99dc 	.inst	0xffff99dc ; undefined
   87b44:	0000001c 	udf	#28
   87b48:	200e4100 	.inst	0x200e4100 ; undefined
   87b4c:	039e049d 	.inst	0x039e049d ; undefined
   87b50:	0eddde45 	.inst	0x0eddde45 ; undefined
   87b54:	00000000 	udf	#0
   87b58:	0000001c 	udf	#28
   87b5c:	0000019c 	udf	#412
   87b60:	ffff99d8 	.inst	0xffff99d8 ; undefined
   87b64:	00000048 	udf	#72
   87b68:	b00e4100 	adrp	x0, 1c8a8000 <bss_end+0x1c81f250>
   87b6c:	9e269d02 	.inst	0x9e269d02 ; undefined
   87b70:	ddde5025 	.inst	0xddde5025 ; undefined
   87b74:	0000000e 	udf	#14
   87b78:	0000001c 	udf	#28
   87b7c:	000001bc 	udf	#444
   87b80:	ffff9a00 	.inst	0xffff9a00 ; undefined
   87b84:	00000120 	udf	#288
   87b88:	d00e4100 	adrp	x0, 1c8a9000 <bss_end+0x1c820250>
   87b8c:	9e2a9d02 	.inst	0x9e2a9d02 ; undefined
   87b90:	de460229 	.inst	0xde460229 ; undefined
   87b94:	00000edd 	udf	#3805
   87b98:	00000020 	udf	#32
   87b9c:	000001dc 	udf	#476
   87ba0:	ffff9b00 	.inst	0xffff9b00 ; undefined
   87ba4:	00000060 	udf	#96
   87ba8:	300e4100 	adr	x0, a43c9 <bss_end+0x1b619>
   87bac:	059e069d 	mov	z29.s, p14/z, #52
   87bb0:	54049342 	b.cs	90e18 <bss_end+0x8068>  // b.hs, b.nlast
   87bb4:	0ed3ddde 	.inst	0x0ed3ddde ; undefined
   87bb8:	00000000 	udf	#0
   87bbc:	00000020 	udf	#32
   87bc0:	00000200 	udf	#512
   87bc4:	ffff9b3c 	.inst	0xffff9b3c ; undefined
   87bc8:	000000a0 	udf	#160
   87bcc:	a00e4100 	.inst	0xa00e4100 ; undefined
   87bd0:	9e249d02 	.inst	0x9e249d02 ; undefined
   87bd4:	ddde6623 	.inst	0xddde6623 ; undefined
   87bd8:	0000000e 	udf	#14
   87bdc:	00000000 	udf	#0
   87be0:	00000014 	udf	#20
   87be4:	00000224 	udf	#548
   87be8:	ffff9bb8 	.inst	0xffff9bb8 ; undefined
   87bec:	00000044 	udf	#68
   87bf0:	100e4100 	adr	x0, a4410 <bss_end+0x1b660>
   87bf4:	00000e4f 	udf	#3663
   87bf8:	0000001c 	udf	#28
   87bfc:	0000023c 	udf	#572
   87c00:	ffff9be4 	.inst	0xffff9be4 ; undefined
   87c04:	00000124 	udf	#292
   87c08:	200e4100 	.inst	0x200e4100 ; undefined
   87c0c:	039e049d 	.inst	0x039e049d ; undefined
   87c10:	ddde4702 	.inst	0xddde4702 ; undefined
   87c14:	0000000e 	udf	#14
   87c18:	0000001c 	udf	#28
   87c1c:	0000025c 	udf	#604
   87c20:	ffff9ce8 	.inst	0xffff9ce8 ; undefined
   87c24:	0000033c 	udf	#828
   87c28:	800e4100 	.inst	0x800e4100 ; undefined
   87c2c:	9e109d01 	.inst	0x9e109d01 ; undefined
   87c30:	decd020f 	.inst	0xdecd020f ; undefined
   87c34:	00000edd 	udf	#3805
   87c38:	0000001c 	udf	#28
   87c3c:	0000027c 	udf	#636
   87c40:	ffffa004 	.inst	0xffffa004 ; undefined
   87c44:	00000234 	udf	#564
   87c48:	600e4100 	.inst	0x600e4100 ; undefined
   87c4c:	0b9e0c9d 	add	w29, w4, w30, asr #3
   87c50:	ddde8b02 	.inst	0xddde8b02 ; undefined
   87c54:	0000000e 	udf	#14
   87c58:	00000014 	udf	#20
   87c5c:	0000029c 	udf	#668
   87c60:	ffffa218 	.inst	0xffffa218 ; undefined
   87c64:	00000010 	udf	#16
	...
   87c70:	0000001c 	udf	#28
   87c74:	000002b4 	udf	#692
   87c78:	ffffa210 	.inst	0xffffa210 ; undefined
   87c7c:	0000008c 	udf	#140
   87c80:	300e4100 	adr	x0, a44a1 <bss_end+0x1b6f1>
   87c84:	059e069d 	mov	z29.s, p14/z, #52
   87c88:	0eddde61 	.inst	0x0eddde61 ; undefined
   87c8c:	00000000 	udf	#0
   87c90:	0000001c 	udf	#28
   87c94:	000002d4 	udf	#724
   87c98:	ffffa27c 	.inst	0xffffa27c ; undefined
   87c9c:	000001b0 	udf	#432
   87ca0:	200e4100 	.inst	0x200e4100 ; undefined
   87ca4:	039e049d 	.inst	0x039e049d ; undefined
   87ca8:	ddde6a02 	.inst	0xddde6a02 ; undefined
   87cac:	0000000e 	udf	#14
   87cb0:	00000014 	udf	#20
   87cb4:	000002f4 	udf	#756
   87cb8:	ffffa40c 	.inst	0xffffa40c ; undefined
   87cbc:	00000054 	udf	#84
   87cc0:	100e4100 	adr	x0, a44e0 <bss_end+0x1b730>
   87cc4:	00000e53 	udf	#3667
   87cc8:	00000014 	udf	#20
   87ccc:	0000030c 	udf	#780
   87cd0:	ffffa448 	.inst	0xffffa448 ; undefined
   87cd4:	0000009c 	udf	#156
   87cd8:	200e4100 	.inst	0x200e4100 ; undefined
   87cdc:	00000e65 	udf	#3685
   87ce0:	0000001c 	udf	#28
   87ce4:	00000324 	udf	#804
   87ce8:	ffffa4cc 	.inst	0xffffa4cc ; undefined
   87cec:	00000140 	udf	#320
   87cf0:	c00e4100 	.inst	0xc00e4100 ; undefined
   87cf4:	9e289d02 	.inst	0x9e289d02 ; undefined
   87cf8:	de4e0227 	.inst	0xde4e0227 ; undefined
   87cfc:	00000edd 	udf	#3805
   87d00:	0000001c 	udf	#28
   87d04:	00000344 	udf	#836
   87d08:	ffffa5ec 	.inst	0xffffa5ec ; undefined
   87d0c:	000001a0 	udf	#416
   87d10:	500e4100 	adr	x0, a4532 <bss_end+0x1b782>
   87d14:	099e0a9d 	.inst	0x099e0a9d ; undefined
   87d18:	ddde6602 	.inst	0xddde6602 ; undefined
   87d1c:	0000000e 	udf	#14
   87d20:	0000001c 	udf	#28
   87d24:	00000364 	udf	#868
   87d28:	ffffa76c 	.inst	0xffffa76c ; undefined
   87d2c:	0000009c 	udf	#156
   87d30:	300e4100 	adr	x0, a4551 <bss_end+0x1b7a1>
   87d34:	059e069d 	mov	z29.s, p14/z, #52
   87d38:	0eddde65 	.inst	0x0eddde65 ; undefined
   87d3c:	00000000 	udf	#0
   87d40:	0000001c 	udf	#28
   87d44:	00000384 	udf	#900
   87d48:	ffffa7e8 	.inst	0xffffa7e8 ; undefined
   87d4c:	00000158 	udf	#344
   87d50:	400e4100 	.inst	0x400e4100 ; undefined
   87d54:	079e089d 	.inst	0x079e089d ; undefined
   87d58:	ddde5402 	.inst	0xddde5402 ; undefined
   87d5c:	0000000e 	udf	#14
   87d60:	00000010 	udf	#16
   87d64:	000003a4 	udf	#932
   87d68:	ffffa920 	.inst	0xffffa920 ; undefined
   87d6c:	00000010 	udf	#16
   87d70:	00000000 	udf	#0
   87d74:	00000010 	udf	#16
   87d78:	000003b8 	udf	#952
   87d7c:	ffffa91c 	.inst	0xffffa91c ; undefined
   87d80:	00000010 	udf	#16
   87d84:	00000000 	udf	#0
   87d88:	00000014 	udf	#20
   87d8c:	000003cc 	udf	#972
   87d90:	ffffa918 	.inst	0xffffa918 ; undefined
   87d94:	00000010 	udf	#16
	...
   87da0:	0000001c 	udf	#28
   87da4:	000003e4 	udf	#996
   87da8:	ffffa910 	.inst	0xffffa910 ; undefined
   87dac:	00000108 	udf	#264
   87db0:	400e4100 	.inst	0x400e4100 ; undefined
   87db4:	079e089d 	.inst	0x079e089d ; undefined
   87db8:	ddde4002 	.inst	0xddde4002 ; undefined
   87dbc:	0000000e 	udf	#14
   87dc0:	0000001c 	udf	#28
   87dc4:	00000404 	udf	#1028
   87dc8:	ffffa9f8 	.inst	0xffffa9f8 ; undefined
   87dcc:	00000058 	udf	#88
   87dd0:	100e4100 	adr	x0, a45f0 <bss_end+0x1b840>
   87dd4:	019e029d 	.inst	0x019e029d ; undefined
   87dd8:	0eddde54 	.inst	0x0eddde54 ; undefined
   87ddc:	00000000 	udf	#0
   87de0:	0000001c 	udf	#28
   87de4:	00000424 	udf	#1060
   87de8:	ffffaa30 	.inst	0xffffaa30 ; undefined
   87dec:	00000144 	udf	#324
   87df0:	400e4100 	.inst	0x400e4100 ; undefined
   87df4:	079e089d 	.inst	0x079e089d ; undefined
   87df8:	ddde4f02 	.inst	0xddde4f02 ; undefined
   87dfc:	0000000e 	udf	#14
   87e00:	0000001c 	udf	#28
   87e04:	00000444 	udf	#1092
   87e08:	ffffab54 	.inst	0xffffab54 ; undefined
   87e0c:	00000088 	udf	#136
   87e10:	200e4100 	.inst	0x200e4100 ; undefined
   87e14:	039e049d 	.inst	0x039e049d ; undefined
   87e18:	0eddde60 	.inst	0x0eddde60 ; undefined
   87e1c:	00000000 	udf	#0
   87e20:	0000001c 	udf	#28
   87e24:	00000464 	udf	#1124
   87e28:	ffffabbc 	.inst	0xffffabbc ; undefined
   87e2c:	000000dc 	udf	#220
   87e30:	100e4100 	adr	x0, a4650 <bss_end+0x1b8a0>
   87e34:	019e029d 	.inst	0x019e029d ; undefined
   87e38:	0eddde75 	.inst	0x0eddde75 ; undefined
   87e3c:	00000000 	udf	#0
   87e40:	0000001c 	udf	#28
   87e44:	00000484 	udf	#1156
   87e48:	ffffac78 	.inst	0xffffac78 ; undefined
   87e4c:	0000001c 	udf	#28
   87e50:	100e4100 	adr	x0, a4670 <bss_end+0x1b8c0>
   87e54:	019e029d 	.inst	0x019e029d ; undefined
   87e58:	0eddde45 	.inst	0x0eddde45 ; undefined
   87e5c:	00000000 	udf	#0
   87e60:	00000010 	udf	#16
   87e64:	000004a4 	udf	#1188
   87e68:	ffffac74 	.inst	0xffffac74 ; undefined
   87e6c:	0000000c 	udf	#12
   87e70:	00000000 	udf	#0
   87e74:	00000014 	udf	#20
   87e78:	000004b8 	udf	#1208
   87e7c:	ffffac6c 	.inst	0xffffac6c ; undefined
   87e80:	00000048 	udf	#72
   87e84:	100e4100 	adr	x0, a46a4 <bss_end+0x1b8f4>
   87e88:	00000e50 	udf	#3664
   87e8c:	00000010 	udf	#16
   87e90:	000004d0 	udf	#1232
   87e94:	ffffac9c 	.inst	0xffffac9c ; undefined
   87e98:	00000010 	udf	#16
   87e9c:	00000000 	udf	#0
   87ea0:	0000001c 	udf	#28
   87ea4:	000004e4 	udf	#1252
   87ea8:	ffffac98 	.inst	0xffffac98 ; undefined
   87eac:	000000c4 	udf	#196
   87eb0:	200e4100 	.inst	0x200e4100 ; undefined
   87eb4:	039e049d 	.inst	0x039e049d ; undefined
   87eb8:	0eddde6f 	.inst	0x0eddde6f ; undefined
   87ebc:	00000000 	udf	#0
   87ec0:	0000001c 	udf	#28
   87ec4:	00000504 	udf	#1284
   87ec8:	ffffad3c 	.inst	0xffffad3c ; undefined
   87ecc:	000000bc 	udf	#188
   87ed0:	200e4100 	.inst	0x200e4100 ; undefined
   87ed4:	039e049d 	.inst	0x039e049d ; undefined
   87ed8:	0eddde6d 	.inst	0x0eddde6d ; undefined
   87edc:	00000000 	udf	#0
   87ee0:	00000010 	udf	#16
   87ee4:	00000524 	udf	#1316
   87ee8:	ffffadd8 	.inst	0xffffadd8 ; undefined
   87eec:	00000024 	udf	#36
   87ef0:	00000000 	udf	#0
   87ef4:	00000010 	udf	#16
   87ef8:	00000538 	udf	#1336
   87efc:	ffffade8 	.inst	0xffffade8 ; undefined
   87f00:	00000040 	udf	#64
   87f04:	00000000 	udf	#0
   87f08:	00000014 	udf	#20
   87f0c:	0000054c 	udf	#1356
   87f10:	ffffae14 	.inst	0xffffae14 ; undefined
   87f14:	000000b8 	udf	#184
   87f18:	100e4100 	adr	x0, a4738 <bss_end+0x1b988>
   87f1c:	00000e6c 	udf	#3692
   87f20:	00000014 	udf	#20
   87f24:	00000564 	udf	#1380
   87f28:	ffffaeb4 	.inst	0xffffaeb4 ; undefined
   87f2c:	000000b8 	udf	#184
	...
   87f38:	00000014 	udf	#20
   87f3c:	0000057c 	udf	#1404
   87f40:	ffffaf60 	.inst	0xffffaf60 ; undefined
   87f44:	000000a4 	udf	#164
   87f48:	200e4100 	.inst	0x200e4100 ; undefined
   87f4c:	00000e67 	udf	#3687
   87f50:	0000001c 	udf	#28
   87f54:	00000594 	udf	#1428
   87f58:	ffffafec 	.inst	0xffffafec ; undefined
   87f5c:	00000074 	udf	#116
   87f60:	300e4100 	adr	x0, a4781 <bss_end+0x1b9d1>
   87f64:	059e069d 	mov	z29.s, p14/z, #52
   87f68:	0eddde5b 	.inst	0x0eddde5b ; undefined
   87f6c:	00000000 	udf	#0
   87f70:	0000001c 	udf	#28
   87f74:	000005b4 	udf	#1460
   87f78:	ffffb040 	.inst	0xffffb040 ; undefined
   87f7c:	0000008c 	udf	#140
   87f80:	300e4100 	adr	x0, a47a1 <bss_end+0x1b9f1>
   87f84:	059e069d 	mov	z29.s, p14/z, #52
   87f88:	0eddde61 	.inst	0x0eddde61 ; undefined
   87f8c:	00000000 	udf	#0
   87f90:	00000024 	udf	#36
   87f94:	000005d4 	udf	#1492
   87f98:	ffffb0ac 	.inst	0xffffb0ac ; undefined
   87f9c:	000000dc 	udf	#220
   87fa0:	300e4100 	adr	x0, a47c1 <bss_end+0x1ba11>
   87fa4:	059e069d 	mov	z29.s, p14/z, #52
   87fa8:	73049342 	.inst	0x73049342 ; undefined
   87fac:	0ed3ddde 	.inst	0x0ed3ddde ; undefined
	...
   87fb8:	00000014 	udf	#20
   87fbc:	000005fc 	udf	#1532
   87fc0:	ffffb160 	.inst	0xffffb160 ; undefined
   87fc4:	000000e8 	udf	#232
   87fc8:	200e4100 	.inst	0x200e4100 ; undefined
   87fcc:	00000e78 	udf	#3704
   87fd0:	00000014 	udf	#20
   87fd4:	00000614 	udf	#1556
   87fd8:	ffffb230 	.inst	0xffffb230 ; undefined
   87fdc:	000000c4 	udf	#196
   87fe0:	200e4100 	.inst	0x200e4100 ; undefined
   87fe4:	00000e6f 	udf	#3695
   87fe8:	0000001c 	udf	#28
   87fec:	0000062c 	udf	#1580
   87ff0:	ffffb2dc 	.inst	0xffffb2dc ; undefined
   87ff4:	00000078 	udf	#120
   87ff8:	300e4100 	adr	x0, a4819 <bss_end+0x1ba69>
   87ffc:	059e069d 	mov	z29.s, p14/z, #52
   88000:	0eddde5c 	.inst	0x0eddde5c ; undefined
   88004:	00000000 	udf	#0
   88008:	0000001c 	udf	#28
   8800c:	0000064c 	udf	#1612
   88010:	ffffb334 	.inst	0xffffb334 ; undefined
   88014:	0000009c 	udf	#156
   88018:	300e4100 	adr	x0, a4839 <bss_end+0x1ba89>
   8801c:	059e069d 	mov	z29.s, p14/z, #52
   88020:	0eddde65 	.inst	0x0eddde65 ; undefined
   88024:	00000000 	udf	#0
   88028:	0000001c 	udf	#28
   8802c:	0000066c 	udf	#1644
   88030:	ffffb3b0 	.inst	0xffffb3b0 ; undefined
   88034:	00000150 	udf	#336
   88038:	300e4100 	adr	x0, a4859 <bss_end+0x1baa9>
   8803c:	059e069d 	mov	z29.s, p14/z, #52
   88040:	ddde5202 	.inst	0xddde5202 ; undefined
   88044:	0000000e 	udf	#14
   88048:	0000001c 	udf	#28
   8804c:	0000068c 	udf	#1676
   88050:	ffffb4e0 	.inst	0xffffb4e0 ; undefined
   88054:	00000190 	udf	#400
   88058:	300e4100 	adr	x0, a4879 <bss_end+0x1bac9>
   8805c:	059e069d 	mov	z29.s, p14/z, #52
   88060:	ddde6202 	.inst	0xddde6202 ; undefined
   88064:	0000000e 	udf	#14
   88068:	0000001c 	udf	#28
   8806c:	000006ac 	udf	#1708
   88070:	ffffb650 	.inst	0xffffb650 ; undefined
   88074:	00000190 	udf	#400
   88078:	200e4100 	.inst	0x200e4100 ; undefined
   8807c:	039e049d 	.inst	0x039e049d ; undefined
   88080:	ddde6202 	.inst	0xddde6202 ; undefined
   88084:	0000000e 	udf	#14
   88088:	0000001c 	udf	#28
   8808c:	000006cc 	udf	#1740
   88090:	ffffb7c0 	.inst	0xffffb7c0 ; undefined
   88094:	00000104 	udf	#260
   88098:	300e4100 	adr	x0, a48b9 <bss_end+0x1bb09>
   8809c:	059e069d 	mov	z29.s, p14/z, #52
   880a0:	0eddde7f 	.inst	0x0eddde7f ; undefined
   880a4:	00000000 	udf	#0
   880a8:	0000001c 	udf	#28
   880ac:	000006ec 	udf	#1772
   880b0:	ffffb8a4 	.inst	0xffffb8a4 ; undefined
   880b4:	000000c8 	udf	#200
   880b8:	300e4100 	adr	x0, a48d9 <bss_end+0x1bb29>
   880bc:	059e069d 	mov	z29.s, p14/z, #52
   880c0:	0eddde70 	.inst	0x0eddde70 ; undefined
   880c4:	00000000 	udf	#0
   880c8:	0000001c 	udf	#28
   880cc:	0000070c 	udf	#1804
   880d0:	ffffb94c 	.inst	0xffffb94c ; undefined
   880d4:	00000178 	udf	#376
   880d8:	400e4100 	.inst	0x400e4100 ; undefined
   880dc:	079e089d 	.inst	0x079e089d ; undefined
   880e0:	ddde5c02 	.inst	0xddde5c02 ; undefined
   880e4:	0000000e 	udf	#14
   880e8:	00000014 	udf	#20
   880ec:	0000072c 	udf	#1836
   880f0:	ffffbaa4 	.inst	0xffffbaa4 ; undefined
   880f4:	000000e8 	udf	#232
   880f8:	200e4100 	.inst	0x200e4100 ; undefined
   880fc:	00000e78 	udf	#3704
   88100:	00000014 	udf	#20
   88104:	00000744 	udf	#1860
   88108:	ffffbb74 	.inst	0xffffbb74 ; undefined
   8810c:	00000034 	udf	#52
   88110:	100e4100 	adr	x0, a4930 <bss_end+0x1bb80>
   88114:	00000e4b 	udf	#3659
   88118:	00000014 	udf	#20
   8811c:	0000075c 	udf	#1884
   88120:	ffffbb90 	.inst	0xffffbb90 ; undefined
   88124:	00000034 	udf	#52
   88128:	200e4100 	.inst	0x200e4100 ; undefined
   8812c:	00000e4b 	udf	#3659
   88130:	0000001c 	udf	#28
   88134:	00000774 	udf	#1908
   88138:	ffffbbac 	.inst	0xffffbbac ; undefined
   8813c:	00000144 	udf	#324
   88140:	400e4100 	.inst	0x400e4100 ; undefined
   88144:	079e089d 	.inst	0x079e089d ; undefined
   88148:	ddde4f02 	.inst	0xddde4f02 ; undefined
   8814c:	0000000e 	udf	#14
   88150:	0000001c 	udf	#28
   88154:	00000794 	udf	#1940
   88158:	ffffbcd0 	.inst	0xffffbcd0 ; undefined
   8815c:	00000054 	udf	#84
   88160:	200e4100 	.inst	0x200e4100 ; undefined
   88164:	039e049d 	.inst	0x039e049d ; undefined
   88168:	0eddde53 	.inst	0x0eddde53 ; undefined
   8816c:	00000000 	udf	#0
   88170:	0000001c 	udf	#28
   88174:	000007b4 	udf	#1972
   88178:	ffffbd04 	.inst	0xffffbd04 ; undefined
   8817c:	000000d4 	udf	#212
   88180:	400e4100 	.inst	0x400e4100 ; undefined
   88184:	079e089d 	.inst	0x079e089d ; undefined
   88188:	0eddde73 	.inst	0x0eddde73 ; undefined
   8818c:	00000000 	udf	#0
   88190:	00000014 	udf	#20
   88194:	000007d4 	udf	#2004
   88198:	ffffbdb8 	.inst	0xffffbdb8 ; undefined
   8819c:	000000bc 	udf	#188
   881a0:	300e4100 	adr	x0, a49c1 <bss_end+0x1bc11>
   881a4:	00000e6d 	udf	#3693
   881a8:	0000001c 	udf	#28
   881ac:	000007ec 	udf	#2028
   881b0:	ffffbe5c 	.inst	0xffffbe5c ; undefined
   881b4:	00000028 	udf	#40
   881b8:	300e4100 	adr	x0, a49d9 <bss_end+0x1bc29>
   881bc:	059e069d 	mov	z29.s, p14/z, #52
   881c0:	0eddde48 	.inst	0x0eddde48 ; undefined
   881c4:	00000000 	udf	#0
   881c8:	0000001c 	udf	#28
   881cc:	0000080c 	udf	#2060
   881d0:	ffffbe64 	.inst	0xffffbe64 ; undefined
   881d4:	00000028 	udf	#40
   881d8:	200e4100 	.inst	0x200e4100 ; undefined
   881dc:	039e049d 	.inst	0x039e049d ; undefined
   881e0:	0eddde48 	.inst	0x0eddde48 ; undefined
   881e4:	00000000 	udf	#0
   881e8:	0000001c 	udf	#28
   881ec:	0000082c 	udf	#2092
   881f0:	ffffbe6c 	.inst	0xffffbe6c ; undefined
   881f4:	00000078 	udf	#120
   881f8:	400e4100 	.inst	0x400e4100 ; undefined
   881fc:	079e089d 	.inst	0x079e089d ; undefined
   88200:	0eddde5c 	.inst	0x0eddde5c ; undefined
   88204:	00000000 	udf	#0
   88208:	0000001c 	udf	#28
   8820c:	0000084c 	udf	#2124
   88210:	ffffbec4 	.inst	0xffffbec4 ; undefined
   88214:	0000007c 	udf	#124
   88218:	300e4100 	adr	x0, a4a39 <bss_end+0x1bc89>
   8821c:	059e069d 	mov	z29.s, p14/z, #52
   88220:	0eddde5d 	.inst	0x0eddde5d ; undefined
   88224:	00000000 	udf	#0
   88228:	00000014 	udf	#20
   8822c:	0000086c 	udf	#2156
   88230:	ffffbf20 	.inst	0xffffbf20 ; undefined
   88234:	00000034 	udf	#52
   88238:	100e4100 	adr	x0, a4a58 <bss_end+0x1bca8>
   8823c:	00000e4b 	udf	#3659
   88240:	0000001c 	udf	#28
   88244:	00000884 	udf	#2180
   88248:	ffffbf3c 	.inst	0xffffbf3c ; undefined
   8824c:	00000128 	udf	#296
   88250:	200e4100 	.inst	0x200e4100 ; undefined
   88254:	039e049d 	.inst	0x039e049d ; undefined
   88258:	ddde4802 	.inst	0xddde4802 ; undefined
   8825c:	0000000e 	udf	#14
   88260:	00000014 	udf	#20
   88264:	000008a4 	udf	#2212
   88268:	ffffc044 	.inst	0xffffc044 ; undefined
   8826c:	00000054 	udf	#84
   88270:	100e4100 	adr	x0, a4a90 <bss_end+0x1bce0>
   88274:	00000e53 	udf	#3667
   88278:	00000014 	udf	#20
   8827c:	000008bc 	udf	#2236
   88280:	ffffc080 	.inst	0xffffc080 ; undefined
   88284:	00000044 	udf	#68
   88288:	100e4100 	adr	x0, a4aa8 <bss_end+0x1bcf8>
   8828c:	00000e4f 	udf	#3663
   88290:	0000001c 	udf	#28
   88294:	000008d4 	udf	#2260
   88298:	ffffc0ac 	.inst	0xffffc0ac ; undefined
   8829c:	0000005c 	udf	#92
   882a0:	200e4100 	.inst	0x200e4100 ; undefined
   882a4:	039e049d 	.inst	0x039e049d ; undefined
   882a8:	0eddde55 	.inst	0x0eddde55 ; undefined
   882ac:	00000000 	udf	#0
   882b0:	0000001c 	udf	#28
   882b4:	000008f4 	udf	#2292
   882b8:	ffffc0e8 	.inst	0xffffc0e8 ; undefined
   882bc:	00000034 	udf	#52
   882c0:	200e4100 	.inst	0x200e4100 ; undefined
   882c4:	039e049d 	.inst	0x039e049d ; undefined
   882c8:	0eddde4b 	.inst	0x0eddde4b ; undefined
   882cc:	00000000 	udf	#0
   882d0:	0000001c 	udf	#28
   882d4:	00000914 	udf	#2324
   882d8:	ffffc0fc 	.inst	0xffffc0fc ; undefined
   882dc:	0000007c 	udf	#124
   882e0:	300e4100 	adr	x0, a4b01 <bss_end+0x1bd51>
   882e4:	059e069d 	mov	z29.s, p14/z, #52
   882e8:	0eddde5d 	.inst	0x0eddde5d ; undefined
   882ec:	00000000 	udf	#0
   882f0:	0000001c 	udf	#28
   882f4:	00000934 	udf	#2356
   882f8:	ffffc158 	.inst	0xffffc158 ; undefined
   882fc:	0000007c 	udf	#124
   88300:	300e4100 	adr	x0, a4b21 <bss_end+0x1bd71>
   88304:	059e069d 	mov	z29.s, p14/z, #52
   88308:	0eddde5d 	.inst	0x0eddde5d ; undefined
   8830c:	00000000 	udf	#0
   88310:	0000001c 	udf	#28
   88314:	00000954 	udf	#2388
   88318:	ffffc1b4 	.inst	0xffffc1b4 ; undefined
   8831c:	00000194 	udf	#404
   88320:	400e4100 	.inst	0x400e4100 ; undefined
   88324:	079e089d 	.inst	0x079e089d ; undefined
   88328:	ddde6302 	.inst	0xddde6302 ; undefined
   8832c:	0000000e 	udf	#14
   88330:	00000014 	udf	#20
   88334:	00000974 	udf	#2420
   88338:	ffffc328 	.inst	0xffffc328 ; undefined
   8833c:	000000a0 	udf	#160
   88340:	100e4100 	adr	x0, a4b60 <bss_end+0x1bdb0>
   88344:	00000e66 	udf	#3686
   88348:	00000014 	udf	#20
   8834c:	0000098c 	udf	#2444
   88350:	ffffc3b0 	.inst	0xffffc3b0 ; undefined
   88354:	000000d0 	udf	#208
   88358:	200e4100 	.inst	0x200e4100 ; undefined
   8835c:	00000e72 	udf	#3698
   88360:	00000014 	udf	#20
   88364:	000009a4 	udf	#2468
   88368:	ffffc468 	.inst	0xffffc468 ; undefined
   8836c:	000000d4 	udf	#212
   88370:	100e4100 	adr	x0, a4b90 <bss_end+0x1bde0>
   88374:	00000e73 	udf	#3699
   88378:	0000001c 	udf	#28
   8837c:	000009bc 	udf	#2492
   88380:	ffffc524 	.inst	0xffffc524 ; undefined
   88384:	00000120 	udf	#288
   88388:	300e4100 	adr	x0, a4ba9 <bss_end+0x1bdf9>
   8838c:	059e069d 	mov	z29.s, p14/z, #52
   88390:	ddde4602 	.inst	0xddde4602 ; undefined
   88394:	0000000e 	udf	#14
   88398:	0000001c 	udf	#28
   8839c:	000009dc 	udf	#2524
   883a0:	ffffc624 	.inst	0xffffc624 ; undefined
   883a4:	00000100 	udf	#256
   883a8:	900e4100 	adrp	x0, 1c8a8000 <bss_end+0x1c81f250>
   883ac:	429d4104 	.inst	0x429d4104 ; undefined
   883b0:	dd7d419e 	.inst	0xdd7d419e ; undefined
   883b4:	00000ede 	udf	#3806
   883b8:	00000018 	udf	#24
   883bc:	000009fc 	udf	#2556
   883c0:	ffffc704 	.inst	0xffffc704 ; undefined
   883c4:	000000c4 	udf	#196
   883c8:	f00e4100 	adrp	x0, 1c8ab000 <bss_end+0x1c822250>
   883cc:	9e2e9d02 	.inst	0x9e2e9d02 ; undefined
   883d0:	0000002d 	udf	#45
   883d4:	00000020 	udf	#32
   883d8:	00000a18 	udf	#2584
   883dc:	ffffc7ac 	.inst	0xffffc7ac ; undefined
   883e0:	000000fc 	udf	#252
   883e4:	300e4100 	adr	x0, a4c05 <bss_end+0x1be55>
   883e8:	059e069d 	mov	z29.s, p14/z, #52
   883ec:	0eddde7d 	.inst	0x0eddde7d ; undefined
	...
   883f8:	00000014 	udf	#20
   883fc:	00000a3c 	udf	#2620
   88400:	ffffc884 	.inst	0xffffc884 ; undefined
   88404:	00000040 	udf	#64
   88408:	200e4100 	.inst	0x200e4100 ; undefined
   8840c:	00000e4e 	udf	#3662
   88410:	00000014 	udf	#20
   88414:	00000a54 	udf	#2644
   88418:	ffffc8ac 	.inst	0xffffc8ac ; undefined
   8841c:	00000094 	udf	#148
   88420:	100e4100 	adr	x0, a4c40 <bss_end+0x1be90>
   88424:	00000e63 	udf	#3683
   88428:	00000014 	udf	#20
   8842c:	00000a6c 	udf	#2668
   88430:	ffffc928 	.inst	0xffffc928 ; undefined
   88434:	00000068 	udf	#104
   88438:	100e4100 	adr	x0, a4c58 <bss_end+0x1bea8>
   8843c:	00000e58 	udf	#3672
   88440:	0000001c 	udf	#28
   88444:	00000a84 	udf	#2692
   88448:	ffffc978 	.inst	0xffffc978 ; undefined
   8844c:	0000004c 	udf	#76
   88450:	300e4100 	adr	x0, a4c71 <bss_end+0x1bec1>
   88454:	059e069d 	mov	z29.s, p14/z, #52
   88458:	0eddde51 	.inst	0x0eddde51 ; undefined
   8845c:	00000000 	udf	#0
   88460:	00000014 	udf	#20
   88464:	00000aa4 	udf	#2724
   88468:	ffffc9a4 	.inst	0xffffc9a4 ; undefined
   8846c:	00000134 	udf	#308
   88470:	300e4100 	adr	x0, a4c91 <bss_end+0x1bee1>
   88474:	000e4b02 	.inst	0x000e4b02 ; undefined
   88478:	00000014 	udf	#20
   8847c:	00000abc 	udf	#2748
   88480:	ffffcac0 	.inst	0xffffcac0 ; undefined
   88484:	000000b0 	udf	#176
   88488:	400e4100 	.inst	0x400e4100 ; undefined
   8848c:	00000e6a 	udf	#3690
   88490:	00000014 	udf	#20
   88494:	00000ad4 	udf	#2772
   88498:	ffffcb58 	.inst	0xffffcb58 ; undefined
   8849c:	00000060 	udf	#96
   884a0:	200e4100 	.inst	0x200e4100 ; undefined
   884a4:	00000e56 	udf	#3670
   884a8:	00000014 	udf	#20
   884ac:	00000aec 	udf	#2796
   884b0:	ffffcba0 	.inst	0xffffcba0 ; undefined
   884b4:	00000108 	udf	#264
   884b8:	200e4100 	.inst	0x200e4100 ; undefined
   884bc:	000e4002 	.inst	0x000e4002 ; undefined
   884c0:	0000001c 	udf	#28
   884c4:	00000b04 	udf	#2820
   884c8:	ffffcc90 	.inst	0xffffcc90 ; undefined
   884cc:	000000e8 	udf	#232
   884d0:	300e4100 	adr	x0, a4cf1 <bss_end+0x1bf41>
   884d4:	059e069d 	mov	z29.s, p14/z, #52
   884d8:	0eddde78 	.inst	0x0eddde78 ; undefined
   884dc:	00000000 	udf	#0
   884e0:	00000014 	udf	#20
   884e4:	00000b24 	udf	#2852
   884e8:	ffffcd58 	.inst	0xffffcd58 ; undefined
   884ec:	00000064 	udf	#100
   884f0:	200e4100 	.inst	0x200e4100 ; undefined
   884f4:	00000e57 	udf	#3671
   884f8:	0000001c 	udf	#28
   884fc:	00000b3c 	udf	#2876
   88500:	ffffcda4 	.inst	0xffffcda4 ; undefined
   88504:	00000020 	udf	#32
   88508:	200e4100 	.inst	0x200e4100 ; undefined
   8850c:	039e049d 	.inst	0x039e049d ; undefined
   88510:	0eddde46 	.inst	0x0eddde46 ; undefined
   88514:	00000000 	udf	#0
   88518:	00000020 	udf	#32
   8851c:	00000b5c 	udf	#2908
   88520:	ffffcda4 	.inst	0xffffcda4 ; undefined
   88524:	00000060 	udf	#96
   88528:	400e4100 	.inst	0x400e4100 ; undefined
   8852c:	079e089d 	.inst	0x079e089d ; undefined
   88530:	54069342 	b.cs	95798 <bss_end+0xc9e8>  // b.hs, b.nlast
   88534:	0ed3ddde 	.inst	0x0ed3ddde ; undefined
   88538:	00000000 	udf	#0
   8853c:	0000001c 	udf	#28
   88540:	00000b80 	udf	#2944
   88544:	ffffcde0 	.inst	0xffffcde0 ; undefined
   88548:	00000054 	udf	#84
   8854c:	300e4100 	adr	x0, a4d6d <bss_end+0x1bfbd>
   88550:	059e069d 	mov	z29.s, p14/z, #52
   88554:	0eddde53 	.inst	0x0eddde53 ; undefined
   88558:	00000000 	udf	#0
   8855c:	0000001c 	udf	#28
   88560:	00000ba0 	udf	#2976
   88564:	ffffce14 	.inst	0xffffce14 ; undefined
   88568:	000000d8 	udf	#216
   8856c:	500e4100 	adr	x0, a4d8e <bss_end+0x1bfde>
   88570:	099e0a9d 	.inst	0x099e0a9d ; undefined
   88574:	0eddde74 	.inst	0x0eddde74 ; undefined
   88578:	00000000 	udf	#0
   8857c:	00000014 	udf	#20
   88580:	00000bc0 	udf	#3008
   88584:	ffffcecc 	.inst	0xffffcecc ; undefined
   88588:	00000028 	udf	#40
   8858c:	200e4100 	.inst	0x200e4100 ; undefined
   88590:	00000e48 	udf	#3656
   88594:	0000001c 	udf	#28
   88598:	00000bd8 	udf	#3032
   8859c:	ffffcedc 	.inst	0xffffcedc ; undefined
   885a0:	000001c8 	udf	#456
   885a4:	600e4100 	.inst	0x600e4100 ; undefined
   885a8:	0b9e0c9d 	add	w29, w4, w30, asr #3
   885ac:	ddde7002 	.inst	0xddde7002 ; undefined
   885b0:	0000000e 	udf	#14
   885b4:	0000001c 	udf	#28
   885b8:	00000bf8 	udf	#3064
   885bc:	ffffd084 	.inst	0xffffd084 ; undefined
   885c0:	00000024 	udf	#36
   885c4:	200e4100 	.inst	0x200e4100 ; undefined
   885c8:	039e049d 	.inst	0x039e049d ; undefined
   885cc:	0eddde47 	.inst	0x0eddde47 ; undefined
   885d0:	00000000 	udf	#0
   885d4:	0000001c 	udf	#28
   885d8:	00000c18 	udf	#3096
   885dc:	ffffd088 	.inst	0xffffd088 ; undefined
   885e0:	0000001c 	udf	#28
   885e4:	200e4100 	.inst	0x200e4100 ; undefined
   885e8:	039e049d 	.inst	0x039e049d ; undefined
   885ec:	0eddde45 	.inst	0x0eddde45 ; undefined
   885f0:	00000000 	udf	#0
   885f4:	0000001c 	udf	#28
   885f8:	00000c38 	udf	#3128
   885fc:	ffffd084 	.inst	0xffffd084 ; undefined
   88600:	00000020 	udf	#32
   88604:	200e4100 	.inst	0x200e4100 ; undefined
   88608:	039e049d 	.inst	0x039e049d ; undefined
   8860c:	0eddde46 	.inst	0x0eddde46 ; undefined
   88610:	00000000 	udf	#0
   88614:	00000014 	udf	#20
   88618:	00000c58 	udf	#3160
   8861c:	ffffd084 	.inst	0xffffd084 ; undefined
   88620:	00000020 	udf	#32
   88624:	100e4100 	adr	x0, a4e44 <bss_end+0x1c094>
   88628:	00000e46 	udf	#3654
   8862c:	00000014 	udf	#20
   88630:	00000c70 	udf	#3184
   88634:	ffffd08c 	.inst	0xffffd08c ; undefined
   88638:	00000020 	udf	#32
   8863c:	100e4100 	adr	x0, a4e5c <bss_end+0x1c0ac>
   88640:	00000e46 	udf	#3654
   88644:	00000014 	udf	#20
   88648:	00000c88 	udf	#3208
   8864c:	ffffd094 	.inst	0xffffd094 ; undefined
   88650:	0000001c 	udf	#28
   88654:	100e4100 	adr	x0, a4e74 <bss_end+0x1c0c4>
   88658:	00000e45 	udf	#3653
   8865c:	0000001c 	udf	#28
   88660:	00000ca0 	udf	#3232
   88664:	ffffd098 	.inst	0xffffd098 ; undefined
   88668:	00000084 	udf	#132
   8866c:	200e4100 	.inst	0x200e4100 ; undefined
   88670:	039e049d 	.inst	0x039e049d ; undefined
   88674:	0eddde5f 	.inst	0x0eddde5f ; undefined
   88678:	00000000 	udf	#0
   8867c:	0000001c 	udf	#28
   88680:	00000cc0 	udf	#3264
   88684:	ffffd0fc 	.inst	0xffffd0fc ; undefined
   88688:	0000022c 	udf	#556
   8868c:	300e4100 	adr	x0, a4ead <bss_end+0x1c0fd>
   88690:	059e069d 	mov	z29.s, p14/z, #52
   88694:	ddde8902 	.inst	0xddde8902 ; undefined
   88698:	0000000e 	udf	#14
   8869c:	00000020 	udf	#32
   886a0:	00000ce0 	udf	#3296
   886a4:	ffffd308 	.inst	0xffffd308 ; undefined
   886a8:	00000028 	udf	#40
   886ac:	200e4100 	.inst	0x200e4100 ; undefined
   886b0:	039e049d 	.inst	0x039e049d ; undefined
   886b4:	0eddde48 	.inst	0x0eddde48 ; undefined
	...
   886c0:	00000014 	udf	#20
   886c4:	00000d04 	udf	#3332
   886c8:	ffffd30c 	.inst	0xffffd30c ; undefined
   886cc:	00000098 	udf	#152
   886d0:	100e4100 	adr	x0, a4ef0 <bss_end+0x1c140>
   886d4:	00000e64 	udf	#3684
   886d8:	00000014 	udf	#20
   886dc:	00000d1c 	udf	#3356
   886e0:	ffffd38c 	.inst	0xffffd38c ; undefined
   886e4:	00000090 	udf	#144
   886e8:	200e4100 	.inst	0x200e4100 ; undefined
   886ec:	00000e62 	udf	#3682
   886f0:	00000014 	udf	#20
   886f4:	00000d34 	udf	#3380
   886f8:	ffffd404 	.inst	0xffffd404 ; undefined
   886fc:	00000074 	udf	#116
   88700:	100e4100 	adr	x0, a4f20 <bss_end+0x1c170>
   88704:	00000e5b 	udf	#3675
   88708:	00000014 	udf	#20
   8870c:	00000d4c 	udf	#3404
   88710:	ffffd460 	.inst	0xffffd460 ; undefined
   88714:	00000028 	udf	#40
   88718:	100e4100 	adr	x0, a4f38 <bss_end+0x1c188>
   8871c:	00000e48 	udf	#3656
   88720:	0000001c 	udf	#28
   88724:	00000d64 	udf	#3428
   88728:	ffffd470 	.inst	0xffffd470 ; undefined
   8872c:	00000070 	udf	#112
   88730:	300e4100 	adr	x0, a4f51 <bss_end+0x1c1a1>
   88734:	059e069d 	mov	z29.s, p14/z, #52
   88738:	0eddde5a 	.inst	0x0eddde5a ; undefined
   8873c:	00000000 	udf	#0
   88740:	0000001c 	udf	#28
   88744:	00000d84 	udf	#3460
   88748:	ffffd4c0 	.inst	0xffffd4c0 ; undefined
   8874c:	00000040 	udf	#64
   88750:	100e4100 	adr	x0, a4f70 <bss_end+0x1c1c0>
   88754:	019e029d 	.inst	0x019e029d ; undefined
   88758:	0eddde4e 	.inst	0x0eddde4e ; undefined
   8875c:	00000000 	udf	#0
   88760:	0000001c 	udf	#28
   88764:	00000da4 	udf	#3492
   88768:	ffffd4e0 	.inst	0xffffd4e0 ; undefined
   8876c:	000000c4 	udf	#196
   88770:	300e4100 	adr	x0, a4f91 <bss_end+0x1c1e1>
   88774:	059e069d 	mov	z29.s, p14/z, #52
   88778:	0eddde6f 	.inst	0x0eddde6f ; undefined
   8877c:	00000000 	udf	#0
   88780:	0000001c 	udf	#28
   88784:	00000dc4 	udf	#3524
   88788:	ffffd584 	.inst	0xffffd584 ; undefined
   8878c:	00000064 	udf	#100
   88790:	200e4100 	.inst	0x200e4100 ; undefined
   88794:	039e049d 	.inst	0x039e049d ; undefined
   88798:	0eddde57 	.inst	0x0eddde57 ; undefined
   8879c:	00000000 	udf	#0
   887a0:	00000014 	udf	#20
   887a4:	00000de4 	udf	#3556
   887a8:	ffffd5c8 	.inst	0xffffd5c8 ; undefined
   887ac:	00000014 	udf	#20
   887b0:	100e4100 	adr	x0, a4fd0 <bss_end+0x1c220>
   887b4:	019e029d 	.inst	0x019e029d ; undefined
   887b8:	0000001c 	udf	#28
   887bc:	00000dfc 	udf	#3580
   887c0:	ffffd5c4 	.inst	0xffffd5c4 ; undefined
   887c4:	00000060 	udf	#96
   887c8:	200e4100 	.inst	0x200e4100 ; undefined
   887cc:	039e049d 	.inst	0x039e049d ; undefined
   887d0:	0eddde56 	.inst	0x0eddde56 ; undefined
   887d4:	00000000 	udf	#0
   887d8:	0000001c 	udf	#28
   887dc:	00000e1c 	udf	#3612
   887e0:	ffffd604 	.inst	0xffffd604 ; undefined
   887e4:	00000060 	udf	#96
   887e8:	200e4100 	.inst	0x200e4100 ; undefined
   887ec:	039e049d 	.inst	0x039e049d ; undefined
   887f0:	0eddde56 	.inst	0x0eddde56 ; undefined
   887f4:	00000000 	udf	#0
   887f8:	0000001c 	udf	#28
   887fc:	00000e3c 	udf	#3644
   88800:	ffffd644 	.inst	0xffffd644 ; undefined
   88804:	0000008c 	udf	#140
   88808:	300e4100 	adr	x0, a5029 <bss_end+0x1c279>
   8880c:	059e069d 	mov	z29.s, p14/z, #52
   88810:	0eddde61 	.inst	0x0eddde61 ; undefined
   88814:	00000000 	udf	#0
   88818:	0000001c 	udf	#28
   8881c:	00000e5c 	udf	#3676
   88820:	ffffd6b0 	.inst	0xffffd6b0 ; undefined
   88824:	00000018 	udf	#24
   88828:	100e4100 	adr	x0, a5048 <bss_end+0x1c298>
   8882c:	019e029d 	.inst	0x019e029d ; undefined
   88830:	0eddde44 	.inst	0x0eddde44 ; undefined
   88834:	00000000 	udf	#0
   88838:	0000001c 	udf	#28
   8883c:	00000e7c 	udf	#3708
   88840:	ffffd6a8 	.inst	0xffffd6a8 ; undefined
   88844:	00000044 	udf	#68
   88848:	200e4100 	.inst	0x200e4100 ; undefined
   8884c:	039e049d 	.inst	0x039e049d ; undefined
   88850:	0eddde4f 	.inst	0x0eddde4f ; undefined
   88854:	00000000 	udf	#0
   88858:	0000001c 	udf	#28
   8885c:	00000e9c 	udf	#3740
   88860:	ffffd6cc 	.inst	0xffffd6cc ; undefined
   88864:	0000009c 	udf	#156
   88868:	200e4100 	.inst	0x200e4100 ; undefined
   8886c:	039e049d 	.inst	0x039e049d ; undefined
   88870:	0eddde65 	.inst	0x0eddde65 ; undefined
   88874:	00000000 	udf	#0
   88878:	0000001c 	udf	#28
   8887c:	00000ebc 	udf	#3772
   88880:	ffffd748 	.inst	0xffffd748 ; undefined
   88884:	00000044 	udf	#68
   88888:	200e4100 	.inst	0x200e4100 ; undefined
   8888c:	039e049d 	.inst	0x039e049d ; undefined
   88890:	0eddde4f 	.inst	0x0eddde4f ; undefined
   88894:	00000000 	udf	#0
   88898:	00000020 	udf	#32
   8889c:	00000edc 	udf	#3804
   888a0:	ffffd76c 	.inst	0xffffd76c ; undefined
   888a4:	00000028 	udf	#40
   888a8:	200e4100 	.inst	0x200e4100 ; undefined
   888ac:	039e049d 	.inst	0x039e049d ; undefined
   888b0:	46029342 	.inst	0x46029342 ; undefined
   888b4:	0ed3ddde 	.inst	0x0ed3ddde ; undefined
   888b8:	00000000 	udf	#0
   888bc:	00000014 	udf	#20
   888c0:	00000f00 	udf	#3840
   888c4:	ffffd770 	.inst	0xffffd770 ; undefined
   888c8:	00000018 	udf	#24
   888cc:	100e4100 	adr	x0, a50ec <bss_end+0x1c33c>
   888d0:	00000e44 	udf	#3652
   888d4:	00000014 	udf	#20
   888d8:	00000f18 	udf	#3864
   888dc:	ffffd770 	.inst	0xffffd770 ; undefined
   888e0:	00000018 	udf	#24
   888e4:	100e4100 	adr	x0, a5104 <bss_end+0x1c354>
   888e8:	00000e44 	udf	#3652
   888ec:	0000001c 	udf	#28
   888f0:	00000f30 	udf	#3888
   888f4:	ffffd770 	.inst	0xffffd770 ; undefined
   888f8:	0000004c 	udf	#76
   888fc:	300e4100 	adr	x0, a511d <bss_end+0x1c36d>
   88900:	059e069d 	mov	z29.s, p14/z, #52
   88904:	0eddde51 	.inst	0x0eddde51 ; undefined
   88908:	00000000 	udf	#0
   8890c:	0000001c 	udf	#28
   88910:	00000f50 	udf	#3920
   88914:	ffffd79c 	.inst	0xffffd79c ; undefined
   88918:	00000124 	udf	#292
   8891c:	500e4100 	adr	x0, a513e <bss_end+0x1c38e>
   88920:	099e0a9d 	.inst	0x099e0a9d ; undefined
   88924:	ddde4702 	.inst	0xddde4702 ; undefined
   88928:	0000000e 	udf	#14
   8892c:	0000001c 	udf	#28
   88930:	00000f70 	udf	#3952
   88934:	ffffd8a0 	.inst	0xffffd8a0 ; undefined
   88938:	00000040 	udf	#64
   8893c:	300e4100 	adr	x0, a515d <bss_end+0x1c3ad>
   88940:	059e069d 	mov	z29.s, p14/z, #52
   88944:	0eddde4e 	.inst	0x0eddde4e ; undefined
   88948:	00000000 	udf	#0

Disassembly of section .got:

0000000000088950 <_GLOBAL_OFFSET_TABLE_>:
	...
   88958:	00088c70 	.inst	0x00088c70 ; undefined
   8895c:	00000000 	udf	#0
   88960:	00088d78 	.inst	0x00088d78 ; undefined
   88964:	00000000 	udf	#0
   88968:	00088d70 	.inst	0x00088d70 ; undefined
   8896c:	00000000 	udf	#0
   88970:	00088db0 	.inst	0x00088db0 ; undefined
   88974:	00000000 	udf	#0
   88978:	00088db0 	.inst	0x00088db0 ; undefined
   8897c:	00000000 	udf	#0
   88980:	00082494 	.inst	0x00082494 ; undefined
   88984:	00000000 	udf	#0
   88988:	00088d7c 	.inst	0x00088d7c ; undefined
   8898c:	00000000 	udf	#0
   88990:	00088ab0 	.inst	0x00088ab0 ; undefined
   88994:	00000000 	udf	#0
   88998:	000889d0 	.inst	0x000889d0 ; undefined
   8899c:	00000000 	udf	#0
   889a0:	00088b70 	.inst	0x00088b70 ; undefined
   889a4:	00000000 	udf	#0
   889a8:	00080000 	.inst	0x00080000 ; undefined
   889ac:	00000000 	udf	#0
   889b0:	00088da8 	.inst	0x00088da8 ; undefined
   889b4:	00000000 	udf	#0

Disassembly of section .got.plt:

00000000000889b8 <.got.plt>:
	...

Disassembly of section .data.rel.local:

00000000000889d0 <commands>:
   889d0:	00087340 	.inst	0x00087340 ; undefined
   889d4:	00000000 	udf	#0
   889d8:	00087348 	.inst	0x00087348 ; undefined
   889dc:	00000000 	udf	#0
   889e0:	00081400 	.inst	0x00081400 ; undefined
   889e4:	00000000 	udf	#0
   889e8:	00087368 	.inst	0x00087368 ; undefined
   889ec:	00000000 	udf	#0
   889f0:	00087370 	.inst	0x00087370 ; undefined
   889f4:	00000000 	udf	#0
   889f8:	0008149c 	.inst	0x0008149c ; undefined
   889fc:	00000000 	udf	#0
   88a00:	00087388 	.inst	0x00087388 ; undefined
   88a04:	00000000 	udf	#0
   88a08:	00087390 	.inst	0x00087390 ; undefined
   88a0c:	00000000 	udf	#0
   88a10:	000814c0 	.inst	0x000814c0 ; undefined
   88a14:	00000000 	udf	#0
   88a18:	000873b0 	.inst	0x000873b0 ; undefined
   88a1c:	00000000 	udf	#0
   88a20:	000873b8 	.inst	0x000873b8 ; undefined
   88a24:	00000000 	udf	#0
   88a28:	000814e0 	.inst	0x000814e0 ; undefined
   88a2c:	00000000 	udf	#0
   88a30:	000873d0 	.inst	0x000873d0 ; undefined
   88a34:	00000000 	udf	#0
   88a38:	000873d8 	.inst	0x000873d8 ; undefined
   88a3c:	00000000 	udf	#0
   88a40:	0008151c 	.inst	0x0008151c ; undefined
   88a44:	00000000 	udf	#0
   88a48:	000873f0 	.inst	0x000873f0 ; undefined
   88a4c:	00000000 	udf	#0
   88a50:	000873f8 	.inst	0x000873f8 ; undefined
   88a54:	00000000 	udf	#0
   88a58:	00081538 	.inst	0x00081538 ; undefined
   88a5c:	00000000 	udf	#0
   88a60:	00087418 	.inst	0x00087418 ; undefined
   88a64:	00000000 	udf	#0
   88a68:	00087420 	.inst	0x00087420 ; undefined
   88a6c:	00000000 	udf	#0
   88a70:	00081580 	.inst	0x00081580 ; undefined
   88a74:	00000000 	udf	#0
   88a78:	00087438 	.inst	0x00087438 ; undefined
   88a7c:	00000000 	udf	#0
   88a80:	00087448 	.inst	0x00087448 ; undefined
   88a84:	00000000 	udf	#0
   88a88:	000816a0 	.inst	0x000816a0 ; undefined
   88a8c:	00000000 	udf	#0
   88a90:	000874a0 	.inst	0x000874a0 ; undefined
   88a94:	00000000 	udf	#0
   88a98:	000874a8 	.inst	0x000874a8 ; undefined
   88a9c:	00000000 	udf	#0
   88aa0:	00081700 	.inst	0x00081700 ; undefined
   88aa4:	00000000 	udf	#0

Disassembly of section .bss:

0000000000088aa8 <dtb_end>:
	...

0000000000088ab0 <heap_end>:
	...

0000000000088ab8 <heap_ptr.0>:
	...

0000000000088ac0 <archive_start>:
	...

0000000000088ac8 <archive_end>:
	...

0000000000088ad0 <exec_size>:
	...

0000000000088ad8 <irq_task_head>:
	...

0000000000088ae0 <flag>:
   88ae0:	00000000 	udf	#0

0000000000088ae4 <irq_running>:
   88ae4:	00000000 	udf	#0

0000000000088ae8 <frame_array>:
	...

0000000000088af0 <free_list>:
	...

0000000000088b48 <cache_list>:
	...

0000000000088b70 <uart_rx_buffer>:
	...

0000000000088c70 <uart_tx_buffer>:
	...

0000000000088d70 <uart_rx_max>:
   88d70:	00000000 	udf	#0

0000000000088d74 <uart_rx_index>:
   88d74:	00000000 	udf	#0

0000000000088d78 <uart_tx_max>:
   88d78:	00000000 	udf	#0

0000000000088d7c <uart_tx_index>:
   88d7c:	00000000 	udf	#0

0000000000088d80 <last.0>:
	...

0000000000088d88 <running_queue>:
	...

0000000000088d90 <terminated_queue>:
	...

0000000000088d98 <idle_thread>:
	...

0000000000088da0 <max_tid>:
	...

0000000000088da8 <timer_head>:
	...

Disassembly of section .debug_info:

0000000000000000 <.debug_info>:
       0:	000003a5 	udf	#933
       4:	08010005 	stxrb	w1, w5, [x0]
       8:	00000000 	udf	#0
       c:	00004f0b 	udf	#20235
      10:	00001d00 	udf	#7424
      14:	000e0000 	.inst	0x000e0000 ; undefined
      18:	08000000 	stxrb	w0, w0, [x0]
      1c:	00000008 	udf	#8
      20:	0c000000 	st4	{v0.8b-v3.8b}, [x0]
	...
      2c:	db0c0000 	.inst	0xdb0c0000 ; undefined
      30:	18000000 	ldr	w0, 30 <bss_size-0x31>
      34:	6d100501 	stp	d1, d1, [x8, #256]
      38:	0d000000 	st1	{v0.b}[0], [x0]
      3c:	0079656b 	.inst	0x0079656b ; undefined
      40:	6d070601 	stp	d1, d1, [x16, #112]
      44:	00000000 	udf	#0
      48:	0000c106 	udf	#49414
      4c:	6d070700 	stp	d0, d1, [x24, #112]
      50:	04000000 	add	z0.b, p0/m, z0.b, z0.b
      54:	00010606 	.inst	0x00010606 ; undefined
      58:	74130800 	.inst	0x74130800 ; undefined
      5c:	08000000 	stxrb	w0, w0, [x0]
      60:	00004206 	udf	#16902
      64:	74130900 	.inst	0x74130900 ; undefined
      68:	10000000 	adr	x0, 68 <bss_size+0x7>
      6c:	05040e00 	.inst	0x05040e00 ; undefined
      70:	00746e69 	.inst	0x00746e69 ; undefined
      74:	00002e07 	udf	#11783
      78:	00db0f00 	.inst	0x00db0f00 ; undefined
      7c:	0a010000 	and	w0, w0, w1
      80:	00002e02 	udf	#11778
      84:	00150400 	.inst	0x00150400 ; undefined
      88:	09cf0000 	.inst	0x09cf0000 ; undefined
      8c:	0000006d 	udf	#109
      90:	00000096 	udf	#150
      94:	2a040002 	orr	w2, w0, w4
      98:	52000000 	eor	w0, w0, #0x1
      9c:	00006d07 	udf	#27911
      a0:	0000a700 	udf	#42752
      a4:	04000200 	add	z0.b, p0/m, z0.b, z16.b
      a8:	000000c8 	udf	#200
      ac:	006d2050 	.inst	0x006d2050 ; undefined
      b0:	00b80000 	.inst	0x00b80000 ; undefined
      b4:	00020000 	.inst	0x00020000 ; undefined
      b8:	00000c08 	udf	#3080
      bc:	13acd500 	.inst	0x13acd500 ; undefined
      c0:	00000008 	udf	#8
      c4:	00540000 	.inst	0x00540000 ; undefined
      c8:	00000000 	udf	#0
      cc:	9c010000 	ldr	q0, 20cc <bss_size+0x206b>
      d0:	00000111 	udf	#273
      d4:	00002501 	udf	#9473
      d8:	1118d500 	add	w0, w8, #0x635
      dc:	02000001 	.inst	0x02000001 ; undefined
      e0:	c4057891 	ldff1b	{z17.d}, p6/z, [x4, z5.d, uxtw]
      e4:	00000813 	udf	#2067
      e8:	30000000 	adr	x0, e9 <bss_size+0x88>
      ec:	00000000 	udf	#0
      f0:	04000000 	add	z0.b, p0/m, z0.b, z0.b
      f4:	00000015 	udf	#21
      f8:	006d09cf 	.inst	0x006d09cf ; undefined
      fc:	01040000 	.inst	0x01040000 ; undefined
     100:	00020000 	.inst	0x00020000 ; undefined
     104:	00002a09 	udf	#10761
     108:	00006d00 	udf	#27904
     10c:	00000200 	udf	#512
     110:	00790700 	.inst	0x00790700 ; undefined
     114:	0b080000 	add	w0, w0, w8
     118:	cc000001 	.inst	0xcc000001 ; undefined
     11c:	00081358 	.inst	0x00081358 ; undefined
     120:	00000000 	udf	#0
     124:	00000054 	udf	#84
     128:	00000000 	udf	#0
     12c:	016f9c01 	.inst	0x016f9c01 ; undefined
     130:	25010000 	cmpge	p0.b, p0/z, z0.b, #1
     134:	cc000000 	.inst	0xcc000000 ; undefined
     138:	00011117 	.inst	0x00011117 ; undefined
     13c:	78910200 	ldursh	x0, [x16, #-240]
     140:	08137005 	stxrb	w19, w5, [x0]
     144:	00000000 	udf	#0
     148:	00003000 	udf	#12288
     14c:	00000000 	udf	#0
     150:	00150400 	.inst	0x00150400 ; undefined
     154:	09cf0000 	.inst	0x09cf0000 ; undefined
     158:	0000006d 	udf	#109
     15c:	00000162 	udf	#354
     160:	2a090002 	orr	w2, w0, w9
     164:	6d000000 	stp	d0, d0, [x0]
     168:	02000000 	.inst	0x02000000 ; undefined
     16c:	10000000 	adr	x0, 16c <bss_size+0x10b>
     170:	000000ee 	udf	#238
     174:	110a8901 	add	w1, w8, #0x2a2
     178:	0c000001 	st4	{v1.8b-v4.8b}, [x0]
     17c:	0000080f 	udf	#2063
     180:	4c000000 	st4	{v0.16b-v3.16b}, [x0]
     184:	00000004 	udf	#4
     188:	01000000 	.inst	0x01000000 ; undefined
     18c:	0001f49c 	.inst	0x0001f49c ; undefined
     190:	00250100 	.inst	0x00250100 ; NYI
     194:	1b890000 	.inst	0x1b890000 ; undefined
     198:	000001f4 	udf	#500
     19c:	01589102 	.inst	0x01589102 ; undefined
     1a0:	000008f2 	udf	#2290
     1a4:	006d2589 	.inst	0x006d2589 ; undefined
     1a8:	91020000 	add	x0, x0, #0x80
     1ac:	00350354 	.inst	0x00350354 ; NYI
     1b0:	07a70000 	.inst	0x07a70000 ; undefined
     1b4:	0000006d 	udf	#109
     1b8:	11749102 	add	w2, w8, #0xd24, lsl #12
     1bc:	0000000c 	udf	#12
     1c0:	000001d3 	udf	#467
     1c4:	00002003 	udf	#8195
     1c8:	11109300 	add	w0, w24, #0x424
     1cc:	02000001 	.inst	0x02000001 ; undefined
     1d0:	05006891 	orr	z17.s, z17.s, #0xf80000
     1d4:	00081048 	.inst	0x00081048 ; undefined
     1d8:	00000000 	udf	#0
     1dc:	0000006c 	udf	#108
     1e0:	00000000 	udf	#0
     1e4:	00002003 	udf	#8195
     1e8:	11109d00 	add	w0, w8, #0x427
     1ec:	02000001 	.inst	0x02000001 ; undefined
     1f0:	00007891 	udf	#30865
     1f4:	00011107 	.inst	0x00011107 ; undefined
     1f8:	00480800 	.inst	0x00480800 ; undefined
     1fc:	8c4e0000 	.inst	0x8c4e0000 ; undefined
     200:	0000080b 	udf	#2059
     204:	80000000 	.inst	0x80000000 ; undefined
     208:	00000003 	udf	#3
     20c:	01000000 	.inst	0x01000000 ; undefined
     210:	0002a49c 	.inst	0x0002a49c ; undefined
     214:	00250100 	.inst	0x00250100 ; NYI
     218:	174e0000 	b	fffffffffd380218 <bss_end+0xfffffffffd2f7468>
     21c:	000001f4 	udf	#500
     220:	01689102 	.inst	0x01689102 ; undefined
     224:	000008f2 	udf	#2290
     228:	006d214e 	.inst	0x006d214e ; undefined
     22c:	91020000 	add	x0, x0, #0x80
     230:	0bb01264 	.inst	0x0bb01264 ; undefined
     234:	00000008 	udf	#8
     238:	00600000 	.inst	0x00600000 ; undefined
     23c:	00000000 	udf	#0
     240:	02830000 	.inst	0x02830000 ; undefined
     244:	d6030000 	.inst	0xd6030000 ; undefined
     248:	50000000 	adr	x0, 24a <bss_size+0x1e9>
     24c:	0001110e 	.inst	0x0001110e ; undefined
     250:	70910200 	adr	x0, fffffffffff22293 <bss_end+0xffffffffffe994e3>
     254:	0000c804 	udf	#51204
     258:	6d205000 	stp	d0, d20, [x0, #-512]
     25c:	65000000 	.inst	0x65000000 ; undefined
     260:	02000002 	.inst	0x02000002 ; undefined
     264:	0bcc0500 	.inst	0x0bcc0500 ; undefined
     268:	00000008 	udf	#8
     26c:	00100000 	.inst	0x00100000 ; undefined
     270:	00000000 	udf	#0
     274:	2a090000 	orr	w0, w0, w9
     278:	6d000000 	stp	d0, d0, [x0]
     27c:	02000000 	.inst	0x02000000 ; undefined
     280:	05000000 	orr	z0.s, z0.s, #0x1
     284:	00080c14 	.inst	0x00080c14 ; undefined
     288:	00000000 	udf	#0
     28c:	000002ec 	udf	#748
     290:	00000000 	udf	#0
     294:	00003503 	udf	#13571
     298:	6d096200 	stp	d0, d24, [x16, #144]
     29c:	02000000 	.inst	0x02000000 ; undefined
     2a0:	00007c91 	udf	#31889
     2a4:	0001130a 	.inst	0x0001130a ; undefined
     2a8:	6d054700 	stp	d0, d17, [x24, #80]
     2ac:	4c000000 	st4	{v0.16b-v3.16b}, [x0]
     2b0:	0000080b 	udf	#2059
     2b4:	40000000 	.inst	0x40000000 ; undefined
     2b8:	00000000 	udf	#0
     2bc:	01000000 	.inst	0x01000000 ; undefined
     2c0:	0002e39c 	.inst	0x0002e39c ; undefined
     2c4:	00250100 	.inst	0x00250100 ; NYI
     2c8:	16470000 	b	fffffffff91c02c8 <bss_end+0xfffffffff9137518>
     2cc:	00000111 	udf	#273
     2d0:	13689102 	.inst	0x13689102 ; undefined
     2d4:	00706d74 	.inst	0x00706d74 ; undefined
     2d8:	110c4801 	add	w1, w0, #0x312
     2dc:	02000001 	.inst	0x02000001 ; undefined
     2e0:	0a007891 	and	w17, w4, w0, lsl #30
     2e4:	000000f5 	udf	#245
     2e8:	006d053b 	.inst	0x006d053b ; undefined
     2ec:	0aa00000 	bic	w0, w0, w0, asr #0
     2f0:	00000008 	udf	#8
     2f4:	00ac0000 	.inst	0x00ac0000 ; undefined
     2f8:	00000000 	udf	#0
     2fc:	9c010000 	ldr	q0, 22fc <bss_size+0x229b>
     300:	00000313 	udf	#787
     304:	0000d601 	udf	#54785
     308:	11193b00 	add	w0, w24, #0x64e
     30c:	02000001 	.inst	0x02000001 ; undefined
     310:	0a007891 	and	w17, w4, w0, lsl #30
     314:	00000000 	udf	#0
     318:	01110a24 	.inst	0x01110a24 ; undefined
     31c:	09500000 	.inst	0x09500000 ; undefined
     320:	00000008 	udf	#8
     324:	01500000 	.inst	0x01500000 ; undefined
     328:	00000000 	udf	#0
     32c:	9c010000 	ldr	q0, 232c <bss_size+0x22cb>
     330:	0000035f 	udf	#863
     334:	0000d601 	udf	#54785
     338:	111f2400 	add	w0, w0, #0x7c9
     33c:	02000001 	.inst	0x02000001 ; undefined
     340:	06036891 	.inst	0x06036891 ; undefined
     344:	25000001 	cmpge	p1.b, p0/z, z0.b, #0
     348:	0001110c 	.inst	0x0001110c ; undefined
     34c:	78910200 	ldursh	x0, [x16, #-240]
     350:	00003d03 	udf	#15619
     354:	110c2600 	add	w0, w16, #0x309
     358:	02000001 	.inst	0x02000001 ; undefined
     35c:	14007091 	b	1c5a0 <bss_size+0x1c53f>
     360:	000000e3 	udf	#227
     364:	110a0c01 	add	w1, w0, #0x283
     368:	00000001 	udf	#1
     36c:	00000808 	udf	#2056
     370:	50000000 	adr	x0, 372 <bss_size+0x311>
     374:	00000001 	udf	#1
     378:	01000000 	.inst	0x01000000 ; undefined
     37c:	00d6019c 	.inst	0x00d6019c ; undefined
     380:	1e0c0000 	.inst	0x1e0c0000 ; undefined
     384:	00000111 	udf	#273
     388:	03689102 	.inst	0x03689102 ; undefined
     38c:	00000042 	udf	#66
     390:	01110c0d 	.inst	0x01110c0d ; undefined
     394:	91020000 	add	x0, x0, #0x80
     398:	01000378 	.inst	0x01000378 ; undefined
     39c:	0c0e0000 	.inst	0x0c0e0000 ; undefined
     3a0:	00000111 	udf	#273
     3a4:	00709102 	.inst	0x00709102 ; undefined
     3a8:	00061c00 	.inst	0x00061c00 ; undefined
     3ac:	01000500 	.inst	0x01000500 ; undefined
     3b0:	00016308 	.inst	0x00016308 ; undefined
     3b4:	004f1500 	.inst	0x004f1500 ; undefined
     3b8:	321d0000 	orr	w0, w0, #0x8
     3bc:	0e000000 	tbl	v0.8b, {v0.16b}, v0.8b
     3c0:	00000000 	udf	#0
     3c4:	00000814 	udf	#2068
     3c8:	a0000000 	.inst	0xa0000000 ; undefined
     3cc:	00000003 	udf	#3
     3d0:	c8000000 	stxr	w0, x0, [x0]
     3d4:	12000005 	and	w5, w0, #0x1
     3d8:	005d0218 	.inst	0x005d0218 ; undefined
     3dc:	6e030000 	ext	v0.16b, v0.16b, v3.16b, #0
     3e0:	02000001 	.inst	0x02000001 ; undefined
     3e4:	005d0f0b 	.inst	0x005d0f0b ; undefined
     3e8:	03000000 	.inst	0x03000000 ; undefined
     3ec:	00000140 	udf	#320
     3f0:	5d0f0c02 	.inst	0x5d0f0c02 ; undefined
     3f4:	08000000 	stxrb	w0, w0, [x0]
     3f8:	0001bb03 	.inst	0x0001bb03 ; undefined
     3fc:	090d0200 	.inst	0x090d0200 ; undefined
     400:	0000008b 	udf	#139
     404:	69070010 	stgp	x16, x0, [x0, #224]
     408:	04000000 	add	z0.b, p0/m, z0.b, z0.b
     40c:	020a0801 	.inst	0x020a0801 ; undefined
     410:	62160000 	.inst	0x62160000 ; undefined
     414:	17000000 	b	fffffffffc000414 <bss_end+0xfffffffffbf77664>
     418:	0000007d 	udf	#125
     41c:	0000007d 	udf	#125
     420:	00008402 	udf	#33794
     424:	04180000 	orr	z0.b, p0/m, z0.b, z0.b
     428:	746e6905 	.inst	0x746e6905 ; undefined
     42c:	00890700 	.inst	0x00890700 ; undefined
     430:	08190000 	stxrb	w25, w0, [x0]
     434:	00006e07 	udf	#28167
     438:	02320c00 	.inst	0x02320c00 ; undefined
     43c:	0e020000 	tbl	v0.8b, {v0.16b}, v2.8b
     440:	00002e02 	udf	#11778
     444:	00900d00 	.inst	0x00900d00 ; undefined
     448:	00a70000 	.inst	0x00a70000 ; undefined
     44c:	001a0000 	.inst	0x001a0000 ; undefined
     450:	0001e61b 	.inst	0x0001e61b ; undefined
     454:	101a0200 	adr	x0, 34494 <bss_size+0x34433>
     458:	0000009c 	udf	#156
     45c:	0000620d 	udf	#25101
     460:	0000c300 	udf	#49920
     464:	00c31300 	.inst	0x00c31300 ; undefined
     468:	00ff0000 	.inst	0x00ff0000 ; undefined
     46c:	47070804 	.inst	0x47070804 ; undefined
     470:	04000004 	add	z4.b, p0/m, z4.b, z0.b
     474:	01c50508 	.inst	0x01c50508 ; undefined
     478:	04040000 	.inst	0x04040000 ; undefined
     47c:	00044c07 	.inst	0x00044c07 ; undefined
     480:	05080400 	.inst	0x05080400 ; undefined
     484:	000001c0 	udf	#448
     488:	f5041004 	.inst	0xf5041004 ; undefined
     48c:	04000001 	add	z1.b, p0/m, z1.b, z0.b
     490:	02030601 	.inst	0x02030601 ; undefined
     494:	02040000 	.inst	0x02040000 ; undefined
     498:	00014c05 	.inst	0x00014c05 ; undefined
     49c:	08010400 	stxrb	w1, w0, [x0]
     4a0:	00000201 	udf	#513
     4a4:	1f070204 	fmadd	s4, s16, s7, s0
     4a8:	0c000002 	st4	{v2.8b-v5.8b}, [x0]
     4ac:	00000137 	udf	#311
     4b0:	c3193703 	.inst	0xc3193703 ; undefined
     4b4:	12000000 	and	w0, w0, #0x1
     4b8:	01af0468 	.inst	0x01af0468 ; undefined
     4bc:	78010000 	sturh	w0, [x0, #16]
     4c0:	0b003931 	add	w17, w9, w0, lsl #14
     4c4:	0000c311 	udf	#49937
     4c8:	78010000 	sturh	w0, [x0, #16]
     4cc:	0c003032 	.inst	0x0c003032 ; undefined
     4d0:	0000c311 	udf	#49937
     4d4:	78010800 	sttrh	w0, [x0, #16]
     4d8:	0d003132 	st3	{v18.b-v20.b}[4], [x9]
     4dc:	0000c311 	udf	#49937
     4e0:	78011000 	sturh	w0, [x0, #17]
     4e4:	0e003232 	tbx	v18.8b, {v17.16b, v18.16b}, v0.8b
     4e8:	0000c311 	udf	#49937
     4ec:	78011800 	sttrh	w0, [x0, #17]
     4f0:	0f003332 	.inst	0x0f003332 ; undefined
     4f4:	0000c311 	udf	#49937
     4f8:	78012000 	sturh	w0, [x0, #18]
     4fc:	10003432 	adr	x18, b80 <bss_size+0xb1f>
     500:	0000c311 	udf	#49937
     504:	78012800 	sttrh	w0, [x0, #18]
     508:	11003532 	add	w18, w9, #0xd
     50c:	0000c311 	udf	#49937
     510:	78013000 	sturh	w0, [x0, #19]
     514:	12003632 	and	w18, w17, #0x3fff
     518:	0000c311 	udf	#49937
     51c:	78013800 	sttrh	w0, [x0, #19]
     520:	13003732 	sbfx	w18, w25, #0, #14
     524:	0000c311 	udf	#49937
     528:	78014000 	sturh	w0, [x0, #20]
     52c:	14003832 	b	e5f4 <bss_size+0xe593>
     530:	0000c311 	udf	#49937
     534:	66014800 	.inst	0x66014800 ; undefined
     538:	11150070 	add	w16, w3, #0x540
     53c:	000000c3 	udf	#195
     540:	726c0150 	.inst	0x726c0150 ; undefined
     544:	c3111600 	.inst	0xc3111600 ; undefined
     548:	58000000 	ldr	x0, 548 <bss_size+0x4e7>
     54c:	00707301 	.inst	0x00707301 ; undefined
     550:	00c31117 	.inst	0x00c31117 ; undefined
     554:	00600000 	.inst	0x00600000 ; undefined
     558:	0001a40c 	.inst	0x0001a40c ; undefined
     55c:	03180400 	.inst	0x03180400 ; undefined
     560:	0000010e 	udf	#270
     564:	000b671c 	.inst	0x000b671c ; undefined
     568:	1a049800 	.inst	0x1a049800 ; undefined
     56c:	00023010 	.inst	0x00023010 ; undefined
     570:	02b00300 	.inst	0x02b00300 ; undefined
     574:	1b040000 	madd	w0, w0, w4, w0
     578:	0001af0e 	.inst	0x0001af0e ; undefined
     57c:	74010000 	.inst	0x74010000 ; undefined
     580:	1c006469 	ldr	s9, 120c <bss_size+0x11ab>
     584:	00007d07 	udf	#32007
     588:	31036800 	adds	w0, w0, #0xda
     58c:	04000001 	add	z1.b, p0/m, z1.b, z0.b
     590:	007d071d 	.inst	0x007d071d ; undefined
     594:	036c0000 	.inst	0x036c0000 ; undefined
     598:	00000663 	udf	#1635
     59c:	89091e04 	.inst	0x89091e04 ; undefined
     5a0:	70000000 	adr	x0, 5a3 <bss_size+0x542>
     5a4:	00015d03 	.inst	0x00015d03 ; undefined
     5a8:	091f0400 	.inst	0x091f0400 ; undefined
     5ac:	00000089 	udf	#137
     5b0:	01560378 	.inst	0x01560378 ; undefined
     5b4:	20040000 	.inst	0x20040000 ; undefined
     5b8:	00008909 	udf	#35081
     5bc:	ab038000 	adds	x0, x0, x3, lsl #32
     5c0:	04000002 	add	z2.b, p0/m, z2.b, z0.b
     5c4:	02301221 	.inst	0x02301221 ; undefined
     5c8:	03880000 	.inst	0x03880000 ; undefined
     5cc:	0000029c 	udf	#668
     5d0:	30122204 	adr	x4, 24a11 <bss_size+0x249b0>
     5d4:	90000002 	adrp	x2, 0 <bss_size-0x61>
     5d8:	01bb0700 	.inst	0x01bb0700 ; undefined
     5dc:	670c0000 	.inst	0x670c0000 ; undefined
     5e0:	0400000b 	add	z11.b, p0/m, z11.b, z0.b
     5e4:	01bb0323 	.inst	0x01bb0323 ; undefined
     5e8:	35070000 	cbnz	w0, e5e8 <bss_size+0xe587>
     5ec:	0d000002 	st1	{v2.b}[0], [x0]
     5f0:	00000090 	udf	#144
     5f4:	00000256 	udf	#598
     5f8:	0000c313 	udf	#49939
     5fc:	1d000800 	.inst	0x1d000800 ; undefined
     600:	000000a7 	udf	#167
     604:	46090c01 	.inst	0x46090c01 ; undefined
     608:	09000002 	.inst	0x09000002 ; undefined
     60c:	0889d003 	stlrb	w3, [x0]
     610:	00000000 	udf	#0
     614:	025f0800 	.inst	0x025f0800 ; undefined
     618:	20050000 	.inst	0x20050000 ; undefined
     61c:	00000279 	udf	#633
     620:	6d080005 	stp	d5, d0, [x0, #128]
     624:	04000002 	add	z2.b, p0/m, z2.b, z0.b
     628:	0002863c 	.inst	0x0002863c ; undefined
     62c:	08000500 	stxrb	w0, w0, [x8]
     630:	0000024f 	udf	#591
     634:	02932906 	.inst	0x02932906 ; undefined
     638:	00050000 	.inst	0x00050000 ; undefined
     63c:	0009f009 	.inst	0x0009f009 ; undefined
     640:	050d0700 	.inst	0x050d0700 ; undefined
     644:	0000007d 	udf	#125
     648:	000002a9 	udf	#681
     64c:	0002a902 	.inst	0x0002a902 ; undefined
     650:	62070000 	.inst	0x62070000 ; undefined
     654:	0e000000 	tbl	v0.8b, {v0.16b}, v0.8b
     658:	00000290 	udf	#656
     65c:	02c41408 	.inst	0x02c41408 ; undefined
     660:	a9020000 	stp	x0, x0, [x0, #32]
     664:	02000002 	.inst	0x02000002 ; undefined
     668:	00000102 	udf	#258
     66c:	01d30900 	.inst	0x01d30900 ; undefined
     670:	0c070000 	.inst	0x0c070000 ; undefined
     674:	00007d05 	udf	#32005
     678:	0002da00 	.inst	0x0002da00 ; undefined
     67c:	02a90200 	.inst	0x02a90200 ; undefined
     680:	08000000 	stxrb	w0, w0, [x0]
     684:	0000023a 	udf	#570
     688:	02e73904 	.inst	0x02e73904 ; undefined
     68c:	00050000 	.inst	0x00050000 ; undefined
     690:	00019609 	.inst	0x00019609 ; undefined
     694:	09300400 	.inst	0x09300400 ; undefined
     698:	00000241 	udf	#577
     69c:	000002fd 	udf	#765
     6a0:	0002fd02 	.inst	0x0002fd02 ; undefined
     6a4:	02070000 	.inst	0x02070000 ; undefined
     6a8:	1e000003 	.inst	0x1e000003 ; undefined
     6ac:	0002790f 	.inst	0x0002790f ; undefined
     6b0:	0f4c0100 	.inst	0x0f4c0100 ; undefined
     6b4:	0000007d 	udf	#125
     6b8:	00000315 	udf	#789
     6bc:	d80f0005 	prfm	pldl3strm, 1e6bc <bss_size+0x1e65b>
     6c0:	09000001 	.inst	0x09000001 ; undefined
     6c4:	007d051c 	.inst	0x007d051c ; undefined
     6c8:	03270000 	.inst	0x03270000 ; undefined
     6cc:	00050000 	.inst	0x00050000 ; undefined
     6d0:	00012609 	.inst	0x00012609 ; undefined
     6d4:	071b0900 	.inst	0x071b0900 ; undefined
     6d8:	00000089 	udf	#137
     6dc:	0000033d 	udf	#829
     6e0:	0002a902 	.inst	0x0002a902 ; undefined
     6e4:	730e0000 	.inst	0x730e0000 ; undefined
     6e8:	09000001 	.inst	0x09000001 ; undefined
     6ec:	00034e17 	.inst	0x00034e17 ; undefined
     6f0:	02a90200 	.inst	0x02a90200 ; undefined
     6f4:	09000000 	.inst	0x09000000 ; undefined
     6f8:	00000248 	udf	#584
     6fc:	7d050607 	str	h7, [x16, #642]
     700:	69000000 	stgp	x0, x0, [x0]
     704:	02000003 	.inst	0x02000003 ; undefined
     708:	000002a9 	udf	#681
     70c:	00005d02 	udf	#23810
     710:	af080000 	.inst	0xaf080000 ; undefined
     714:	09000001 	.inst	0x09000001 ; undefined
     718:	00037616 	.inst	0x00037616 ; undefined
     71c:	08000500 	stxrb	w0, w0, [x8]
     720:	00000281 	udf	#641
     724:	03831a0a 	.inst	0x03831a0a ; undefined
     728:	00050000 	.inst	0x00050000 ; undefined
     72c:	00017e08 	.inst	0x00017e08 ; undefined
     730:	90190a00 	adrp	x0, 32140000 <bss_end+0x320b7250>
     734:	05000003 	orr	z3.s, z3.s, #0x1
     738:	020f0e00 	.inst	0x020f0e00 ; undefined
     73c:	1e060000 	.inst	0x1e060000 ; undefined
     740:	000003a1 	udf	#929
     744:	00006902 	udf	#26882
     748:	2a0e0000 	orr	w0, w0, w14
     74c:	06000000 	.inst	0x06000000 ; undefined
     750:	0003b21f 	.inst	0x0003b21f ; undefined
     754:	005d0200 	.inst	0x005d0200 ; undefined
     758:	0a000000 	and	w0, w0, w0
     75c:	0000025a 	udf	#602
     760:	00007d6d 	udf	#32109
     764:	08170000 	stxrb	w23, w0, [x0]
     768:	00000000 	udf	#0
     76c:	0000a000 	udf	#40960
     770:	00000000 	udf	#0
     774:	f19c0100 	.inst	0xf19c0100 ; undefined
     778:	06000003 	.inst	0x06000003 ; undefined
     77c:	000001ce 	udf	#462
     780:	0084106d 	.inst	0x0084106d ; undefined
     784:	91030000 	add	x0, x0, #0xc0
     788:	6f0b7df8 	.inst	0x6f0b7df8 ; undefined
     78c:	73007470 	.inst	0x73007470 ; undefined
     790:	0000b308 	udf	#45832
     794:	80910300 	fmopa	za0.s, p0/m, p0/m, z24.s, z17.s
     798:	1b0a007e 	madd	w30, w3, w10, w0
     79c:	65000001 	.inst	0x65000001 ; undefined
     7a0:	0000007d 	udf	#125
     7a4:	000816a0 	.inst	0x000816a0 ; undefined
     7a8:	00000000 	udf	#0
     7ac:	00000060 	udf	#96
     7b0:	00000000 	udf	#0
     7b4:	04209c01 	.inst	0x04209c01 ; undefined
     7b8:	ce060000 	eor3	v0.16b, v0.16b, v6.16b, v0.16b
     7bc:	65000001 	.inst	0x65000001 ; undefined
     7c0:	00008416 	udf	#33814
     7c4:	78910200 	ldursh	x0, [x16, #-240]
     7c8:	0a200a00 	bic	w0, w16, w0, lsl #2
     7cc:	7d440000 	ldr	h0, [x0, #512]
     7d0:	80000000 	.inst	0x80000000 ; undefined
     7d4:	00000815 	udf	#2069
     7d8:	20000000 	.inst	0x20000000 ; undefined
     7dc:	00000001 	udf	#1
     7e0:	01000000 	.inst	0x01000000 ; undefined
     7e4:	0004c79c 	.inst	0x0004c79c ; undefined
     7e8:	01ce0600 	.inst	0x01ce0600 ; undefined
     7ec:	10440000 	adr	x0, 887ec <get_current+0x14d4>
     7f0:	00000084 	udf	#132
     7f4:	7dc89103 	.inst	0x7dc89103 ; undefined
     7f8:	00016a10 	.inst	0x00016a10 ; undefined
     7fc:	c7084800 	.inst	0xc7084800 ; undefined
     800:	03000004 	.inst	0x03000004 ; undefined
     804:	107dd891 	adr	x17, fc314 <bss_end+0x73564>
     808:	000002a1 	udf	#673
     80c:	0089094a 	.inst	0x0089094a ; undefined
     810:	91020000 	add	x0, x0, #0x80
     814:	15cc1170 	b	7304dd4 <bss_end+0x727c024>
     818:	00000008 	udf	#8
     81c:	00a40000 	.inst	0x00a40000 ; undefined
     820:	00000000 	udf	#0
     824:	700b0000 	adr	x0, 16827 <bss_size+0x167c6>
     828:	890b4c00 	.inst	0x890b4c00 ; undefined
     82c:	02000000 	.inst	0x02000000 ; undefined
     830:	790f6891 	strh	w17, [x4, #1972]
     834:	01000002 	.inst	0x01000002 ; undefined
     838:	007d0f4c 	.inst	0x007d0f4c ; undefined
     83c:	049b0000 	bic	z0.s, p0/m, z0.s, z0.s
     840:	00050000 	.inst	0x00050000 ; undefined
     844:	5000740b 	adr	x11, 16c6 <bss_size+0x1665>
     848:	0002410d 	.inst	0x0002410d ; undefined
     84c:	60910200 	.inst	0x60910200 ; undefined
     850:	0815dc11 	stlxrb	w21, w17, [x0]
     854:	00000000 	udf	#0
     858:	00004800 	udf	#18432
     85c:	00000000 	udf	#0
     860:	00690b00 	.inst	0x00690b00 ; undefined
     864:	007d0d4d 	.inst	0x007d0d4d ; undefined
     868:	91020000 	add	x0, x0, #0x80
     86c:	0000007c 	udf	#124
     870:	0000620d 	udf	#25101
     874:	0004d800 	.inst	0x0004d800 ; undefined
     878:	00c31f00 	.inst	0x00c31f00 ; undefined
     87c:	01000000 	.inst	0x01000000 ; undefined
     880:	61631400 	.inst	0x61631400 ; undefined
     884:	7d390074 	str	h20, [x3, #7296]
     888:	38000000 	sturb	w0, [x0]
     88c:	00000815 	udf	#2069
     890:	48000000 	stxrh	w0, w0, [x0]
     894:	00000000 	udf	#0
     898:	01000000 	.inst	0x01000000 ; undefined
     89c:	0005179c 	.inst	0x0005179c ; undefined
     8a0:	01ce0600 	.inst	0x01ce0600 ; undefined
     8a4:	0f390000 	.inst	0x0f390000 ; undefined
     8a8:	00000084 	udf	#132
     8ac:	7de89103 	.inst	0x7de89103 ; undefined
     8b0:	00016a10 	.inst	0x00016a10 ; undefined
     8b4:	c7083d00 	.inst	0xc7083d00 ; undefined
     8b8:	03000004 	.inst	0x03000004 ; undefined
     8bc:	007df891 	.inst	0x007df891 ; undefined
     8c0:	00736c14 	.inst	0x00736c14 ; undefined
     8c4:	00007d34 	udf	#32052
     8c8:	08151c00 	stxrb	w21, w0, [x0]
     8cc:	00000000 	udf	#0
     8d0:	00001c00 	udf	#7168
     8d4:	00000000 	udf	#0
     8d8:	459c0100 	saddlb	z0.s, z8.h, z28.h
     8dc:	06000005 	.inst	0x06000005 ; undefined
     8e0:	000001ce 	udf	#462
     8e4:	00840e34 	.inst	0x00840e34 ; undefined
     8e8:	91020000 	add	x0, x0, #0x80
     8ec:	63200078 	.inst	0x63200078 ; undefined
     8f0:	01000001 	.inst	0x01000001 ; undefined
     8f4:	007d052e 	.inst	0x007d052e ; undefined
     8f8:	14e00000 	b	38008f8 <bss_end+0x3777b48>
     8fc:	00000008 	udf	#8
     900:	003c0000 	.inst	0x003c0000 ; NYI
     904:	00000000 	udf	#0
     908:	9c010000 	ldr	q0, 2908 <bss_size+0x28a7>
     90c:	00000576 	udf	#1398
     910:	0001ce06 	.inst	0x0001ce06 ; undefined
     914:	84122e00 	ldff1sb	{z0.s}, p3/z, [x16, z18.s, uxtw]
     918:	02000000 	.inst	0x02000000 ; undefined
     91c:	0a007891 	and	w17, w4, w0, lsl #30
     920:	0000021a 	udf	#538
     924:	00007d28 	udf	#32040
     928:	0814c000 	stlxrb	w20, w0, [x0]
     92c:	00000000 	udf	#0
     930:	00002000 	udf	#8192
     934:	00000000 	udf	#0
     938:	a59c0100 	ld1rqd	{z0.d}, p0/z, [x8, x28, lsl #3]
     93c:	06000005 	.inst	0x06000005 ; undefined
     940:	000001ce 	udf	#462
     944:	00841028 	.inst	0x00841028 ; undefined
     948:	91020000 	add	x0, x0, #0x80
     94c:	ef0a0078 	.inst	0xef0a0078 ; undefined
     950:	23000001 	.inst	0x23000001 ; undefined
     954:	0000007d 	udf	#125
     958:	0008149c 	.inst	0x0008149c ; undefined
     95c:	00000000 	udf	#0
     960:	00000024 	udf	#36
     964:	00000000 	udf	#0
     968:	05d49c01 	.inst	0x05d49c01 ; undefined
     96c:	ce060000 	eor3	v0.16b, v0.16b, v6.16b, v0.16b
     970:	23000001 	.inst	0x23000001 ; undefined
     974:	00008411 	udf	#33809
     978:	78910200 	ldursh	x0, [x16, #-240]
     97c:	01912100 	.inst	0x01912100 ; undefined
     980:	18010000 	ldr	w0, 2980 <bss_size+0x291f>
     984:	00007d05 	udf	#32005
     988:	08140000 	stxrb	w20, w0, [x0]
     98c:	00000000 	udf	#0
     990:	00009c00 	udf	#39936
     994:	00000000 	udf	#0
     998:	069c0100 	.inst	0x069c0100 ; undefined
     99c:	000001ce 	udf	#462
     9a0:	00841018 	.inst	0x00841018 ; undefined
     9a4:	91020000 	add	x0, x0, #0x80
     9a8:	140c1168 	b	304f48 <bss_end+0x27c198>
     9ac:	00000008 	udf	#8
     9b0:	00840000 	.inst	0x00840000 ; undefined
     9b4:	00000000 	udf	#0
     9b8:	690b0000 	stgp	x0, x0, [x0, #352]
     9bc:	7d0c1900 	str	h0, [x8, #1548]
     9c0:	02000000 	.inst	0x02000000 ; undefined
     9c4:	00007c91 	udf	#31889
     9c8:	00040a00 	.inst	0x00040a00 ; undefined
     9cc:	01000500 	.inst	0x01000500 ; undefined
     9d0:	00036608 	.inst	0x00036608 ; undefined
     9d4:	004f0e00 	.inst	0x004f0e00 ; undefined
     9d8:	ca1d0000 	eor	x0, x0, x29
     9dc:	0e000000 	tbl	v0.8b, {v0.16b}, v0.8b
     9e0:	a0000000 	.inst	0xa0000000 ; undefined
     9e4:	00000817 	udf	#2071
     9e8:	e8000000 	.inst	0xe8000000 ; undefined
     9ec:	00000006 	udf	#6
     9f0:	85000000 	.inst	0x85000000 ; undefined
     9f4:	03000007 	.inst	0x03000007 ; undefined
     9f8:	02030601 	.inst	0x02030601 ; undefined
     9fc:	02030000 	.inst	0x02030000 ; undefined
     a00:	00014c05 	.inst	0x00014c05 ; undefined
     a04:	05040f00 	.inst	0x05040f00 ; undefined
     a08:	00746e69 	.inst	0x00746e69 ; undefined
     a0c:	c5050803 	ld1sw	{z3.d}, p2/z, [x0, z5.d, uxtw]
     a10:	03000001 	.inst	0x03000001 ; undefined
     a14:	02010801 	.inst	0x02010801 ; undefined
     a18:	02030000 	.inst	0x02030000 ; undefined
     a1c:	00021f07 	.inst	0x00021f07 ; undefined
     a20:	03990600 	.inst	0x03990600 ; undefined
     a24:	34020000 	cbz	w0, 4a24 <bss_size+0x49c3>
     a28:	00006419 	udf	#25625
     a2c:	07040300 	.inst	0x07040300 ; undefined
     a30:	0000044c 	udf	#1100
     a34:	47070803 	.inst	0x47070803 ; undefined
     a38:	06000004 	.inst	0x06000004 ; undefined
     a3c:	000002c9 	udf	#713
     a40:	6b1a5602 	subs	w2, w16, w26, lsl #21
     a44:	0a000000 	and	w0, w0, w0
     a48:	00f40728 	.inst	0x00f40728 ; undefined
     a4c:	4a020000 	eor	w0, w0, w2
     a50:	08000005 	stxrb	w0, w5, [x0]
     a54:	00000058 	udf	#88
     a58:	03b80200 	.inst	0x03b80200 ; undefined
     a5c:	58090000 	ldr	x0, 12a5c <bss_size+0x129fb>
     a60:	04000000 	add	z0.b, p0/m, z0.b, z0.b
     a64:	0002e302 	.inst	0x0002e302 ; undefined
     a68:	00580a00 	.inst	0x00580a00 ; undefined
     a6c:	02080000 	.inst	0x02080000 ; undefined
     a70:	0000038a 	udf	#906
     a74:	0000580b 	udf	#22539
     a78:	1b020c00 	madd	w0, w0, w2, w3
     a7c:	0c000003 	st4	{v3.8b-v6.8b}, [x0]
     a80:	00000058 	udf	#88
     a84:	03820210 	.inst	0x03820210 ; undefined
     a88:	580d0000 	ldr	x0, 1aa88 <bss_size+0x1aa27>
     a8c:	14000000 	b	a8c <bss_size+0xa2b>
     a90:	00037802 	.inst	0x00037802 ; undefined
     a94:	00580e00 	.inst	0x00580e00 ; undefined
     a98:	02180000 	.inst	0x02180000 ; undefined
     a9c:	000003c2 	udf	#962
     aa0:	0000580f 	udf	#22543
     aa4:	68021c00 	.inst	0x68021c00 ; undefined
     aa8:	10000003 	adr	x3, aa8 <bss_size+0xa47>
     aac:	00000058 	udf	#88
     ab0:	032a0220 	.inst	0x032a0220 ; undefined
     ab4:	58110000 	ldr	x0, 22ab4 <bss_size+0x22a53>
     ab8:	24000000 	cmphs	p0.b, p0/z, z0.b, z0.b
     abc:	03390600 	.inst	0x03390600 ; undefined
     ac0:	12030000 	and	w0, w0, #0x20000000
     ac4:	00007e02 	udf	#32258
     ac8:	2a080a00 	orr	w0, w16, w8, lsl #2
     acc:	00000120 	udf	#288
     ad0:	6e656c10 	umin	v16.8h, v0.8h, v5.8h
     ad4:	0c2b0300 	.inst	0x0c2b0300 ; undefined
     ad8:	00000058 	udf	#88
     adc:	03530200 	.inst	0x03530200 ; undefined
     ae0:	582c0000 	ldr	x0, 58ae0 <bss_size+0x58a7f>
     ae4:	04000000 	add	z0.b, p0/m, z0.b, z0.b
     ae8:	034a0600 	.inst	0x034a0600 ; undefined
     aec:	2d030000 	stp	s0, s0, [x0, #24]
     af0:	00010002 	.inst	0x00010002 ; undefined
     af4:	08010300 	stxrb	w1, w0, [x24]
     af8:	0000020a 	udf	#522
     afc:	00012c11 	.inst	0x00012c11 ; undefined
     b00:	03a60100 	.inst	0x03a60100 ; undefined
     b04:	0e050000 	tbl	v0.8b, {v0.16b}, v5.8b
     b08:	0000014d 	udf	#333
     b0c:	8aa80309 	bic	x9, x24, x8, asr #0
     b10:	00000008 	udf	#8
     b14:	08120000 	stxrb	w18, w0, [x0]
     b18:	0002c20b 	.inst	0x0002c20b ; undefined
     b1c:	003c0900 	.inst	0x003c0900 ; NYI
     b20:	016d0000 	.inst	0x016d0000 ; undefined
     b24:	6d040000 	stp	d0, d0, [x0, #64]
     b28:	04000001 	add	z1.b, p0/m, z1.b, z0.b
     b2c:	0000016d 	udf	#365
     b30:	00003c04 	udf	#15364
     b34:	72050000 	ands	w0, w0, #0x8000000
     b38:	13000001 	sbfx	w1, w0, #0, #1
     b3c:	0003140b 	.inst	0x0003140b ; undefined
     b40:	003c0400 	.inst	0x003c0400 ; NYI
     b44:	01870000 	.inst	0x01870000 ; undefined
     b48:	87040000 	.inst	0x87040000 ; undefined
     b4c:	00000001 	udf	#1
     b50:	00013305 	.inst	0x00013305 ; undefined
     b54:	020f0c00 	.inst	0x020f0c00 ; undefined
     b58:	9c1e0000 	ldr	q0, 3cb58 <bss_size+0x3caf7>
     b5c:	04000001 	add	z1.b, p0/m, z1.b, z0.b
     b60:	00000133 	udf	#307
     b64:	002a0c00 	.inst	0x002a0c00 ; NYI
     b68:	ac1f0000 	stnp	q0, q0, [x0, #992]
     b6c:	04000001 	add	z1.b, p0/m, z1.b, z0.b
     b70:	00000187 	udf	#391
     b74:	03a21400 	.inst	0x03a21400 ; undefined
     b78:	9b010000 	madd	x0, x0, x1, x0
     b7c:	00014d07 	.inst	0x00014d07 ; undefined
     b80:	081e7800 	stxrb	w30, w0, [x0]
     b84:	00000000 	udf	#0
     b88:	00001000 	udf	#4096
     b8c:	00000000 	udf	#0
     b90:	089c0100 	stllrb	w0, [x8]
     b94:	00000307 	udf	#775
     b98:	081c4464 	stxrb	w28, w4, [x3]
     b9c:	00000000 	udf	#0
     ba0:	00023400 	.inst	0x00023400 ; undefined
     ba4:	00000000 	udf	#0
     ba8:	889c0100 	stllr	w0, [x8]
     bac:	07000002 	.inst	0x07000002 ; undefined
     bb0:	00627464 	.inst	0x00627464 ; undefined
     bb4:	014d1964 	.inst	0x014d1964 ; undefined
     bb8:	91030000 	add	x0, x0, #0xc0
     bbc:	c0157fb8 	.inst	0xc0157fb8 ; undefined
     bc0:	01000005 	.inst	0x01000005 ; undefined
     bc4:	029d2564 	.inst	0x029d2564 ; undefined
     bc8:	91030000 	add	x0, x0, #0xc0
     bcc:	09017fb0 	.inst	0x09017fb0 ; undefined
     bd0:	65000005 	.inst	0x65000005 ; undefined
     bd4:	0002a20f 	.inst	0x0002a20f ; undefined
     bd8:	68910200 	stgp	x0, x0, [x16], #544
     bdc:	00035b01 	.inst	0x00035b01 ; undefined
     be0:	98096900 	ldrsw	x0, 13900 <bss_size+0x1389f>
     be4:	02000002 	.inst	0x02000002 ; undefined
     be8:	b5017891 	cbnz	x17, 3af8 <bss_size+0x3a97>
     bec:	6a000002 	ands	w2, w0, w0
     bf0:	00029809 	.inst	0x00029809 ; undefined
     bf4:	60910200 	.inst	0x60910200 ; undefined
     bf8:	00034401 	.inst	0x00034401 ; undefined
     bfc:	a70d6d00 	.inst	0xa70d6d00 ; undefined
     c00:	02000002 	.inst	0x02000002 ; undefined
     c04:	e6017091 	.inst	0xe6017091 ; undefined
     c08:	6e000004 	ext	v4.16b, v0.16b, v0.16b, #0
     c0c:	00003c07 	udf	#15367
     c10:	5c910200 	ldr	d0, fffffffffff22c50 <bss_end+0xffffffffffe99ea0>
     c14:	00034e01 	.inst	0x00034e01 ; undefined
     c18:	ac0d7000 	stnp	q0, q28, [x0, #416]
     c1c:	02000002 	.inst	0x02000002 ; undefined
     c20:	dc015091 	.inst	0xdc015091 ; undefined
     c24:	71000002 	subs	w2, w0, #0x0
     c28:	0001200c 	.inst	0x0001200c ; undefined
     c2c:	40910200 	.inst	0x40910200 ; undefined
     c30:	081d1809 	stxrb	w29, w9, [x0]
     c34:	00000000 	udf	#0
     c38:	00013400 	.inst	0x00013400 ; undefined
     c3c:	00000000 	udf	#0
     c40:	02d30100 	.inst	0x02d30100 ; undefined
     c44:	0d780000 	.inst	0x0d780000 ; undefined
     c48:	0000003c 	udf	#60
     c4c:	004c9102 	.inst	0x004c9102 ; undefined
     c50:	02981600 	.inst	0x02981600 ; undefined
     c54:	4d040000 	.inst	0x4d040000 ; undefined
     c58:	04000001 	add	z1.b, p0/m, z1.b, z0.b
     c5c:	00000298 	udf	#664
     c60:	012c0500 	.inst	0x012c0500 ; undefined
     c64:	88050000 	stxr	w5, w0, [x0]
     c68:	05000002 	orr	z2.s, z2.s, #0x1
     c6c:	000000f4 	udf	#244
     c70:	00005805 	udf	#22533
     c74:	01200500 	.inst	0x01200500 ; undefined
     c78:	ae080000 	.inst	0xae080000 ; undefined
     c7c:	1c000003 	ldr	s3, c7c <bss_size+0xc1b>
     c80:	00081908 	.inst	0x00081908 ; undefined
     c84:	00000000 	udf	#0
     c88:	0000033c 	udf	#828
     c8c:	00000000 	udf	#0
     c90:	03b09c01 	.inst	0x03b09c01 ; undefined
     c94:	64070000 	.inst	0x64070000 ; undefined
     c98:	1c006274 	ldr	s20, 18e4 <bss_size+0x1883>
     c9c:	00014d16 	.inst	0x00014d16 ; undefined
     ca0:	98910300 	ldrsw	x0, fffffffffff22d00 <bss_end+0xffffffffffe99f50>
     ca4:	0509017f 	.inst	0x0509017f ; undefined
     ca8:	0f1e0000 	.inst	0x0f1e0000 ; undefined
     cac:	000002a2 	udf	#674
     cb0:	01589102 	.inst	0x01589102 ; undefined
     cb4:	0000035b 	udf	#859
     cb8:	02980922 	.inst	0x02980922 ; undefined
     cbc:	91020000 	add	x0, x0, #0x80
     cc0:	02b50178 	.inst	0x02b50178 ; undefined
     cc4:	09230000 	.inst	0x09230000 ; undefined
     cc8:	00000298 	udf	#664
     ccc:	01509102 	.inst	0x01509102 ; undefined
     cd0:	000003a6 	udf	#934
     cd4:	02980924 	.inst	0x02980924 ; undefined
     cd8:	91020000 	add	x0, x0, #0x80
     cdc:	03440148 	.inst	0x03440148 ; undefined
     ce0:	0d250000 	.inst	0x0d250000 ; undefined
     ce4:	000002a7 	udf	#679
     ce8:	01709102 	.inst	0x01709102 ; undefined
     cec:	000004e6 	udf	#1254
     cf0:	003c0726 	.inst	0x003c0726 ; NYI
     cf4:	91020000 	add	x0, x0, #0x80
     cf8:	034e0144 	.inst	0x034e0144 ; undefined
     cfc:	0d280000 	.inst	0x0d280000 ; undefined
     d00:	000002ac 	udf	#684
     d04:	7fb89103 	fmulx	s3, s8, v24.s[1]
     d08:	0002dc01 	.inst	0x0002dc01 ; undefined
     d0c:	200c2900 	.inst	0x200c2900 ; undefined
     d10:	03000001 	.inst	0x03000001 ; undefined
     d14:	097fa891 	.inst	0x097fa891 ; undefined
     d18:	000819d8 	.inst	0x000819d8 ; undefined
     d1c:	00000000 	udf	#0
     d20:	00000218 	udf	#536
     d24:	00000000 	udf	#0
     d28:	0002d301 	.inst	0x0002d301 ; undefined
     d2c:	3c0d3300 	stur	b0, [x24, #211]
     d30:	03000000 	.inst	0x03000000 ; undefined
     d34:	177fb491 	b	fffffffffdfedf78 <bss_end+0xfffffffffdf651c8>
     d38:	00081b14 	.inst	0x00081b14 ; undefined
     d3c:	00000000 	udf	#0
     d40:	0000002c 	udf	#44
     d44:	00000000 	udf	#0
     d48:	00000390 	udf	#912
     d4c:	4700690d 	.inst	0x4700690d ; undefined
     d50:	0003b019 	.inst	0x0003b019 ; undefined
     d54:	68910200 	stgp	x0, x0, [x16], #544
     d58:	1b7c0900 	.inst	0x1b7c0900 ; undefined
     d5c:	00000008 	udf	#8
     d60:	00380000 	.inst	0x00380000 ; NYI
     d64:	00000000 	udf	#0
     d68:	690d0000 	stgp	x0, x0, [x0, #416]
     d6c:	3c115200 	stur	b0, [x16, #-235]
     d70:	02000000 	.inst	0x02000000 ; undefined
     d74:	00006491 	udf	#25745
     d78:	05080300 	.inst	0x05080300 ; undefined
     d7c:	000001c0 	udf	#448
     d80:	0002f808 	.inst	0x0002f808 ; undefined
     d84:	17e40c00 	b	ffffffffff903d84 <bss_end+0xffffffffff87afd4>
     d88:	00000008 	udf	#8
     d8c:	01240000 	.inst	0x01240000 ; undefined
     d90:	00000000 	udf	#0
     d94:	9c010000 	ldr	q0, 2d94 <bss_size+0x2d33>
     d98:	000003e2 	udf	#994
     d9c:	62746407 	.inst	0x62746407 ; undefined
     da0:	a2210c00 	.inst	0xa2210c00 ; undefined
     da4:	02000002 	.inst	0x02000002 ; undefined
     da8:	18007891 	ldr	w17, 1cb8 <bss_size+0x1c57>
     dac:	000002f1 	udf	#753
     db0:	580a0701 	ldr	x1, 14e90 <bss_size+0x14e2f>
     db4:	a0000000 	.inst	0xa0000000 ; undefined
     db8:	00000817 	udf	#2071
     dbc:	44000000 	.inst	0x44000000 ; undefined
     dc0:	00000000 	udf	#0
     dc4:	01000000 	.inst	0x01000000 ; undefined
     dc8:	006e079c 	.inst	0x006e079c ; undefined
     dcc:	00581a07 	.inst	0x00581a07 ; undefined
     dd0:	91020000 	add	x0, x0, #0x80
     dd4:	6500007c 	.inst	0x6500007c ; undefined
     dd8:	05000002 	orr	z2.s, z2.s, #0x1
     ddc:	dd080100 	.inst	0xdd080100 ; undefined
     de0:	0b000004 	add	w4, w0, w0
     de4:	0000004f 	udf	#79
     de8:	0000e81d 	udf	#59421
     dec:	00000e00 	udf	#3584
     df0:	081e8800 	stlxrb	w30, w0, [x0]
     df4:	00000000 	udf	#0
     df8:	00023c00 	.inst	0x00023c00 ; undefined
     dfc:	00000000 	udf	#0
     e00:	000a3500 	.inst	0x000a3500 ; undefined
     e04:	07080200 	.inst	0x07080200 ; undefined
     e08:	00000447 	udf	#1095
     e0c:	0a080102 	and	w2, w8, w8
     e10:	07000002 	.inst	0x07000002 ; undefined
     e14:	00000035 	udf	#53
     e18:	6905040c 	stgp	x12, x1, [x0, #160]
     e1c:	0d00746e 	.inst	0x0d00746e ; undefined
     e20:	00000415 	udf	#1045
     e24:	04020110 	.inst	0x04020110 ; undefined
     e28:	00008710 	udf	#34576
     e2c:	00780e00 	.inst	0x00780e00 ; undefined
     e30:	87110502 	.inst	0x87110502 ; undefined
     e34:	00000000 	udf	#0
     e38:	0004640f 	.inst	0x0004640f ; undefined
     e3c:	11060200 	add	w0, w16, #0x180
     e40:	0000002e 	udf	#46
     e44:	03d208f8 	.inst	0x03d208f8 ; undefined
     e48:	2e070000 	ext	v0.8b, v0.8b, v7.8b, #0
     e4c:	00000000 	udf	#0
     e50:	046d0801 	.inst	0x046d0801 ; undefined
     e54:	2e080000 	ext	v0.8b, v0.8b, v8.8b, #0
     e58:	08000000 	stxrb	w0, w0, [x0]
     e5c:	2e100001 	ext	v1.8b, v0.8b, v16.8b, #0
     e60:	97000000 	bl	fffffffffc000e60 <bss_end+0xfffffffffbf780b0>
     e64:	11000000 	add	w0, w0, #0x0
     e68:	0000002e 	udf	#46
     e6c:	1509001e 	b	4240ee4 <bss_end+0x41b8134>
     e70:	02000004 	.inst	0x02000004 ; undefined
     e74:	00480209 	.inst	0x00480209 ; undefined
     e78:	01020000 	.inst	0x01020000 ; undefined
     e7c:	00020306 	.inst	0x00020306 ; undefined
     e80:	05020200 	orr	z0.d, z0.d, #0x1ffff
     e84:	0000014c 	udf	#332
     e88:	c5050802 	ld1sw	{z2.d}, p2/z, [x0, z5.d, uxtw]
     e8c:	02000001 	.inst	0x02000001 ; undefined
     e90:	02010801 	.inst	0x02010801 ; undefined
     e94:	02020000 	.inst	0x02020000 ; undefined
     e98:	00021f07 	.inst	0x00021f07 ; undefined
     e9c:	07040200 	.inst	0x07040200 ; undefined
     ea0:	0000044c 	udf	#1100
     ea4:	0003fc09 	.inst	0x0003fc09 ; undefined
     ea8:	17d10300 	b	ffffffffff441aa8 <bss_end+0xffffffffff3b8cf8>
     eac:	0000002e 	udf	#46
     eb0:	c0050802 	.inst	0xc0050802 ; undefined
     eb4:	02000001 	.inst	0x02000001 ; undefined
     eb8:	01f50410 	.inst	0x01f50410 ; undefined
     ebc:	0c050000 	.inst	0x0c050000 ; undefined
     ec0:	04000004 	add	z4.b, p0/m, z4.b, z0.b
     ec4:	0000f810 	udf	#63504
     ec8:	00410100 	.inst	0x00410100 ; undefined
     ecc:	03000000 	.inst	0x03000000 ; undefined
     ed0:	00000427 	udf	#1063
     ed4:	0041050f 	.inst	0x0041050f ; undefined
     ed8:	01120000 	.inst	0x01120000 ; undefined
     edc:	b8010000 	stur	w0, [x0, #16]
     ee0:	01000000 	.inst	0x01000000 ; undefined
     ee4:	00000112 	udf	#274
     ee8:	00c60400 	.inst	0x00c60400 ; undefined
     eec:	03120000 	.inst	0x03120000 ; undefined
     ef0:	04000004 	add	z4.b, p0/m, z4.b, z0.b
     ef4:	0125060e 	.inst	0x0125060e ; undefined
     ef8:	000a0000 	.inst	0x000a0000 ; undefined
     efc:	00047403 	.inst	0x00047403 ; undefined
     f00:	41050d00 	.inst	0x41050d00 ; undefined
     f04:	3a000000 	adcs	w0, w0, w0
     f08:	01000001 	.inst	0x01000001 ; undefined
     f0c:	0000013a 	udf	#314
     f10:	00970400 	.inst	0x00970400 ; undefined
     f14:	da030000 	sbc	x0, x0, x3
     f18:	0c000003 	st4	{v3.8b-v6.8b}, [x0]
     f1c:	00004105 	udf	#16645
     f20:	00015900 	.inst	0x00015900 ; undefined
     f24:	01590100 	.inst	0x01590100 ; undefined
     f28:	5e010000 	sha1c	q0, s0, v1.4s
     f2c:	00000001 	udf	#1
     f30:	00003c04 	udf	#15364
     f34:	01680400 	.inst	0x01680400 ; undefined
     f38:	35040000 	cbnz	w0, 8f38 <bss_size+0x8ed7>
     f3c:	07000000 	.inst	0x07000000 ; undefined
     f40:	00000163 	udf	#355
     f44:	0003ee03 	.inst	0x0003ee03 ; undefined
     f48:	cd080b00 	.inst	0xcd080b00 ; undefined
     f4c:	87000000 	.inst	0x87000000 ; undefined
     f50:	01000001 	.inst	0x01000001 ; undefined
     f54:	00000163 	udf	#355
     f58:	0000cd01 	udf	#52481
     f5c:	35030000 	cbnz	w0, 6f5c <bss_size+0x6efb>
     f60:	0a000004 	and	w4, w0, w0
     f64:	0000cd08 	udf	#52488
     f68:	0001a100 	.inst	0x0001a100 ; undefined
     f6c:	01630100 	.inst	0x01630100 ; undefined
     f70:	cd010000 	.inst	0xcd010000 ; undefined
     f74:	00000000 	udf	#0
     f78:	0003e313 	.inst	0x0003e313 ; undefined
     f7c:	05090400 	.inst	0x05090400 ; undefined
     f80:	00000041 	udf	#65
     f84:	000001b3 	udf	#435
     f88:	0f05000a 	.inst	0x0f05000a ; undefined
     f8c:	05000002 	orr	z2.s, z2.s, #0x1
     f90:	0001c41e 	.inst	0x0001c41e ; undefined
     f94:	003c0100 	.inst	0x003c0100 ; NYI
     f98:	05000000 	orr	z0.s, z0.s, #0x1
     f9c:	00000459 	udf	#1113
     fa0:	01d52005 	.inst	0x01d52005 ; undefined
     fa4:	c6010000 	.inst	0xc6010000 ; undefined
     fa8:	00000000 	udf	#0
     fac:	00002a05 	udf	#10757
     fb0:	e61f0500 	.inst	0xe61f0500 ; undefined
     fb4:	01000001 	.inst	0x01000001 ; undefined
     fb8:	00000159 	udf	#345
     fbc:	047d1400 	uqadd	z0.h, z0.h, z29.h
     fc0:	20010000 	.inst	0x20010000 ; undefined
     fc4:	00004105 	udf	#16645
     fc8:	081f1400 	stxrb	wzr, w0, [x0]
     fcc:	00000000 	udf	#0
     fd0:	0001b000 	.inst	0x0001b000 ; undefined
     fd4:	00000000 	udf	#0
     fd8:	179c0100 	b	fffffffffe7013d8 <bss_end+0xfffffffffe678628>
     fdc:	15000002 	b	4000fe4 <bss_end+0x3f78234>
     fe0:	01006674 	.inst	0x01006674 ; undefined
     fe4:	013a2620 	.inst	0x013a2620 ; undefined
     fe8:	91020000 	add	x0, x0, #0x80
     fec:	83160078 	.inst	0x83160078 ; undefined
     ff0:	01000004 	.inst	0x01000004 ; undefined
     ff4:	00410507 	.inst	0x00410507 ; undefined
     ff8:	1e880000 	.inst	0x1e880000 ; undefined
     ffc:	00000008 	udf	#8
    1000:	008c0000 	.inst	0x008c0000 ; undefined
    1004:	00000000 	udf	#0
    1008:	9c010000 	ldr	q0, 3008 <bss_size+0x2fa7>
    100c:	00000261 	udf	#609
    1010:	00046406 	.inst	0x00046406 ; undefined
    1014:	02611600 	.inst	0x02611600 ; undefined
    1018:	91020000 	add	x0, x0, #0x80
    101c:	03d20678 	.inst	0x03d20678 ; undefined
    1020:	61200000 	.inst	0x61200000 ; undefined
    1024:	02000002 	.inst	0x02000002 ; undefined
    1028:	1f067091 	fmadd	s17, s4, s6, s28
    102c:	29000004 	stp	w4, w0, [x0]
    1030:	00000261 	udf	#609
    1034:	00689102 	.inst	0x00689102 ; undefined
    1038:	42070802 	.inst	0x42070802 ; undefined
    103c:	00000004 	udf	#4
    1040:	00000113 	udf	#275
    1044:	08010005 	stxrb	w1, w5, [x0]
    1048:	0000063d 	udf	#1597
    104c:	00004f04 	udf	#20228
    1050:	010d1d00 	.inst	0x010d1d00 ; undefined
    1054:	000e0000 	.inst	0x000e0000 ; undefined
    1058:	20c40000 	.inst	0x20c40000 ; undefined
    105c:	00000008 	udf	#8
    1060:	00f00000 	.inst	0x00f00000 ; undefined
    1064:	00000000 	udf	#0
    1068:	0b140000 	add	w0, w0, w20
    106c:	08010000 	stxrb	w1, w0, [x0]
    1070:	0001c505 	.inst	0x0001c505 ; undefined
    1074:	07080100 	.inst	0x07080100 ; undefined
    1078:	00000447 	udf	#1095
    107c:	4c070401 	.inst	0x4c070401 ; undefined
    1080:	01000004 	.inst	0x01000004 ; undefined
    1084:	01c00508 	.inst	0x01c00508 ; undefined
    1088:	10010000 	adr	x0, 3088 <bss_size+0x3027>
    108c:	0001f504 	.inst	0x0001f504 ; undefined
    1090:	04930300 	umulh	z0.s, p0/m, z0.s, z24.s
    1094:	0c070000 	.inst	0x0c070000 ; undefined
    1098:	0000005c 	udf	#92
    109c:	69050405 	stgp	x5, x1, [x0, #160]
    10a0:	0300746e 	.inst	0x0300746e ; undefined
    10a4:	000004c9 	udf	#1225
    10a8:	006e0e08 	.inst	0x006e0e08 ; undefined
    10ac:	08060000 	stxrb	w6, w0, [x0]
    10b0:	00006307 	udf	#25351
    10b4:	07030100 	.inst	0x07030100 ; undefined
    10b8:	8ab00309 	bic	x9, x24, x16, asr #0
    10bc:	00000008 	udf	#8
    10c0:	c8080000 	stxr	w8, x0, [x0]
    10c4:	01000000 	.inst	0x01000000 ; undefined
    10c8:	006e070a 	.inst	0x006e070a ; undefined
    10cc:	21180000 	.inst	0x21180000 ; undefined
    10d0:	00000008 	udf	#8
    10d4:	009c0000 	.inst	0x009c0000 ; undefined
    10d8:	00000000 	udf	#0
    10dc:	9c010000 	ldr	q0, 30dc <bss_size+0x307b>
    10e0:	000000d5 	udf	#213
    10e4:	01006e09 	.inst	0x01006e09 ; undefined
    10e8:	005c190a 	.inst	0x005c190a ; undefined
    10ec:	91020000 	add	x0, x0, #0x80
    10f0:	049b026c 	bic	z12.s, p0/m, z12.s, z19.s
    10f4:	100b0000 	adr	x0, 170f4 <bss_size+0x17093>
    10f8:	000000d5 	udf	#213
    10fc:	8ab80309 	bic	x9, x24, x24, asr #0
    1100:	00000008 	udf	#8
    1104:	ae020000 	.inst	0xae020000 ; undefined
    1108:	10000004 	adr	x4, 1108 <bss_size+0x10a7>
    110c:	00006e09 	udf	#28169
    1110:	78910200 	ldursh	x0, [x16, #-240]
    1114:	db080a00 	.inst	0xdb080a00 ; undefined
    1118:	01000000 	.inst	0x01000000 ; undefined
    111c:	020a0801 	.inst	0x020a0801 ; undefined
    1120:	a40b0000 	ld1rqb	{z0.b}, p0/z, [x0, x11]
    1124:	01000004 	.inst	0x01000004 ; undefined
    1128:	20c40605 	.inst	0x20c40605 ; undefined
    112c:	00000008 	udf	#8
    1130:	00540000 	.inst	0x00540000 ; undefined
    1134:	00000000 	udf	#0
    1138:	9c010000 	ldr	q0, 3138 <bss_size+0x30d7>
    113c:	0000010f 	udf	#271
    1140:	0004bf02 	.inst	0x0004bf02 ; undefined
    1144:	0f160600 	sshr	v0.4h, v16.4h, #10
    1148:	02000001 	.inst	0x02000001 ; undefined
    114c:	01007891 	.inst	0x01007891 ; undefined
    1150:	04420708 	.inst	0x04420708 ; undefined
    1154:	11000000 	add	w0, w0, #0x0
    1158:	05000005 	orr	z5.s, z5.s, #0x1
    115c:	f3080100 	.inst	0xf3080100 ; undefined
    1160:	10000006 	adr	x6, 1160 <bss_size+0x10ff>
    1164:	0000004f 	udf	#79
    1168:	00011f1d 	.inst	0x00011f1d ; undefined
    116c:	00000e00 	udf	#3584
    1170:	0821b400 	.inst	0x0821b400 ; undefined
    1174:	00000000 	udf	#0
    1178:	00050400 	.inst	0x00050400 ; undefined
    117c:	00000000 	udf	#0
    1180:	000ba100 	.inst	0x000ba100 ; undefined
    1184:	026e1100 	.inst	0x026e1100 ; undefined
    1188:	00e00905 	.inst	0x00e00905 ; undefined
    118c:	48020000 	stxrh	w2, w0, [x0]
    1190:	06000005 	.inst	0x06000005 ; undefined
    1194:	0000e00a 	udf	#57354
    1198:	d2020000 	eor	x0, x0, #0x4000000040000000
    119c:	07000004 	.inst	0x07000004 ; undefined
    11a0:	0001030a 	.inst	0x0001030a ; undefined
    11a4:	a6020600 	.inst	0xa6020600 ; undefined
    11a8:	08000005 	stxrb	w0, w5, [x0]
    11ac:	0001030a 	.inst	0x0001030a ; undefined
    11b0:	1b020e00 	madd	w0, w16, w2, w3
    11b4:	09000005 	.inst	0x09000005 ; undefined
    11b8:	0001030b 	.inst	0x0001030b ; undefined
    11bc:	86021600 	.inst	0x86021600 ; undefined
    11c0:	0a000005 	and	w5, w0, w0
    11c4:	0001030b 	.inst	0x0001030b ; undefined
    11c8:	77021e00 	.inst	0x77021e00 ; undefined
    11cc:	0b000005 	add	w5, w0, w0
    11d0:	0001030b 	.inst	0x0001030b ; undefined
    11d4:	fc022600 	str	d0, [x16], #34
    11d8:	0c000004 	st4	{v4.8b-v7.8b}, [x0]
    11dc:	0001030b 	.inst	0x0001030b ; undefined
    11e0:	10022e00 	adr	x0, 57a0 <bss_size+0x573f>
    11e4:	0d000005 	st1	{v5.b}[0], [x0]
    11e8:	0001030b 	.inst	0x0001030b ; undefined
    11ec:	8c023600 	.inst	0x8c023600 ; undefined
    11f0:	0e000005 	tbl	v5.8b, {v0.16b}, v0.8b
    11f4:	0001030b 	.inst	0x0001030b ; undefined
    11f8:	50023e00 	adr	x0, 59ba <bss_size+0x5959>
    11fc:	0f000005 	.inst	0x0f000005 ; undefined
    1200:	0001030b 	.inst	0x0001030b ; undefined
    1204:	2a024600 	orr	w0, w16, w2, lsl #17
    1208:	10000005 	adr	x5, 1208 <bss_size+0x11a7>
    120c:	0001030b 	.inst	0x0001030b ; undefined
    1210:	c9024e00 	.inst	0xc9024e00 ; undefined
    1214:	11000005 	add	w5, w0, #0x0
    1218:	0001030b 	.inst	0x0001030b ; undefined
    121c:	5b025600 	.inst	0x5b025600 ; undefined
    1220:	12000005 	and	w5, w0, #0x1
    1224:	0001030b 	.inst	0x0001030b ; undefined
    1228:	36025e00 	tbz	w0, #0, 5de8 <bss_size+0x5d87>
    122c:	13000005 	sbfx	w5, w0, #0, #1
    1230:	0001030b 	.inst	0x0001030b ; undefined
    1234:	0a006600 	and	w0, w16, w0, lsl #25
    1238:	000000f7 	udf	#247
    123c:	000000f0 	udf	#240
    1240:	0000f00b 	udf	#61451
    1244:	04000500 	add	z0.b, p1/m, z0.b, z8.b
    1248:	04470708 	.inst	0x04470708 ; undefined
    124c:	01040000 	.inst	0x01040000 ; undefined
    1250:	00020a08 	.inst	0x00020a08 ; undefined
    1254:	00f71200 	.inst	0x00f71200 ; undefined
    1258:	f70a0000 	.inst	0xf70a0000 ; undefined
    125c:	13000000 	sbfx	w0, w0, #0, #1
    1260:	0b000001 	add	w1, w0, w0
    1264:	000000f0 	udf	#240
    1268:	040c0007 	sabd	z7.b, p0/m, z7.b, z0.b
    126c:	02000005 	.inst	0x02000005 ; undefined
    1270:	002e0214 	.inst	0x002e0214 ; NYI
    1274:	f70a0000 	.inst	0xf70a0000 ; undefined
    1278:	2f000000 	.inst	0x2f000000 ; undefined
    127c:	0b000001 	add	w1, w0, w0
    1280:	000000f0 	udf	#240
    1284:	041300ff 	umulh	z31.b, p0/m, z31.b, z7.b
    1288:	746e6905 	.inst	0x746e6905 ; undefined
    128c:	06010400 	.inst	0x06010400 ; undefined
    1290:	00000203 	udf	#515
    1294:	4c050204 	.inst	0x4c050204 ; undefined
    1298:	04000001 	add	z1.b, p0/m, z1.b, z0.b
    129c:	01c50508 	.inst	0x01c50508 ; undefined
    12a0:	01040000 	.inst	0x01040000 ; undefined
    12a4:	00020108 	.inst	0x00020108 ; undefined
    12a8:	07020400 	.inst	0x07020400 ; undefined
    12ac:	0000021f 	udf	#543
    12b0:	0003990c 	.inst	0x0003990c ; undefined
    12b4:	19340300 	.inst	0x19340300 ; undefined
    12b8:	00000165 	udf	#357
    12bc:	4c070404 	.inst	0x4c070404 ; undefined
    12c0:	0c000004 	st4	{v4.8b-v7.8b}, [x0]
    12c4:	000002c9 	udf	#713
    12c8:	f01a5603 	adrp	x3, 34ac4000 <bss_end+0x34a3b250>
    12cc:	01000000 	.inst	0x01000000 ; undefined
    12d0:	000004ee 	udf	#1262
    12d4:	018d0e06 	.inst	0x018d0e06 ; undefined
    12d8:	03090000 	.inst	0x03090000 ; undefined
    12dc:	00088ac0 	.inst	0x00088ac0 ; undefined
    12e0:	00000000 	udf	#0
    12e4:	d8010814 	prfm	pstl3keep, 33e4 <bss_size+0x3383>
    12e8:	07000004 	.inst	0x07000004 ; undefined
    12ec:	00018d0e 	.inst	0x00018d0e ; undefined
    12f0:	c8030900 	stxr	w3, x0, [x8]
    12f4:	0000088a 	udf	#2186
    12f8:	01000000 	.inst	0x01000000 ; undefined
    12fc:	000001dc 	udf	#476
    1300:	012f0c08 	.inst	0x012f0c08 ; undefined
    1304:	03090000 	.inst	0x03090000 ; undefined
    1308:	00088ad0 	.inst	0x00088ad0 ; undefined
    130c:	00000000 	udf	#0
    1310:	0002f106 	.inst	0x0002f106 ; undefined
    1314:	0a3b0400 	bic	w0, w0, w27, lsl #1
    1318:	00000159 	udf	#345
    131c:	000001cf 	udf	#463
    1320:	00015903 	.inst	0x00015903 ; undefined
    1324:	7f060000 	.inst	0x7f060000 ; undefined
    1328:	05000005 	orr	z5.s, z5.s, #0x1
    132c:	012f0505 	.inst	0x012f0505 ; undefined
    1330:	01ea0000 	.inst	0x01ea0000 ; undefined
    1334:	ea030000 	ands	x0, x0, x3
    1338:	03000001 	.inst	0x03000001 ; undefined
    133c:	000001ea 	udf	#490
    1340:	00fe0700 	.inst	0x00fe0700 ; undefined
    1344:	c2060000 	.inst	0xc2060000 ; undefined
    1348:	05000002 	orr	z2.s, z2.s, #0x1
    134c:	012f0509 	.inst	0x012f0509 ; undefined
    1350:	020f0000 	.inst	0x020f0000 ; undefined
    1354:	0f030000 	.inst	0x0f030000 ; undefined
    1358:	03000002 	.inst	0x03000002 ; undefined
    135c:	0000020f 	udf	#527
    1360:	00012f03 	.inst	0x00012f03 ; undefined
    1364:	14070000 	b	1c1364 <bss_end+0x1385b4>
    1368:	15000002 	b	4001370 <bss_end+0x3f785c0>
    136c:	00020f0e 	.inst	0x00020f0e ; undefined
    1370:	02251e00 	.inst	0x02251e00 ; undefined
    1374:	fe030000 	.inst	0xfe030000 ; undefined
    1378:	00000000 	udf	#0
    137c:	00002a0e 	udf	#10766
    1380:	02351f00 	.inst	0x02351f00 ; undefined
    1384:	ea030000 	ands	x0, x0, x3
    1388:	00000001 	udf	#1
    138c:	0005ad06 	.inst	0x0005ad06 ; undefined
    1390:	050b0500 	.inst	0x050b0500 ; undefined
    1394:	0000012f 	udf	#303
    1398:	00000250 	udf	#592
    139c:	0001ea03 	.inst	0x0001ea03 ; undefined
    13a0:	012f0300 	.inst	0x012f0300 ; undefined
    13a4:	0d000000 	st1	{v0.b}[0], [x0]
    13a8:	000001d8 	udf	#472
    13ac:	012f0563 	.inst	0x012f0563 ; undefined
    13b0:	26a80000 	.inst	0x26a80000 ; undefined
    13b4:	00000008 	udf	#8
    13b8:	00100000 	.inst	0x00100000 ; undefined
    13bc:	00000000 	udf	#0
    13c0:	9c010000 	ldr	q0, 33c0 <bss_size+0x335f>
    13c4:	0005970d 	.inst	0x0005970d ; undefined
    13c8:	8d075f00 	.inst	0x8d075f00 ; undefined
    13cc:	98000001 	ldrsw	x1, 13cc <bss_size+0x136b>
    13d0:	00000826 	udf	#2086
    13d4:	10000000 	adr	x0, 13d4 <bss_size+0x1373>
    13d8:	00000000 	udf	#0
    13dc:	01000000 	.inst	0x01000000 ; undefined
    13e0:	05660d9c 	ext	z28.b, {z12.b, z13.b}, #51
    13e4:	075b0000 	.inst	0x075b0000 ; undefined
    13e8:	0000018d 	udf	#397
    13ec:	00082688 	.inst	0x00082688 ; undefined
    13f0:	00000000 	udf	#0
    13f4:	00000010 	udf	#16
    13f8:	00000000 	udf	#0
    13fc:	26169c01 	.inst	0x26169c01 ; undefined
    1400:	01000001 	.inst	0x01000001 ; undefined
    1404:	018d0746 	.inst	0x018d0746 ; undefined
    1408:	25300000 	whilege	p0.b, w0, w16
    140c:	00000008 	udf	#8
    1410:	01580000 	.inst	0x01580000 ; undefined
    1414:	00000000 	udf	#0
    1418:	9c010000 	ldr	q0, 3418 <bss_size+0x33b7>
    141c:	0000033e 	udf	#830
    1420:	00016a08 	.inst	0x00016a08 ; undefined
    1424:	3e184600 	.inst	0x3e184600 ; undefined
    1428:	02000003 	.inst	0x02000003 ; undefined
    142c:	9a015891 	.inst	0x9a015891 ; undefined
    1430:	4700000a 	.inst	0x4700000a ; undefined
    1434:	00033e09 	.inst	0x00033e09 ; undefined
    1438:	78910200 	ldursh	x0, [x16, #-240]
    143c:	0006f001 	.inst	0x0006f001 ; undefined
    1440:	43104800 	.inst	0x43104800 ; undefined
    1444:	02000003 	.inst	0x02000003 ; undefined
    1448:	50057091 	adr	x17, c25a <bss_size+0xc1f9>
    144c:	00000825 	udf	#2085
    1450:	ec000000 	.inst	0xec000000 ; undefined
    1454:	00000000 	udf	#0
    1458:	01000000 	.inst	0x01000000 ; undefined
    145c:	00000512 	udf	#1298
    1460:	012f094c 	.inst	0x012f094c ; undefined
    1464:	91020000 	add	x0, x0, #0x80
    1468:	055d016c 	mov	z12.h, p13/z, #11
    146c:	094d0000 	.inst	0x094d0000 ; undefined
    1470:	0000012f 	udf	#303
    1474:	01689102 	.inst	0x01689102 ; undefined
    1478:	0000053e 	udf	#1342
    147c:	012f094e 	.inst	0x012f094e ; undefined
    1480:	91020000 	add	x0, x0, #0x80
    1484:	04e40164 	add	z4.d, z11.d, z4.d
    1488:	094f0000 	.inst	0x094f0000 ; undefined
    148c:	0000012f 	udf	#303
    1490:	00609102 	.inst	0x00609102 ; undefined
    1494:	00f70700 	.inst	0x00f70700 ; undefined
    1498:	13070000 	sbfiz	w0, w0, #25, #1
    149c:	0f000001 	.inst	0x0f000001 ; undefined
    14a0:	000005b6 	udf	#1462
    14a4:	0824943a 	.inst	0x0824943a ; undefined
    14a8:	00000000 	udf	#0
    14ac:	00009c00 	udf	#39936
    14b0:	00000000 	udf	#0
    14b4:	c59c0100 	.inst	0xc59c0100 ; undefined
    14b8:	08000003 	stxrb	w0, w3, [x0]
    14bc:	000000d6 	udf	#214
    14c0:	018d1f3a 	.inst	0x018d1f3a ; undefined
    14c4:	91020000 	add	x0, x0, #0x80
    14c8:	05210868 	ext	z8.b, z8.b, z3.b, #10
    14cc:	2b3a0000 	adds	w0, w0, w26, uxtb
    14d0:	0000033e 	udf	#830
    14d4:	17609102 	b	fffffffffd8258dc <bss_end+0xfffffffffd79cb2c>
    14d8:	000824bc 	.inst	0x000824bc ; undefined
    14dc:	00000000 	udf	#0
    14e0:	00000028 	udf	#40
    14e4:	00000000 	udf	#0
    14e8:	000003a4 	udf	#932
    14ec:	706d7409 	adr	x9, dc36f <bss_end+0x535bf>
    14f0:	590e3c00 	.inst	0x590e3c00 ; undefined
    14f4:	02000001 	.inst	0x02000001 ; undefined
    14f8:	05007c91 	orr	z17.h, z17.h, #0x3e
    14fc:	000824fc 	.inst	0x000824fc ; undefined
    1500:	00000000 	udf	#0
    1504:	00000028 	udf	#40
    1508:	00000000 	udf	#0
    150c:	706d7409 	adr	x9, dc38f <bss_end+0x535df>
    1510:	590e4000 	stlurh	w0, [x0, #228]
    1514:	02000001 	.inst	0x02000001 ; undefined
    1518:	00007891 	udf	#30865
    151c:	0001730f 	.inst	0x0001730f ; undefined
    1520:	22f42200 	.inst	0x22f42200 ; undefined
    1524:	00000008 	udf	#8
    1528:	01a00000 	.inst	0x01a00000 ; undefined
    152c:	00000000 	udf	#0
    1530:	9c010000 	ldr	q0, 3530 <bss_size+0x34cf>
    1534:	00000474 	udf	#1140
    1538:	00016a08 	.inst	0x00016a08 ; undefined
    153c:	3e172200 	.inst	0x3e172200 ; undefined
    1540:	02000003 	.inst	0x02000003 ; undefined
    1544:	9a014891 	.inst	0x9a014891 ; undefined
    1548:	2300000a 	.inst	0x2300000a ; undefined
    154c:	00033e09 	.inst	0x00033e09 ; undefined
    1550:	78910200 	ldursh	x0, [x16, #-240]
    1554:	0006f001 	.inst	0x0006f001 ; undefined
    1558:	43102400 	.inst	0x43102400 ; undefined
    155c:	02000003 	.inst	0x02000003 ; undefined
    1560:	14056891 	b	15b7a4 <bss_end+0xd29f4>
    1564:	00000823 	udf	#2083
    1568:	18000000 	ldr	w0, 1568 <bss_size+0x1507>
    156c:	00000001 	udf	#1
    1570:	01000000 	.inst	0x01000000 ; undefined
    1574:	00000512 	udf	#1298
    1578:	012f0928 	.inst	0x012f0928 ; undefined
    157c:	91020000 	add	x0, x0, #0x80
    1580:	055d0164 	mov	z4.h, p13/z, #11
    1584:	09290000 	.inst	0x09290000 ; undefined
    1588:	0000012f 	udf	#303
    158c:	01609102 	.inst	0x01609102 ; undefined
    1590:	0000053e 	udf	#1342
    1594:	012f092a 	.inst	0x012f092a ; undefined
    1598:	91020000 	add	x0, x0, #0x80
    159c:	04e4015c 	add	z28.d, z10.d, z4.d
    15a0:	092b0000 	.inst	0x092b0000 ; undefined
    15a4:	0000012f 	udf	#303
    15a8:	05589102 	.inst	0x05589102 ; undefined
    15ac:	000823a4 	.inst	0x000823a4 ; undefined
    15b0:	00000000 	udf	#0
    15b4:	0000004c 	udf	#76
    15b8:	00000000 	udf	#0
    15bc:	2e006909 	.inst	0x2e006909 ; undefined
    15c0:	00012f0f 	.inst	0x00012f0f ; undefined
    15c4:	74910200 	.inst	0x74910200 ; undefined
    15c8:	18000000 	ldr	w0, 15c8 <bss_size+0x1567>
    15cc:	000001af 	udf	#431
    15d0:	b4060a01 	cbz	x1, d710 <bss_size+0xd6af>
    15d4:	00000821 	udf	#2081
    15d8:	40000000 	.inst	0x40000000 ; undefined
    15dc:	00000001 	udf	#1
    15e0:	01000000 	.inst	0x01000000 ; undefined
    15e4:	0a9a019c 	and	w28, w12, w26, asr #0
    15e8:	090b0000 	.inst	0x090b0000 ; undefined
    15ec:	0000033e 	udf	#830
    15f0:	01789102 	.inst	0x01789102 ; undefined
    15f4:	000006f0 	udf	#1776
    15f8:	0343100c 	.inst	0x0343100c ; undefined
    15fc:	91020000 	add	x0, x0, #0x80
    1600:	21d00568 	.inst	0x21d00568 ; undefined
    1604:	00000008 	udf	#8
    1608:	00d80000 	.inst	0x00d80000 ; undefined
    160c:	00000000 	udf	#0
    1610:	6a010000 	ands	w0, w0, w1
    1614:	0f000001 	.inst	0x0f000001 ; undefined
    1618:	00011f0a 	.inst	0x00011f0a ; undefined
    161c:	d8910300 	prfm	pldl1keep, fffffffffff2367c <bss_end+0xffffffffffe9a8cc>
    1620:	0512017d 	mov	z29.b, p2/z, #11
    1624:	09110000 	.inst	0x09110000 ; undefined
    1628:	0000012f 	udf	#303
    162c:	01649102 	.inst	0x01649102 ; undefined
    1630:	0000055d 	udf	#1373
    1634:	012f0912 	.inst	0x012f0912 ; undefined
    1638:	91020000 	add	x0, x0, #0x80
    163c:	04e60160 	add	z0.d, z11.d, z6.d
    1640:	09140000 	.inst	0x09140000 ; undefined
    1644:	0000012f 	udf	#303
    1648:	055c9102 	.inst	0x055c9102 ; undefined
    164c:	00082220 	.inst	0x00082220 ; undefined
    1650:	00000000 	udf	#0
    1654:	00000044 	udf	#68
    1658:	00000000 	udf	#0
    165c:	16006909 	b	fffffffff801ba80 <bss_end+0xfffffffff7f92cd0>
    1660:	00012f0d 	.inst	0x00012f0d ; undefined
    1664:	74910200 	.inst	0x74910200 ; undefined
    1668:	00000000 	udf	#0
    166c:	00000518 	udf	#1304
    1670:	08010005 	stxrb	w1, w5, [x0]
    1674:	00000866 	udf	#2150
    1678:	00004f10 	udf	#20240
    167c:	012c1d00 	.inst	0x012c1d00 ; undefined
    1680:	000e0000 	.inst	0x000e0000 ; undefined
    1684:	26b80000 	.inst	0x26b80000 ; undefined
    1688:	00000008 	udf	#8
    168c:	07dc0000 	.inst	0x07dc0000 ; undefined
    1690:	00000000 	udf	#0
    1694:	0dcf0000 	ld1	{v0.b}[0], [x0], x15
    1698:	01010000 	.inst	0x01010000 ; undefined
    169c:	00020306 	.inst	0x00020306 ; undefined
    16a0:	05020100 	orr	z0.d, z0.d, #0x1ff
    16a4:	0000014c 	udf	#332
    16a8:	69050411 	stgp	x17, x1, [x0, #160]
    16ac:	0100746e 	.inst	0x0100746e ; undefined
    16b0:	01c50508 	.inst	0x01c50508 ; undefined
    16b4:	01010000 	.inst	0x01010000 ; undefined
    16b8:	00020108 	.inst	0x00020108 ; undefined
    16bc:	07020100 	.inst	0x07020100 ; undefined
    16c0:	0000021f 	udf	#543
    16c4:	00039908 	.inst	0x00039908 ; undefined
    16c8:	19340200 	.inst	0x19340200 ; undefined
    16cc:	00000064 	udf	#100
    16d0:	4c070401 	.inst	0x4c070401 ; undefined
    16d4:	08000004 	stxrb	w0, w4, [x0]
    16d8:	00000137 	udf	#311
    16dc:	77193702 	.inst	0x77193702 ; undefined
    16e0:	01000000 	.inst	0x01000000 ; undefined
    16e4:	04470708 	.inst	0x04470708 ; undefined
    16e8:	420d0000 	.inst	0x420d0000 ; undefined
    16ec:	18000007 	ldr	w7, 16ec <bss_size+0x168b>
    16f0:	00b20e03 	.inst	0x00b20e03 ; undefined
    16f4:	d5040000 	msr	s0_4_c0_c0_0, x0
    16f8:	03000005 	.inst	0x03000005 ; undefined
    16fc:	00580c0f 	.inst	0x00580c0f ; undefined
    1700:	04000000 	add	z0.b, p0/m, z0.b, z0.b
    1704:	000005c0 	udf	#1472
    1708:	b7091003 	tbnz	x3, #33, 3908 <bss_size+0x38a7>
    170c:	08000000 	stxrb	w0, w0, [x0]
    1710:	0002ab04 	.inst	0x0002ab04 ; undefined
    1714:	14110300 	b	442314 <bss_end+0x3b9564>
    1718:	000000bc 	udf	#188
    171c:	3c120010 	stur	b16, [x0, #-224]
    1720:	02000000 	.inst	0x02000000 ; undefined
    1724:	000000b2 	udf	#178
    1728:	00007e02 	udf	#32258
    172c:	063e0800 	.inst	0x063e0800 ; undefined
    1730:	12030000 	and	w0, w0, #0x20000000
    1734:	00007e02 	udf	#32258
    1738:	06e70500 	.inst	0x06e70500 ; undefined
    173c:	14030000 	b	c173c <bss_end+0x3898c>
    1740:	0000d914 	udf	#55572
    1744:	00c10200 	.inst	0x00c10200 ; undefined
    1748:	ee130000 	.inst	0xee130000 ; undefined
    174c:	ee000000 	.inst	0xee000000 ; undefined
    1750:	14000000 	b	1750 <bss_size+0x16ef>
    1754:	00000077 	udf	#119
    1758:	010100ff 	.inst	0x010100ff ; undefined
    175c:	00020a08 	.inst	0x00020a08 ; undefined
    1760:	00ee1500 	.inst	0x00ee1500 ; undefined
    1764:	a3050000 	.inst	0xa3050000 ; undefined
    1768:	04000006 	add	z6.b, p0/m, z6.b, z0.b
    176c:	00de0d14 	.inst	0x00de0d14 ; undefined
    1770:	b2050000 	orr	x0, x0, #0x800000008000000
    1774:	04000006 	add	z6.b, p0/m, z6.b, z0.b
    1778:	00de0d15 	.inst	0x00de0d15 ; undefined
    177c:	57050000 	.inst	0x57050000 ; undefined
    1780:	04000007 	add	z7.b, p0/m, z7.b, z0.b
    1784:	003c0c16 	.inst	0x003c0c16 ; NYI
    1788:	4b050000 	sub	w0, w0, w5
    178c:	04000007 	add	z7.b, p0/m, z7.b, z0.b
    1790:	003c0c18 	.inst	0x003c0c18 ; NYI
    1794:	f1050000 	subs	x0, x0, #0x140
    1798:	04000005 	add	z5.b, p0/m, z5.b, z0.b
    179c:	003c0c19 	.inst	0x003c0c19 ; NYI
    17a0:	f60d0000 	.inst	0xf60d0000 ; undefined
    17a4:	2000000a 	.inst	0x2000000a ; undefined
    17a8:	01770605 	.inst	0x01770605 ; undefined
    17ac:	e2040000 	.inst	0xe2040000 ; undefined
    17b0:	05000006 	orr	z6.s, z6.s, #0x1
    17b4:	006b0c07 	.inst	0x006b0c07 ; undefined
    17b8:	04000000 	add	z0.b, p0/m, z0.b, z0.b
    17bc:	000005c0 	udf	#1472
    17c0:	840a0805 	ld1sb	{z5.s}, p2/z, [x0, z10.s, uxtw]
    17c4:	08000001 	stxrb	w0, w1, [x0]
    17c8:	0002a604 	.inst	0x0002a604 ; undefined
    17cc:	090a0500 	.inst	0x090a0500 ; undefined
    17d0:	00000182 	udf	#386
    17d4:	02ab0410 	.inst	0x02ab0410 ; undefined
    17d8:	0b050000 	add	w0, w0, w5
    17dc:	00018911 	.inst	0x00018911 ; undefined
    17e0:	16001800 	b	fffffffff80077e0 <bss_end+0xfffffffff7f7ea30>
    17e4:	00000182 	udf	#386
    17e8:	00018206 	.inst	0x00018206 ; undefined
    17ec:	08170000 	stxrb	w23, w0, [x0]
    17f0:	00017702 	.inst	0x00017702 ; undefined
    17f4:	01360200 	.inst	0x01360200 ; undefined
    17f8:	d6080000 	.inst	0xd6080000 ; undefined
    17fc:	05000006 	orr	z6.s, z6.s, #0x1
    1800:	0136020c 	.inst	0x0136020c ; undefined
    1804:	33050000 	bfi	w0, w0, #27, #1
    1808:	05000007 	orr	z7.s, z7.s, #0x1
    180c:	01a6110e 	.inst	0x01a6110e ; undefined
    1810:	8e020000 	.inst	0x8e020000 ; undefined
    1814:	01000001 	.inst	0x01000001 ; undefined
    1818:	01c00508 	.inst	0x01c00508 ; undefined
    181c:	10010000 	adr	x0, 381c <bss_size+0x37bb>
    1820:	0001f504 	.inst	0x0001f504 ; undefined
    1824:	06ca0300 	.inst	0x06ca0300 ; undefined
    1828:	0c0b0000 	.inst	0x0c0b0000 ; undefined
    182c:	0000003c 	udf	#60
    1830:	8ae40309 	bic	x9, x24, x4, ror #0
    1834:	00000008 	udf	#8
    1838:	cd180000 	.inst	0xcd180000 ; undefined
    183c:	01000000 	.inst	0x01000000 ; undefined
    1840:	03090d0d 	.inst	0x03090d0d ; undefined
    1844:	00088ad8 	.inst	0x00088ad8 ; undefined
    1848:	00000000 	udf	#0
    184c:	00071e19 	.inst	0x00071e19 ; undefined
    1850:	05340100 	ext	z0.b, z0.b, z8.b, #160
    1854:	0000003c 	udf	#60
    1858:	8ae00309 	bic	x9, x24, x0, ror #0
    185c:	00000008 	udf	#8
    1860:	de1a0000 	.inst	0xde1a0000 ; undefined
    1864:	05000006 	orr	z6.s, z6.s, #0x1
    1868:	006b0a11 	.inst	0x006b0a11 ; undefined
    186c:	02080000 	.inst	0x02080000 ; undefined
    1870:	001b0000 	.inst	0x001b0000 ; undefined
    1874:	0005eb0a 	.inst	0x0005eb0a ; undefined
    1878:	19310600 	.inst	0x19310600 ; undefined
    187c:	06000002 	.inst	0x06000002 ; undefined
    1880:	00000182 	udf	#386
    1884:	02900a00 	.inst	0x02900a00 ; undefined
    1888:	14050000 	b	141888 <bss_end+0xb8ad8>
    188c:	0000022f 	udf	#559
    1890:	00022f06 	.inst	0x00022f06 ; undefined
    1894:	006b0600 	.inst	0x006b0600 ; undefined
    1898:	02000000 	.inst	0x02000000 ; undefined
    189c:	000000ee 	udf	#238
    18a0:	00002a0a 	udf	#10762
    18a4:	451f0400 	.inst	0x451f0400 ; undefined
    18a8:	06000002 	.inst	0x06000002 ; undefined
    18ac:	00000245 	udf	#581
    18b0:	00f50200 	.inst	0x00f50200 ; undefined
    18b4:	791c0000 	strh	w0, [x0, #3584]
    18b8:	06000002 	.inst	0x06000002 ; undefined
    18bc:	01820730 	.inst	0x01820730 ; undefined
    18c0:	02600000 	.inst	0x02600000 ; undefined
    18c4:	3c060000 	stur	b0, [x0, #96]
    18c8:	00000000 	udf	#0
    18cc:	0006491d 	.inst	0x0006491d ; undefined
    18d0:	05f60100 	.inst	0x05f60100 ; undefined
    18d4:	0000003c 	udf	#60
    18d8:	00082ddc 	.inst	0x00082ddc ; undefined
    18dc:	00000000 	udf	#0
    18e0:	000000b8 	udf	#184
    18e4:	00000000 	udf	#0
    18e8:	231e9c01 	.inst	0x231e9c01 ; undefined
    18ec:	01000007 	.inst	0x01000007 ; undefined
    18f0:	003c05ed 	.inst	0x003c05ed ; NYI
    18f4:	2d240000 	stp	s0, s0, [x0, #-224]
    18f8:	00000008 	udf	#8
    18fc:	00b80000 	.inst	0x00b80000 ; undefined
    1900:	00000000 	udf	#0
    1904:	9c010000 	ldr	q0, 3904 <bss_size+0x38a3>
    1908:	000002ad 	udf	#685
    190c:	ef006307 	.inst	0xef006307 ; undefined
    1910:	0000ee08 	udf	#60936
    1914:	7f910200 	.inst	0x7f910200 ; undefined
    1918:	06080900 	.inst	0x06080900 ; undefined
    191c:	e4e80000 	.inst	0xe4e80000 ; undefined
    1920:	0000082c 	udf	#2092
    1924:	40000000 	.inst	0x40000000 ; undefined
    1928:	00000000 	udf	#0
    192c:	01000000 	.inst	0x01000000 ; undefined
    1930:	0629099c 	.inst	0x0629099c ; undefined
    1934:	c0e30000 	.inst	0xc0e30000 ; undefined
    1938:	0000082c 	udf	#2092
    193c:	24000000 	cmphs	p0.b, p0/z, z0.b, z0.b
    1940:	00000000 	udf	#0
    1944:	01000000 	.inst	0x01000000 ; undefined
    1948:	067b0b9c 	.inst	0x067b0b9c ; undefined
    194c:	3ccf0000 	ldur	q0, [x0, #240]
    1950:	04000000 	add	z0.b, p0/m, z0.b, z0.b
    1954:	0000082c 	udf	#2092
    1958:	bc000000 	stur	s0, [x0]
    195c:	00000000 	udf	#0
    1960:	01000000 	.inst	0x01000000 ; undefined
    1964:	00030a9c 	.inst	0x00030a9c ; undefined
    1968:	00700700 	.inst	0x00700700 ; undefined
    196c:	003c07d1 	.inst	0x003c07d1 ; NYI
    1970:	91020000 	add	x0, x0, #0x80
    1974:	590b007c 	stlurh	w28, [x3, #176]
    1978:	b0000006 	adrp	x6, 2000 <bss_size+0x1f9f>
    197c:	0000003c 	udf	#60
    1980:	00082b40 	.inst	0x00082b40 ; undefined
    1984:	00000000 	udf	#0
    1988:	000000c4 	udf	#196
    198c:	00000000 	udf	#0
    1990:	03599c01 	.inst	0x03599c01 ; undefined
    1994:	de030000 	.inst	0xde030000 ; undefined
    1998:	b1000005 	adds	x5, x0, #0x0
    199c:	00006b0c 	udf	#27404
    19a0:	78910200 	ldursh	x0, [x16, #-240]
    19a4:	082b540e 	.inst	0x082b540e ; undefined
    19a8:	00000000 	udf	#0
    19ac:	00004000 	udf	#16384
    19b0:	00000000 	udf	#0
    19b4:	6d740700 	ldp	d0, d1, [x24, #-192]
    19b8:	0eb40070 	saddl	v16.2d, v3.2s, v20.2s
    19bc:	000001a6 	udf	#422
    19c0:	00709102 	.inst	0x00709102 ; undefined
    19c4:	06f50900 	.inst	0x06f50900 ; undefined
    19c8:	30ac0000 	adr	x0, fffffffffff599c9 <bss_end+0xffffffffffed0c19>
    19cc:	0000082b 	udf	#2091
    19d0:	10000000 	adr	x0, 19d0 <bss_size+0x196f>
    19d4:	00000000 	udf	#0
    19d8:	01000000 	.inst	0x01000000 ; undefined
    19dc:	06911f9c 	.inst	0x06911f9c ; undefined
    19e0:	9c010000 	ldr	q0, 39e0 <bss_size+0x397f>
    19e4:	082ae806 	.inst	0x082ae806 ; undefined
    19e8:	00000000 	udf	#0
    19ec:	00004800 	udf	#18432
    19f0:	00000000 	udf	#0
    19f4:	9e9c0100 	.inst	0x9e9c0100 ; undefined
    19f8:	07000003 	.inst	0x07000003 ; undefined
    19fc:	00706d74 	.inst	0x00706d74 ; undefined
    1a00:	0077119d 	.inst	0x0077119d ; undefined
    1a04:	91020000 	add	x0, x0, #0x80
    1a08:	08090078 	stxrb	w9, w24, [x3]
    1a0c:	95000007 	bl	4001a28 <bss_end+0x3f78c78>
    1a10:	00082adc 	.inst	0x00082adc ; undefined
    1a14:	00000000 	udf	#0
    1a18:	0000000c 	udf	#12
    1a1c:	00000000 	udf	#0
    1a20:	1e0f9c01 	.inst	0x1e0f9c01 ; undefined
    1a24:	90000006 	adrp	x6, 1000 <bss_size+0xf9f>
    1a28:	00082ac0 	.inst	0x00082ac0 ; undefined
    1a2c:	00000000 	udf	#0
    1a30:	0000001c 	udf	#28
    1a34:	00000000 	udf	#0
    1a38:	6b209c01 	.inst	0x6b209c01 ; undefined
    1a3c:	01000006 	.inst	0x01000006 ; undefined
    1a40:	003c0576 	.inst	0x003c0576 ; NYI
    1a44:	29e40000 	ldp	w0, w0, [x0, #-224]!
    1a48:	00000008 	udf	#8
    1a4c:	00dc0000 	.inst	0x00dc0000 ; undefined
    1a50:	00000000 	udf	#0
    1a54:	9c010000 	ldr	q0, 3a54 <bss_size+0x39f3>
    1a58:	0006710b 	.inst	0x0006710b ; undefined
    1a5c:	003c6400 	.inst	0x003c6400 ; NYI
    1a60:	295c0000 	ldp	w0, w0, [x0, #224]
    1a64:	00000008 	udf	#8
    1a68:	00880000 	.inst	0x00880000 ; undefined
    1a6c:	00000000 	udf	#0
    1a70:	9c010000 	ldr	q0, 3a70 <bss_size+0x3a0f>
    1a74:	0000041b 	udf	#1051
    1a78:	0005d503 	.inst	0x0005d503 ; undefined
    1a7c:	3c076600 	str	b0, [x16], #118
    1a80:	02000000 	.inst	0x02000000 ; undefined
    1a84:	21007c91 	.inst	0x21007c91 ; undefined
    1a88:	00000714 	udf	#1812
    1a8c:	3c054501 	str	b1, [x8], #84
    1a90:	18000000 	ldr	w0, 1a90 <bss_size+0x1a2f>
    1a94:	00000828 	udf	#2088
    1a98:	44000000 	.inst	0x44000000 ; undefined
    1a9c:	00000001 	udf	#1
    1aa0:	01000000 	.inst	0x01000000 ; undefined
    1aa4:	00049e9c 	.inst	0x00049e9c ; undefined
    1aa8:	05d50c00 	mov	z0.d, p5/z, #96
    1aac:	13450000 	.inst	0x13450000 ; undefined
    1ab0:	0000003c 	udf	#60
    1ab4:	075c9102 	.inst	0x075c9102 ; undefined
    1ab8:	00706d74 	.inst	0x00706d74 ; undefined
    1abc:	003c0746 	.inst	0x003c0746 ; NYI
    1ac0:	91020000 	add	x0, x0, #0x80
    1ac4:	2860227c 	ldnp	w28, w8, [x19, #-256]
    1ac8:	00000008 	udf	#8
    1acc:	00680000 	.inst	0x00680000 ; undefined
    1ad0:	00000000 	udf	#0
    1ad4:	047d0000 	add	z0.h, z0.h, z29.h
    1ad8:	19030000 	stlurb	w0, [x0, #48]
    1adc:	4a000007 	eor	w7, w0, w0
    1ae0:	0000d913 	udf	#55571
    1ae4:	68910200 	stgp	x0, x0, [x16], #544
    1ae8:	28d00e00 	ldp	w0, w3, [x16], #128
    1aec:	00000008 	udf	#8
    1af0:	00600000 	.inst	0x00600000 ; undefined
    1af4:	00000000 	udf	#0
    1af8:	19030000 	stlurb	w0, [x0, #48]
    1afc:	56000007 	.inst	0x56000007 ; undefined
    1b00:	0000d913 	udf	#55571
    1b04:	70910200 	adr	x0, fffffffffff23b47 <bss_end+0xffffffffffe9ad97>
    1b08:	c10f0000 	.inst	0xc10f0000 ; undefined
    1b0c:	35000006 	cbnz	w6, 1b0c <bss_size+0x1aab>
    1b10:	000827c0 	.inst	0x000827c0 ; undefined
    1b14:	00000000 	udf	#0
    1b18:	00000058 	udf	#88
    1b1c:	00000000 	udf	#0
    1b20:	3e239c01 	.inst	0x3e239c01 ; undefined
    1b24:	01000007 	.inst	0x01000007 ; undefined
    1b28:	003c050f 	.inst	0x003c050f ; NYI
    1b2c:	26b80000 	.inst	0x26b80000 ; undefined
    1b30:	00000008 	udf	#8
    1b34:	01080000 	.inst	0x01080000 ; undefined
    1b38:	00000000 	udf	#0
    1b3c:	9c010000 	ldr	q0, 3b3c <bss_size+0x3adb>
    1b40:	0005c00c 	.inst	0x0005c00c ; undefined
    1b44:	b7180f00 	tbnz	x0, #35, 1d24 <bss_size+0x1cc3>
    1b48:	02000000 	.inst	0x02000000 ; undefined
    1b4c:	d50c5891 	sys	#4, C5, C8, #4, x17
    1b50:	0f000005 	.inst	0x0f000005 ; undefined
    1b54:	00006b32 	udf	#27442
    1b58:	50910200 	adr	x0, fffffffffff23b9a <bss_end+0xffffffffffe9adea>
    1b5c:	0005ff03 	.inst	0x0005ff03 ; undefined
    1b60:	d90f1100 	stlur	x0, [x8, #241]
    1b64:	02000000 	.inst	0x02000000 ; undefined
    1b68:	9a036891 	.inst	0x9a036891 ; undefined
    1b6c:	1b00000a 	madd	w10, w0, w0, w0
    1b70:	0000d90f 	udf	#55567
    1b74:	78910200 	ldursh	x0, [x16, #-240]
    1b78:	00029c03 	.inst	0x00029c03 ; undefined
    1b7c:	d90f1c00 	.inst	0xd90f1c00 ; undefined
    1b80:	02000000 	.inst	0x02000000 ; undefined
    1b84:	00007091 	udf	#28817
    1b88:	00000161 	udf	#353
    1b8c:	08010005 	stxrb	w1, w5, [x0]
    1b90:	00000ab8 	udf	#2744
    1b94:	00004f0a 	udf	#20234
    1b98:	01511d00 	.inst	0x01511d00 ; undefined
    1b9c:	000e0000 	.inst	0x000e0000 ; undefined
    1ba0:	2ea00000 	uaddl	v0.2d, v0.2s, v0.2s
    1ba4:	00000008 	udf	#8
    1ba8:	01a40000 	.inst	0x01a40000 ; undefined
    1bac:	00000000 	udf	#0
    1bb0:	109e0000 	adr	x0, fffffffffff3dbb0 <bss_end+0xffffffffffeb4e00>
    1bb4:	08010000 	stxrb	w1, w0, [x0]
    1bb8:	00044707 	.inst	0x00044707 ; undefined
    1bbc:	08010100 	stxrb	w1, w0, [x8]
    1bc0:	0000020a 	udf	#522
    1bc4:	0000350b 	udf	#13579
    1bc8:	05040c00 	.inst	0x05040c00 ; undefined
    1bcc:	00746e69 	.inst	0x00746e69 ; undefined
    1bd0:	00020f02 	.inst	0x00020f02 ; undefined
    1bd4:	00581e00 	.inst	0x00581e00 ; undefined
    1bd8:	3c030000 	stur	b0, [x0, #48]
    1bdc:	00000000 	udf	#0
    1be0:	00045902 	.inst	0x00045902 ; undefined
    1be4:	00682000 	.inst	0x00682000 ; undefined
    1be8:	68030000 	.inst	0x68030000 ; undefined
    1bec:	00000000 	udf	#0
    1bf0:	4c070401 	.inst	0x4c070401 ; undefined
    1bf4:	04000004 	add	z4.b, p0/m, z4.b, z0.b
    1bf8:	00000068 	udf	#104
    1bfc:	00002a02 	udf	#10754
    1c00:	00841f00 	.inst	0x00841f00 ; undefined
    1c04:	84030000 	ld1sb	{z0.s}, p0/z, [x0, z3.s, uxtw]
    1c08:	00000000 	udf	#0
    1c0c:	00003c05 	udf	#15365
    1c10:	02810600 	.inst	0x02810600 ; undefined
    1c14:	b8280000 	ldadd	w8, w0, [x0]
    1c18:	0000082f 	udf	#2095
    1c1c:	8c000000 	.inst	0x8c000000 ; undefined
    1c20:	00000000 	udf	#0
    1c24:	01000000 	.inst	0x01000000 ; undefined
    1c28:	0000b49c 	udf	#46236
    1c2c:	07700700 	.inst	0x07700700 ; undefined
    1c30:	19290000 	.inst	0x19290000 ; undefined
    1c34:	000000c4 	udf	#196
    1c38:	00609102 	.inst	0x00609102 ; undefined
    1c3c:	00006f08 	udf	#28424
    1c40:	0000c400 	udf	#50176
    1c44:	002e0900 	.inst	0x002e0900 ; NYI
    1c48:	00070000 	.inst	0x00070000 ; undefined
    1c4c:	0000b404 	udf	#46084
    1c50:	017e0600 	.inst	0x017e0600 ; undefined
    1c54:	44150000 	.inst	0x44150000 ; undefined
    1c58:	0000082f 	udf	#2095
    1c5c:	74000000 	.inst	0x74000000 ; undefined
    1c60:	00000000 	udf	#0
    1c64:	01000000 	.inst	0x01000000 ; undefined
    1c68:	0000f49c 	udf	#62620
    1c6c:	07700700 	.inst	0x07700700 ; undefined
    1c70:	36160000 	tbz	w0, #2, ffffffffffffdc70 <bss_end+0xfffffffffff74ec0>
    1c74:	00000104 	udf	#260
    1c78:	00609102 	.inst	0x00609102 ; undefined
    1c7c:	00006f08 	udf	#28424
    1c80:	00010400 	.inst	0x00010400 ; undefined
    1c84:	002e0900 	.inst	0x002e0900 ; NYI
    1c88:	00060000 	.inst	0x00060000 ; undefined
    1c8c:	0000f404 	udf	#62468
    1c90:	07630d00 	.inst	0x07630d00 ; undefined
    1c94:	04010000 	sub	z0.b, p0/m, z0.b, z0.b
    1c98:	00004105 	udf	#16645
    1c9c:	082ea000 	.inst	0x082ea000 ; undefined
    1ca0:	00000000 	udf	#0
    1ca4:	0000a400 	udf	#41984
    1ca8:	00000000 	udf	#0
    1cac:	589c0100 	ldr	x0, fffffffffff39ccc <bss_end+0xffffffffffeb0f1c>
    1cb0:	0e000001 	tbl	v1.8b, {v0.16b}, v0.8b
    1cb4:	01006863 	.inst	0x01006863 ; undefined
    1cb8:	01582004 	.inst	0x01582004 ; undefined
    1cbc:	91020000 	add	x0, x0, #0x80
    1cc0:	0b7c0f6f 	.inst	0x0b7c0f6f ; undefined
    1cc4:	04010000 	sub	z0.b, p0/m, z0.b, z0.b
    1cc8:	00015f3b 	.inst	0x00015f3b ; undefined
    1ccc:	60910200 	.inst	0x60910200 ; undefined
    1cd0:	67736d10 	.inst	0x67736d10 ; undefined
    1cd4:	10060100 	adr	x0, dcf4 <bss_size+0xdc93>
    1cd8:	00000068 	udf	#104
    1cdc:	007c9102 	.inst	0x007c9102 ; undefined
    1ce0:	01080101 	.inst	0x01080101 ; undefined
    1ce4:	05000002 	orr	z2.s, z2.s, #0x1
    1ce8:	0000006f 	udf	#111
    1cec:	0001e100 	.inst	0x0001e100 ; undefined
    1cf0:	01000500 	.inst	0x01000500 ; undefined
    1cf4:	000bab08 	.inst	0x000bab08 ; undefined
    1cf8:	004f0900 	.inst	0x004f0900 ; undefined
    1cfc:	5f1d0000 	.inst	0x5f1d0000 ; undefined
    1d00:	0e000001 	tbl	v1.8b, {v0.16b}, v0.8b
    1d04:	44000000 	.inst	0x44000000 ; undefined
    1d08:	00000830 	udf	#2096
    1d0c:	dc000000 	.inst	0xdc000000 ; undefined
    1d10:	00000000 	udf	#0
    1d14:	7a000000 	sbcs	w0, w0, w0
    1d18:	02000011 	.inst	0x02000011 ; undefined
    1d1c:	04470708 	.inst	0x04470708 ; undefined
    1d20:	01020000 	.inst	0x01020000 ; undefined
    1d24:	00020a08 	.inst	0x00020a08 ; undefined
    1d28:	05040a00 	.inst	0x05040a00 ; undefined
    1d2c:	00746e69 	.inst	0x00746e69 ; undefined
    1d30:	c5050802 	ld1sw	{z2.d}, p2/z, [x0, z5.d, uxtw]
    1d34:	02000001 	.inst	0x02000001 ; undefined
    1d38:	044c0704 	sabd	z4.h, p1/m, z4.h, z24.h
    1d3c:	08020000 	stxrb	w2, w0, [x0]
    1d40:	0001c005 	.inst	0x0001c005 ; undefined
    1d44:	04100200 	mul	z0.b, p0/m, z0.b, z16.b
    1d48:	000001f5 	udf	#501
    1d4c:	00049305 	.inst	0x00049305 ; undefined
    1d50:	0c070200 	.inst	0x0c070200 ; undefined
    1d54:	0000003c 	udf	#60
    1d58:	0004c905 	.inst	0x0004c905 ; undefined
    1d5c:	0e080200 	tbl	v0.8b, {v16.16b}, v8.8b
    1d60:	00000077 	udf	#119
    1d64:	0102080b 	.inst	0x0102080b ; undefined
    1d68:	00020306 	.inst	0x00020306 ; undefined
    1d6c:	05020200 	orr	z0.d, z0.d, #0x1ffff
    1d70:	0000014c 	udf	#332
    1d74:	01080102 	.inst	0x01080102 ; undefined
    1d78:	02000002 	.inst	0x02000002 ; undefined
    1d7c:	021f0702 	.inst	0x021f0702 ; undefined
    1d80:	8d050000 	.inst	0x8d050000 ; undefined
    1d84:	01000007 	.inst	0x01000007 ; undefined
    1d88:	003c0c0d 	.inst	0x003c0c0d ; NYI
    1d8c:	82050000 	.inst	0x82050000 ; undefined
    1d90:	01000007 	.inst	0x01000007 ; undefined
    1d94:	003c0c0e 	.inst	0x003c0c0e ; NYI
    1d98:	cb030000 	sub	x0, x0, x3
    1d9c:	03000007 	.inst	0x03000007 ; undefined
    1da0:	00bb0604 	.inst	0x00bb0604 ; undefined
    1da4:	00010000 	.inst	0x00010000 ; undefined
    1da8:	00069103 	.inst	0x00069103 ; undefined
    1dac:	061e0400 	.inst	0x061e0400 ; undefined
    1db0:	000000c9 	udf	#201
    1db4:	9f030001 	.inst	0x9f030001 ; undefined
    1db8:	05000007 	orr	z7.s, z7.s, #0x1
    1dbc:	00d7062e 	.inst	0x00d7062e ; undefined
    1dc0:	00010000 	.inst	0x00010000 ; undefined
    1dc4:	0007bb03 	.inst	0x0007bb03 ; undefined
    1dc8:	062e0600 	.inst	0x062e0600 ; undefined
    1dcc:	000000e5 	udf	#229
    1dd0:	a2060001 	.inst	0xa2060001 ; undefined
    1dd4:	07000003 	.inst	0x07000003 ; undefined
    1dd8:	0000773e 	udf	#30526
    1ddc:	0000f600 	udf	#62976
    1de0:	06000100 	.inst	0x06000100 ; undefined
    1de4:	00000597 	udf	#1431
    1de8:	00771908 	.inst	0x00771908 ; undefined
    1dec:	01070000 	.inst	0x01070000 ; undefined
    1df0:	00010000 	.inst	0x00010000 ; undefined
    1df4:	00056606 	.inst	0x00056606 ; undefined
    1df8:	77180800 	.inst	0x77180800 ; undefined
    1dfc:	18000000 	ldr	w0, 1dfc <bss_size+0x1d9b>
    1e00:	01000001 	.inst	0x01000001 ; undefined
    1e04:	07ab0700 	.inst	0x07ab0700 ; undefined
    1e08:	2c060000 	stnp	s0, s0, [x0, #48]
    1e0c:	0000012e 	udf	#302
    1e10:	00007704 	udf	#30468
    1e14:	00770400 	.inst	0x00770400 ; undefined
    1e18:	03000000 	.inst	0x03000000 ; undefined
    1e1c:	000007f1 	udf	#2033
    1e20:	3c062806 	.inst	0x3c062806 ; undefined
    1e24:	01000001 	.inst	0x01000001 ; undefined
    1e28:	061e0300 	.inst	0x061e0300 ; undefined
    1e2c:	1a040000 	adc	w0, w0, w4
    1e30:	00014a06 	.inst	0x00014a06 ; undefined
    1e34:	03000100 	.inst	0x03000100 ; undefined
    1e38:	000004a4 	udf	#1188
    1e3c:	58060a02 	ldr	x2, df7c <bss_size+0xdf1b>
    1e40:	01000001 	.inst	0x01000001 ; undefined
    1e44:	05b60700 	zip2	z0.q, z24.q, z22.q
    1e48:	1a080000 	adc	w0, w0, w8
    1e4c:	0000016e 	udf	#366
    1e50:	00007704 	udf	#30468
    1e54:	016e0400 	.inst	0x016e0400 ; undefined
    1e58:	08000000 	stxrb	w0, w0, [x0]
    1e5c:	00000035 	udf	#53
    1e60:	00030707 	.inst	0x00030707 ; undefined
    1e64:	893d0700 	.inst	0x893d0700 ; undefined
    1e68:	04000001 	add	z1.b, p0/m, z1.b, z0.b
    1e6c:	00000077 	udf	#119
    1e70:	00018904 	.inst	0x00018904 ; undefined
    1e74:	8e080000 	.inst	0x8e080000 ; undefined
    1e78:	0c000001 	st4	{v1.8b-v4.8b}, [x0]
    1e7c:	0000019e 	udf	#414
    1e80:	00007704 	udf	#30468
    1e84:	016e0400 	.inst	0x016e0400 ; undefined
    1e88:	03000000 	.inst	0x03000000 ; undefined
    1e8c:	000007d6 	udf	#2006
    1e90:	ac0d1001 	stnp	q1, q4, [x0, #416]
    1e94:	01000001 	.inst	0x01000001 ; undefined
    1e98:	07780300 	.inst	0x07780300 ; undefined
    1e9c:	1b090000 	madd	w0, w0, w9, w0
    1ea0:	0001ba06 	.inst	0x0001ba06 ; undefined
    1ea4:	0d000100 	st1	{v0.b}[0], [x8]
    1ea8:	0000079a 	udf	#1946
    1eac:	44061201 	.inst	0x44061201 ; undefined
    1eb0:	00000830 	udf	#2096
    1eb4:	dc000000 	.inst	0xdc000000 ; undefined
    1eb8:	00000000 	udf	#0
    1ebc:	01000000 	.inst	0x01000000 ; undefined
    1ec0:	07b30e9c 	.inst	0x07b30e9c ; undefined
    1ec4:	12010000 	and	w0, w0, #0x80000000
    1ec8:	00007711 	udf	#30481
    1ecc:	78910200 	ldursh	x0, [x16, #-240]
    1ed0:	09f60000 	.inst	0x09f60000 ; undefined
    1ed4:	00050000 	.inst	0x00050000 ; undefined
    1ed8:	0c770801 	.inst	0x0c770801 ; undefined
    1edc:	4f180000 	.inst	0x4f180000 ; undefined
    1ee0:	1d000000 	.inst	0x1d000000 ; undefined
    1ee4:	00000172 	udf	#370
    1ee8:	0000000e 	udf	#14
    1eec:	00083120 	.inst	0x00083120 ; undefined
    1ef0:	00000000 	udf	#0
    1ef4:	00001030 	udf	#4144
    1ef8:	00000000 	udf	#0
    1efc:	0000120a 	udf	#4618
    1f00:	4707080a 	.inst	0x4707080a ; undefined
    1f04:	0a000004 	and	w4, w0, w0
    1f08:	020a0801 	.inst	0x020a0801 ; undefined
    1f0c:	35190000 	cbnz	w0, 33f0c <bss_size+0x33eab>
    1f10:	1a000000 	adc	w0, w0, w0
    1f14:	6e690504 	uhadd	v4.8h, v8.8h, v9.8h
    1f18:	080a0074 	stxrb	w10, w20, [x3]
    1f1c:	0001c505 	.inst	0x0001c505 ; undefined
    1f20:	07040a00 	.inst	0x07040a00 ; undefined
    1f24:	0000044c 	udf	#1100
    1f28:	c005080a 	.inst	0xc005080a ; undefined
    1f2c:	0a000001 	and	w1, w0, w0
    1f30:	01f50410 	.inst	0x01f50410 ; undefined
    1f34:	081b0000 	stxrb	w27, w0, [x0]
    1f38:	0009710d 	.inst	0x0009710d ; undefined
    1f3c:	ae111800 	.inst	0xae111800 ; undefined
    1f40:	05000000 	orr	z0.s, z0.s, #0x1
    1f44:	0000085a 	udf	#2138
    1f48:	00350812 	.inst	0x00350812 ; NYI
    1f4c:	05000000 	orr	z0.s, z0.s, #0x1
    1f50:	000008a5 	udf	#2213
    1f54:	00350813 	.inst	0x00350813 ; NYI
    1f58:	05010000 	orr	z0.s, z0.s, #0x1
    1f5c:	00000814 	udf	#2068
    1f60:	00410714 	.inst	0x00410714 ; undefined
    1f64:	05040000 	.inst	0x05040000 ; undefined
    1f68:	000002ab 	udf	#683
    1f6c:	00ae1115 	.inst	0x00ae1115 ; undefined
    1f70:	05080000 	.inst	0x05080000 ; undefined
    1f74:	0000029c 	udf	#668
    1f78:	00ae1116 	.inst	0x00ae1116 ; undefined
    1f7c:	00100000 	.inst	0x00100000 ; undefined
    1f80:	00006609 	udf	#26121
    1f84:	080c0e00 	stxrb	w12, w0, [x16]
    1f88:	03170000 	.inst	0x03170000 ; undefined
    1f8c:	00000066 	udf	#102
    1f90:	0008f80d 	.inst	0x0008f80d ; undefined
    1f94:	d6190800 	.inst	0xd6190800 ; undefined
    1f98:	05000000 	orr	z0.s, z0.s, #0x1
    1f9c:	000002ab 	udf	#683
    1fa0:	00d6121a 	.inst	0x00d6121a ; undefined
    1fa4:	00000000 	udf	#0
    1fa8:	0000be09 	udf	#48649
    1fac:	08f80e00 	.inst	0x08f80e00 ; undefined
    1fb0:	021b0000 	.inst	0x021b0000 ; undefined
    1fb4:	000000be 	udf	#190
    1fb8:	00084f0d 	.inst	0x00084f0d ; undefined
    1fbc:	2e1e2800 	ext	v0.8b, v0.8b, v30.8b, #5
    1fc0:	05000001 	orr	z1.s, z1.s, #0x1
    1fc4:	00000814 	udf	#2068
    1fc8:	0041071f 	.inst	0x0041071f ; undefined
    1fcc:	05000000 	orr	z0.s, z0.s, #0x1
    1fd0:	0000096c 	udf	#2412
    1fd4:	00640920 	.inst	0x00640920 ; undefined
    1fd8:	05080000 	.inst	0x05080000 ; undefined
    1fdc:	00000841 	udf	#2113
    1fe0:	012e0b22 	.inst	0x012e0b22 ; undefined
    1fe4:	05100000 	mov	z0.b, p0/z, #0
    1fe8:	000002ab 	udf	#683
    1fec:	01331623 	.inst	0x01331623 ; undefined
    1ff0:	05180000 	mov	z0.b, p8/z, #0
    1ff4:	0000029c 	udf	#668
    1ff8:	01331624 	.inst	0x01331624 ; undefined
    1ffc:	00200000 	.inst	0x00200000 ; NYI
    2000:	0000db09 	udf	#56073
    2004:	00e60900 	.inst	0x00e60900 ; undefined
    2008:	4f0e0000 	.inst	0x4f0e0000 ; undefined
    200c:	25000008 	cmpge	p8.b, p0/z, z0.b, #0
    2010:	0000e603 	udf	#58883
    2014:	08b50100 	.inst	0x08b50100 ; undefined
    2018:	11090000 	add	w0, w0, #0x240
    201c:	00000158 	udf	#344
    2020:	8ae80309 	bic	x9, x24, x8, ror #0
    2024:	00000008 	udf	#8
    2028:	b3090000 	.inst	0xb3090000 ; undefined
    202c:	12000000 	and	w0, w0, #0x1
    2030:	00000158 	udf	#344
    2034:	0000016d 	udf	#365
    2038:	00002e13 	udf	#11795
    203c:	01000a00 	.inst	0x01000a00 ; undefined
    2040:	000008d9 	udf	#2265
    2044:	015d110a 	.inst	0x015d110a ; undefined
    2048:	03090000 	.inst	0x03090000 ; undefined
    204c:	00088af0 	.inst	0x00088af0 ; undefined
    2050:	00000000 	udf	#0
    2054:	00019212 	.inst	0x00019212 ; undefined
    2058:	00019200 	.inst	0x00019200 ; undefined
    205c:	002e1300 	.inst	0x002e1300 ; NYI
    2060:	00040000 	.inst	0x00040000 ; undefined
    2064:	00013809 	.inst	0x00013809 ; undefined
    2068:	08e30100 	.inst	0x08e30100 ; undefined
    206c:	140b0000 	b	2c206c <bss_end+0x2392bc>
    2070:	00000182 	udf	#386
    2074:	8b480309 	add	x9, x24, x8, lsr #0
    2078:	00000008 	udf	#8
    207c:	c81c0000 	stxr	w28, x0, [x0]
    2080:	04000000 	add	z0.b, p0/m, z0.b, z0.b
    2084:	0064070b 	.inst	0x0064070b ; undefined
    2088:	01c20000 	.inst	0x01c20000 ; undefined
    208c:	410f0000 	.inst	0x410f0000 ; undefined
    2090:	00000000 	udf	#0
    2094:	00001514 	udf	#5396
    2098:	01d22200 	.inst	0x01d22200 ; undefined
    209c:	410f0000 	.inst	0x410f0000 ; undefined
    20a0:	00000000 	udf	#0
    20a4:	00002a14 	udf	#10772
    20a8:	01e21f00 	.inst	0x01e21f00 ; undefined
    20ac:	e20f0000 	.inst	0xe20f0000 ; undefined
    20b0:	00000001 	udf	#1
    20b4:	00003c09 	udf	#15369
    20b8:	05eb1500 	.inst	0x05eb1500 ; undefined
    20bc:	01910000 	.inst	0x01910000 ; undefined
    20c0:	000840d4 	.inst	0x000840d4 ; undefined
    20c4:	00000000 	udf	#0
    20c8:	0000007c 	udf	#124
    20cc:	00000000 	udf	#0
    20d0:	02449c01 	.inst	0x02449c01 ; undefined
    20d4:	d1040000 	sub	x0, x0, #0x100
    20d8:	91000008 	add	x8, x0, #0x0
    20dc:	00641201 	.inst	0x00641201 ; undefined
    20e0:	91020000 	add	x0, x0, #0x80
    20e4:	08f20668 	.inst	0x08f20668 ; undefined
    20e8:	01920000 	.inst	0x01920000 ; undefined
    20ec:	00004107 	udf	#16647
    20f0:	7c910200 	.inst	0x7c910200 ; undefined
    20f4:	08411c03 	ldxrb	w3, [x0]
    20f8:	00000000 	udf	#0
    20fc:	00001c00 	udf	#7168
    2100:	00000000 	udf	#0
    2104:	08540600 	ldxrb	w0, [x16]
    2108:	01940000 	.inst	0x01940000 ; undefined
    210c:	00019211 	.inst	0x00019211 ; undefined
    2110:	70910200 	adr	x0, fffffffffff24153 <bss_end+0xffffffffffe9b3a3>
    2114:	790b0000 	strh	w0, [x0, #1408]
    2118:	81000002 	.inst	0x81000002 ; undefined
    211c:	00640701 	.inst	0x00640701 ; undefined
    2120:	405c0000 	.inst	0x405c0000 ; undefined
    2124:	00000008 	udf	#8
    2128:	00780000 	.inst	0x00780000 ; undefined
    212c:	00000000 	udf	#0
    2130:	9c010000 	ldr	q0, 4130 <bss_size+0x40cf>
    2134:	000002b5 	udf	#693
    2138:	0001e104 	.inst	0x0001e104 ; undefined
    213c:	13018100 	.inst	0x13018100 ; undefined
    2140:	00000041 	udf	#65
    2144:	065c9102 	.inst	0x065c9102 ; undefined
    2148:	00000854 	udf	#2132
    214c:	920f018c 	and	x12, x12, #0x2000000020000
    2150:	02000001 	.inst	0x02000001 ; undefined
    2154:	70077091 	adr	x17, 10f67 <bss_size+0x10f06>
    2158:	8d007274 	.inst	0x8d007274 ; undefined
    215c:	00640901 	.inst	0x00640901 ; undefined
    2160:	91020000 	add	x0, x0, #0x80
    2164:	40740368 	.inst	0x40740368 ; undefined
    2168:	00000008 	udf	#8
    216c:	00380000 	.inst	0x00380000 ; NYI
    2170:	00000000 	udf	#0
    2174:	a5060000 	ld1rqw	{z0.s}, p0/z, [x0, x6, lsl #2]
    2178:	83000008 	.inst	0x83000008 ; undefined
    217c:	00410901 	.inst	0x00410901 ; undefined
    2180:	91020000 	add	x0, x0, #0x80
    2184:	1500007c 	b	4002374 <bss_end+0x3f795c4>
    2188:	000008c1 	udf	#2241
    218c:	40340177 	.inst	0x40340177 ; undefined
    2190:	00000008 	udf	#8
    2194:	00280000 	.inst	0x00280000 ; NYI
    2198:	00000000 	udf	#0
    219c:	9c010000 	ldr	q0, 419c <bss_size+0x413b>
    21a0:	000002f1 	udf	#753
    21a4:	00085404 	.inst	0x00085404 ; undefined
    21a8:	22017700 	.inst	0x22017700 ; undefined
    21ac:	00000192 	udf	#402
    21b0:	04789102 	asr	z2.s, z8.s, #8
    21b4:	000008d1 	udf	#2257
    21b8:	642f0177 	fmla	z23.h, z11.h, z7.h[1]
    21bc:	02000000 	.inst	0x02000000 ; undefined
    21c0:	0b007091 	add	w17, w4, w0, lsl #28
    21c4:	0000090b 	udf	#2315
    21c8:	6407016a 	.inst	0x6407016a ; undefined
    21cc:	0c000000 	st4	{v0.8b-v3.8b}, [x0]
    21d0:	00000840 	udf	#2112
    21d4:	28000000 	stnp	w0, w0, [x0]
    21d8:	00000000 	udf	#0
    21dc:	01000000 	.inst	0x01000000 ; undefined
    21e0:	0003419c 	.inst	0x0003419c ; undefined
    21e4:	08540400 	ldxrb	w0, [x0]
    21e8:	016a0000 	.inst	0x016a0000 ; undefined
    21ec:	00019224 	.inst	0x00019224 ; undefined
    21f0:	68910200 	stgp	x0, x0, [x16], #544
    21f4:	0001e104 	.inst	0x0001e104 ; undefined
    21f8:	2f016a00 	.inst	0x2f016a00 ; undefined
    21fc:	00000041 	udf	#65
    2200:	07649102 	.inst	0x07649102 ; undefined
    2204:	006a626f 	.inst	0x006a626f ; undefined
    2208:	2e0b016b 	ext	v11.8b, v11.8b, v11.8b, #0
    220c:	02000001 	.inst	0x02000001 ; undefined
    2210:	16007891 	b	fffffffff8020454 <bss_end+0xfffffffff7f976a4>
    2214:	0000093a 	udf	#2362
    2218:	920d0154 	and	x20, x10, #0x8000000080000
    221c:	50000001 	adr	x1, 221e <bss_size+0x21bd>
    2220:	0000083f 	udf	#2111
    2224:	bc000000 	stur	s0, [x0]
    2228:	00000000 	udf	#0
    222c:	01000000 	.inst	0x01000000 ; undefined
    2230:	0003d09c 	.inst	0x0003d09c ; undefined
    2234:	08d10400 	ldlarb	w0, [x0]
    2238:	01540000 	.inst	0x01540000 ; undefined
    223c:	00006424 	udf	#25636
    2240:	58910200 	ldr	x0, fffffffffff24280 <bss_end+0xffffffffffe9b4d0>
    2244:	0008f204 	.inst	0x0008f204 ; undefined
    2248:	31015400 	adds	w0, w0, #0x55
    224c:	00000041 	udf	#65
    2250:	06549102 	.inst	0x06549102 ; undefined
    2254:	00000892 	udf	#2194
    2258:	2e110155 	ext	v21.8b, v10.8b, v17.8b, #0
    225c:	02000000 	.inst	0x02000000 ; undefined
    2260:	a5067091 	ldff1sh	{z17.d}, p4/z, [x4, x6, lsl #1]
    2264:	56000008 	.inst	0x56000008 ; undefined
    2268:	00410701 	.inst	0x00410701 ; undefined
    226c:	91020000 	add	x0, x0, #0x80
    2270:	6d74076c 	ldp	d12, d1, [x27, #-192]
    2274:	01580070 	.inst	0x01580070 ; undefined
    2278:	0001920f 	.inst	0x0001920f ; undefined
    227c:	78910200 	ldursh	x0, [x16, #-240]
    2280:	083fb003 	.inst	0x083fb003 ; undefined
    2284:	00000000 	udf	#0
    2288:	00003400 	udf	#13312
    228c:	00000000 	udf	#0
    2290:	088d0600 	stllrb	w0, [x16]
    2294:	015a0000 	.inst	0x015a0000 ; undefined
    2298:	00002e13 	udf	#11795
    229c:	60910200 	.inst	0x60910200 ; undefined
    22a0:	310b0000 	adds	w0, w0, #0x2c0
    22a4:	36000008 	tbz	w8, #0, 22a4 <bss_size+0x2243>
    22a8:	01920d01 	.inst	0x01920d01 ; undefined
    22ac:	3e7c0000 	.inst	0x3e7c0000 ; undefined
    22b0:	00000008 	udf	#8
    22b4:	00d40000 	.inst	0x00d40000 ; undefined
    22b8:	00000000 	udf	#0
    22bc:	9c010000 	ldr	q0, 42bc <bss_size+0x425b>
    22c0:	0000042d 	udf	#1069
    22c4:	0001e104 	.inst	0x0001e104 ; undefined
    22c8:	21013600 	.inst	0x21013600 ; undefined
    22cc:	00000041 	udf	#65
    22d0:	075c9102 	.inst	0x075c9102 ; undefined
    22d4:	01370074 	.inst	0x01370074 ; undefined
    22d8:	00004107 	udf	#16647
    22dc:	6c910200 	stp	d0, d0, [x16], #272
    22e0:	0008a506 	.inst	0x0008a506 ; undefined
    22e4:	07013900 	.inst	0x07013900 ; undefined
    22e8:	00000041 	udf	#65
    22ec:	077c9102 	.inst	0x077c9102 ; undefined
    22f0:	00706d74 	.inst	0x00706d74 ; undefined
    22f4:	920f0141 	and	x1, x10, #0x2000000020000
    22f8:	02000001 	.inst	0x02000001 ; undefined
    22fc:	1d007091 	.inst	0x1d007091 ; undefined
    2300:	000007bb 	udf	#1979
    2304:	06012f01 	.inst	0x06012f01 ; undefined
    2308:	00083e28 	.inst	0x00083e28 ; undefined
    230c:	00000000 	udf	#0
    2310:	00000054 	udf	#84
    2314:	00000000 	udf	#0
    2318:	046c9c01 	lsl	z1.s, z0.s, #12
    231c:	30030000 	adr	x0, 831d <bss_size+0x82bc>
    2320:	0000083e 	udf	#2110
    2324:	3c000000 	stur	b0, [x0]
    2328:	00000000 	udf	#0
    232c:	07000000 	.inst	0x07000000 ; undefined
    2330:	01300069 	.inst	0x01300069 ; undefined
    2334:	0000410b 	udf	#16651
    2338:	7c910200 	.inst	0x7c910200 ; undefined
    233c:	6c0b0000 	stnp	d0, d0, [x0, #176]
    2340:	12000008 	and	w8, w0, #0x1
    2344:	01920d01 	.inst	0x01920d01 ; undefined
    2348:	3ce40000 	.inst	0x3ce40000 ; undefined
    234c:	00000008 	udf	#8
    2350:	01440000 	.inst	0x01440000 ; undefined
    2354:	00000000 	udf	#0
    2358:	9c010000 	ldr	q0, 4358 <bss_size+0x42f7>
    235c:	0000050b 	udf	#1291
    2360:	00081404 	.inst	0x00081404 ; undefined
    2364:	23011200 	.inst	0x23011200 ; undefined
    2368:	00000041 	udf	#65
    236c:	065c9102 	.inst	0x065c9102 ; undefined
    2370:	00000854 	udf	#2132
    2374:	920f0119 	and	x25, x8, #0x2000000020000
    2378:	02000001 	.inst	0x02000001 ; undefined
    237c:	e1067091 	.inst	0xe1067091 ; undefined
    2380:	23000001 	.inst	0x23000001 ; undefined
    2384:	00410701 	.inst	0x00410701 ; undefined
    2388:	91020000 	add	x0, x0, #0x80
    238c:	756e076c 	.inst	0x756e076c ; undefined
    2390:	0124006d 	.inst	0x0124006d ; undefined
    2394:	00004107 	udf	#16647
    2398:	68910200 	stgp	x0, x0, [x16], #544
    239c:	083dbc03 	.inst	0x083dbc03 ; undefined
    23a0:	00000000 	udf	#0
    23a4:	00005400 	udf	#21504
    23a8:	00000000 	udf	#0
    23ac:	00690700 	.inst	0x00690700 ; undefined
    23b0:	410b0126 	.inst	0x410b0126 ; undefined
    23b4:	02000000 	.inst	0x02000000 ; undefined
    23b8:	c4037c91 	ldff1b	{z17.d}, p7/z, [x4, z3.d, uxtw]
    23bc:	0000083d 	udf	#2109
    23c0:	30000000 	adr	x0, 23c1 <bss_size+0x2360>
    23c4:	00000000 	udf	#0
    23c8:	07000000 	.inst	0x07000000 ; undefined
    23cc:	006a626f 	.inst	0x006a626f ; undefined
    23d0:	2e0d0127 	ext	v7.8b, v9.8b, v13.8b, #0
    23d4:	02000001 	.inst	0x02000001 ; undefined
    23d8:	00006091 	udf	#24721
    23dc:	07fc1600 	.inst	0x07fc1600 ; undefined
    23e0:	010c0000 	.inst	0x010c0000 ; undefined
    23e4:	00012e09 	.inst	0x00012e09 ; undefined
    23e8:	083cb000 	.inst	0x083cb000 ; undefined
    23ec:	00000000 	udf	#0
    23f0:	00003400 	udf	#13312
    23f4:	00000000 	udf	#0
    23f8:	4c9c0100 	st4	{v0.16b-v3.16b}, [x8], x28
    23fc:	04000005 	add	z5.b, p0/m, z5.b, z0.b
    2400:	00000854 	udf	#2132
    2404:	9225010c 	and	x12, x8, #0x800000008000000
    2408:	02000001 	.inst	0x02000001 ; undefined
    240c:	74076891 	.inst	0x74076891 ; undefined
    2410:	0d00706d 	st3	{v13.h-v15.h}[2], [x3]
    2414:	012e0b01 	.inst	0x012e0b01 ; undefined
    2418:	91020000 	add	x0, x0, #0x80
    241c:	1c1e0078 	ldr	s24, 3e428 <bss_size+0x3e3c7>
    2420:	01000009 	.inst	0x01000009 ; undefined
    2424:	7c060107 	stur	h7, [x8, #96]
    2428:	0000083c 	udf	#2108
    242c:	34000000 	cbz	w0, 242c <bss_size+0x23cb>
    2430:	00000000 	udf	#0
    2434:	01000000 	.inst	0x01000000 ; undefined
    2438:	00058b9c 	.inst	0x00058b9c ; undefined
    243c:	08540400 	ldxrb	w0, [x0]
    2440:	01070000 	.inst	0x01070000 ; undefined
    2444:	00019222 	.inst	0x00019222 ; undefined
    2448:	78910200 	ldursh	x0, [x16, #-240]
    244c:	6a626f1f 	bics	wzr, w24, w2, lsr #27
    2450:	01070100 	.inst	0x01070100 ; undefined
    2454:	00012e31 	.inst	0x00012e31 ; undefined
    2458:	70910200 	adr	x0, fffffffffff2449b <bss_end+0xffffffffffe9b6eb>
    245c:	087e1700 	.inst	0x087e1700 ; undefined
    2460:	94f70000 	bl	3dc2460 <bss_end+0x3d396b0>
    2464:	0000083b 	udf	#2107
    2468:	e8000000 	.inst	0xe8000000 ; undefined
    246c:	00000000 	udf	#0
    2470:	01000000 	.inst	0x01000000 ; undefined
    2474:	0005e49c 	.inst	0x0005e49c ; undefined
    2478:	08140200 	stxrb	w20, w0, [x16]
    247c:	19f70000 	.inst	0x19f70000 ; undefined
    2480:	00000041 	udf	#65
    2484:	026c9102 	.inst	0x026c9102 ; undefined
    2488:	00000854 	udf	#2132
    248c:	019232f7 	.inst	0x019232f7 ; undefined
    2490:	91020000 	add	x0, x0, #0x80
    2494:	3bf80360 	.inst	0x3bf80360 ; undefined
    2498:	00000008 	udf	#8
    249c:	00780000 	.inst	0x00780000 ; undefined
    24a0:	00000000 	udf	#0
    24a4:	2c010000 	stnp	s0, s0, [x0, #8]
    24a8:	fd000009 	str	d9, [x0]
    24ac:	00019211 	.inst	0x00019211 ; undefined
    24b0:	78910200 	ldursh	x0, [x16, #-240]
    24b4:	ab0c0000 	adds	x0, x0, x12
    24b8:	d8000007 	prfm	#0x07, 24b8 <bss_size+0x2457>
    24bc:	00083a1c 	.inst	0x00083a1c ; undefined
    24c0:	00000000 	udf	#0
    24c4:	00000178 	udf	#376
    24c8:	00000000 	udf	#0
    24cc:	06b69c01 	.inst	0x06b69c01 ; undefined
    24d0:	71020000 	subs	w0, w0, #0x80
    24d4:	d8000005 	prfm	pldl3strm, 24d4 <bss_size+0x2473>
    24d8:	00006414 	udf	#25620
    24dc:	58910200 	ldr	x0, fffffffffff2451c <bss_end+0xffffffffffe9b76c>
    24e0:	646e6520 	.inst	0x646e6520 ; undefined
    24e4:	21d80100 	.inst	0x21d80100 ; undefined
    24e8:	00000064 	udf	#100
    24ec:	01509102 	.inst	0x01509102 ; undefined
    24f0:	00000957 	udf	#2391
    24f4:	004107df 	.inst	0x004107df ; undefined
    24f8:	91020000 	add	x0, x0, #0x80
    24fc:	08ee0170 	.inst	0x08ee0170 ; undefined
    2500:	07e00000 	.inst	0x07e00000 ; undefined
    2504:	00000041 	udf	#65
    2508:	016c9102 	.inst	0x016c9102 ; undefined
    250c:	000006f0 	udf	#1776
    2510:	004107e2 	.inst	0x004107e2 ; undefined
    2514:	91020000 	add	x0, x0, #0x80
    2518:	092c0168 	.inst	0x092c0168 ; undefined
    251c:	0de20000 	ld2	{v0.b, v1.b}[0], [x0], x2
    2520:	00000041 	udf	#65
    2524:	10649102 	adr	x2, cb744 <bss_end+0x42994>
    2528:	00083a44 	.inst	0x00083a44 ; undefined
    252c:	00000000 	udf	#0
    2530:	000000dc 	udf	#220
    2534:	00000000 	udf	#0
    2538:	00000697 	udf	#1687
    253c:	00082c01 	.inst	0x00082c01 ; undefined
    2540:	410be300 	.inst	0x410be300 ; undefined
    2544:	02000000 	.inst	0x02000000 ; undefined
    2548:	c4037c91 	ldff1b	{z17.d}, p7/z, [x4, z3.d, uxtw]
    254c:	0000083a 	udf	#2106
    2550:	44000000 	.inst	0x44000000 ; undefined
    2554:	00000000 	udf	#0
    2558:	08000000 	stxrb	w0, w0, [x0]
    255c:	0fea006a 	.inst	0x0fea006a ; undefined
    2560:	00000041 	udf	#65
    2564:	00789102 	.inst	0x00789102 ; undefined
    2568:	3b200300 	.inst	0x3b200300 ; undefined
    256c:	00000008 	udf	#8
    2570:	00640000 	.inst	0x00640000 ; undefined
    2574:	00000000 	udf	#0
    2578:	69080000 	stgp	x0, x0, [x0, #256]
    257c:	410bef00 	.inst	0x410bef00 ; undefined
    2580:	02000000 	.inst	0x02000000 ; undefined
    2584:	00007491 	udf	#29841
    2588:	0008610c 	.inst	0x0008610c ; undefined
    258c:	3954c600 	ldrb	w0, [x16, #1329]
    2590:	00000008 	udf	#8
    2594:	00c80000 	.inst	0x00c80000 ; undefined
    2598:	00000000 	udf	#0
    259c:	9c010000 	ldr	q0, 459c <bss_size+0x453b>
    25a0:	000006fd 	udf	#1789
    25a4:	0008d102 	.inst	0x0008d102 ; undefined
    25a8:	6417c600 	.inst	0x6417c600 ; undefined
    25ac:	02000000 	.inst	0x02000000 ; undefined
    25b0:	f2016891 	ands	x17, x4, #0x83ffffff83ffffff
    25b4:	c7000008 	.inst	0xc7000008 ; undefined
    25b8:	00004107 	udf	#16647
    25bc:	7c910200 	.inst	0x7c910200 ; undefined
    25c0:	0008a501 	.inst	0x0008a501 ; undefined
    25c4:	4107cd00 	.inst	0x4107cd00 ; undefined
    25c8:	02000000 	.inst	0x02000000 ; undefined
    25cc:	11007891 	add	w17, w4, #0x1e
    25d0:	000008ff 	udf	#2303
    25d4:	00640790 	.inst	0x00640790 ; undefined
    25d8:	38500000 	ldurb	w0, [x0, #-256]
    25dc:	00000008 	udf	#8
    25e0:	01040000 	.inst	0x01040000 ; undefined
    25e4:	00000000 	udf	#0
    25e8:	9c010000 	ldr	q0, 45e8 <bss_size+0x4587>
    25ec:	00000778 	udf	#1912
    25f0:	0008a502 	.inst	0x0008a502 ; undefined
    25f4:	41179000 	.inst	0x41179000 ; undefined
    25f8:	02000000 	.inst	0x02000000 ; undefined
    25fc:	f2016c91 	ands	x17, x4, #0x87ffffff87ffffff
    2600:	99000008 	stlur	w8, [x0]
    2604:	00004107 	udf	#16647
    2608:	7c910200 	.inst	0x7c910200 ; undefined
    260c:	08388003 	.inst	0x08388003 ; undefined
    2610:	00000000 	udf	#0
    2614:	00008800 	udf	#34816
    2618:	00000000 	udf	#0
    261c:	00690800 	.inst	0x00690800 ; undefined
    2620:	00410b9a 	.inst	0x00410b9a ; undefined
    2624:	91020000 	add	x0, x0, #0x80
    2628:	38b40378 	ldaddab	w20, w24, [x27]
    262c:	00000008 	udf	#8
    2630:	00280000 	.inst	0x00280000 ; NYI
    2634:	00000000 	udf	#0
    2638:	69080000 	stgp	x0, x0, [x0, #256]
    263c:	0da20064 	st2	{v4.b, v5.b}[0], [x3], x2
    2640:	00000041 	udf	#65
    2644:	00749102 	.inst	0x00749102 ; undefined
    2648:	f1210000 	subs	x0, x0, #0x840
    264c:	01000007 	.inst	0x01000007 ; undefined
    2650:	36c00678 	tbz	w24, #24, 271c <bss_size+0x26bb>
    2654:	00000008 	udf	#8
    2658:	01900000 	.inst	0x01900000 ; undefined
    265c:	00000000 	udf	#0
    2660:	9c010000 	ldr	q0, 4660 <bss_size+0x45ff>
    2664:	00000807 	udf	#2055
    2668:	00082c01 	.inst	0x00082c01 ; undefined
    266c:	41078800 	.inst	0x41078800 ; undefined
    2670:	02000000 	.inst	0x02000000 ; undefined
    2674:	04107091 	mls	z17.b, p4/m, z4.b, z16.b
    2678:	00000837 	udf	#2103
    267c:	a4000000 	ld1rqb	{z0.b}, p0/z, [x0, x0]
    2680:	00000000 	udf	#0
    2684:	c6000000 	.inst	0xc6000000 ; undefined
    2688:	08000007 	stxrb	w0, w7, [x0]
    268c:	0b7e0069 	.inst	0x0b7e0069 ; undefined
    2690:	00000041 	udf	#65
    2694:	007c9102 	.inst	0x007c9102 ; undefined
    2698:	0837a810 	.inst	0x0837a810 ; undefined
    269c:	00000000 	udf	#0
    26a0:	00003000 	udf	#12288
    26a4:	00000000 	udf	#0
    26a8:	0007e800 	.inst	0x0007e800 ; undefined
    26ac:	00690800 	.inst	0x00690800 ; undefined
    26b0:	00410b84 	.inst	0x00410b84 ; undefined
    26b4:	91020000 	add	x0, x0, #0x80
    26b8:	e0030078 	.inst	0xe0030078 ; undefined
    26bc:	00000837 	udf	#2103
    26c0:	5c000000 	ldr	d0, 26c0 <bss_size+0x265f>
    26c4:	00000000 	udf	#0
    26c8:	08000000 	stxrb	w0, w0, [x0]
    26cc:	0b890069 	add	w9, w3, w9, asr #0
    26d0:	00000041 	udf	#65
    26d4:	00749102 	.inst	0x00749102 ; undefined
    26d8:	09310c00 	.inst	0x09310c00 ; undefined
    26dc:	30510000 	adr	x0, a46dd <bss_end+0x1b92d>
    26e0:	00000835 	udf	#2101
    26e4:	90000000 	adrp	x0, 2000 <bss_size+0x1f9f>
    26e8:	00000001 	udf	#1
    26ec:	01000000 	.inst	0x01000000 ; undefined
    26f0:	00086a9c 	.inst	0x00086a9c ; undefined
    26f4:	08f20200 	.inst	0x08f20200 ; undefined
    26f8:	13510000 	.inst	0x13510000 ; undefined
    26fc:	00000041 	udf	#65
    2700:	026c9102 	.inst	0x026c9102 ; undefined
    2704:	000008a5 	udf	#2213
    2708:	004f2751 	.inst	0x004f2751 ; undefined
    270c:	91020000 	add	x0, x0, #0x80
    2710:	094b0168 	.inst	0x094b0168 ; undefined
    2714:	07530000 	.inst	0x07530000 ; undefined
    2718:	00000041 	udf	#65
    271c:	017c9102 	.inst	0x017c9102 ; undefined
    2720:	00000820 	udf	#2080
    2724:	0041075b 	.inst	0x0041075b ; undefined
    2728:	91020000 	add	x0, x0, #0x80
    272c:	089f0178 	stllrb	w24, [x11]
    2730:	105c0000 	adr	x0, ba730 <bss_end+0x31980>
    2734:	0000004f 	udf	#79
    2738:	00749102 	.inst	0x00749102 ; undefined
    273c:	00089911 	.inst	0x00089911 ; undefined
    2740:	41054100 	.inst	0x41054100 ; undefined
    2744:	e0000000 	ld1b	{za0h.b[w12, 0]}, p0/z, [x0, x0]
    2748:	00000833 	udf	#2099
    274c:	50000000 	adr	x0, 274e <bss_size+0x26ed>
    2750:	00000001 	udf	#1
    2754:	01000000 	.inst	0x01000000 ; undefined
    2758:	0008b69c 	.inst	0x0008b69c ; undefined
    275c:	08f20200 	.inst	0x08f20200 ; undefined
    2760:	0f410000 	.inst	0x0f410000 ; undefined
    2764:	00000041 	udf	#65
    2768:	026c9102 	.inst	0x026c9102 ; undefined
    276c:	000008a5 	udf	#2213
    2770:	004f2341 	.inst	0x004f2341 ; undefined
    2774:	91020000 	add	x0, x0, #0x80
    2778:	094b0168 	.inst	0x094b0168 ; undefined
    277c:	07470000 	.inst	0x07470000 ; undefined
    2780:	00000041 	udf	#65
    2784:	007c9102 	.inst	0x007c9102 ; undefined
    2788:	0008ab0c 	.inst	0x0008ab0c ; undefined
    278c:	33443100 	.inst	0x33443100 ; undefined
    2790:	00000008 	udf	#8
    2794:	009c0000 	.inst	0x009c0000 ; undefined
    2798:	00000000 	udf	#0
    279c:	9c010000 	ldr	q0, 479c <bss_size+0x473b>
    27a0:	0000090f 	udf	#2319
    27a4:	0006f002 	.inst	0x0006f002 ; undefined
    27a8:	58193100 	ldr	x0, 34dc8 <bss_size+0x34d67>
    27ac:	02000001 	.inst	0x02000001 ; undefined
    27b0:	74086891 	.inst	0x74086891 ; undefined
    27b4:	3200706d 	orr	w13, w3, #0x1fffffff
    27b8:	0001580c 	.inst	0x0001580c ; undefined
    27bc:	78910200 	ldursh	x0, [x16, #-240]
    27c0:	08337403 	.inst	0x08337403 ; undefined
    27c4:	00000000 	udf	#0
    27c8:	00004800 	udf	#18432
    27cc:	00000000 	udf	#0
    27d0:	08f20100 	.inst	0x08f20100 ; undefined
    27d4:	09380000 	.inst	0x09380000 ; undefined
    27d8:	00000041 	udf	#65
    27dc:	00749102 	.inst	0x00749102 ; undefined
    27e0:	08031100 	stxrb	w3, w0, [x8]
    27e4:	05280000 	ext	z0.b, z0.b, z0.b, #64
    27e8:	00000041 	udf	#65
    27ec:	000832cc 	.inst	0x000832cc ; undefined
    27f0:	00000000 	udf	#0
    27f4:	00000078 	udf	#120
    27f8:	00000000 	udf	#0
    27fc:	094d9c01 	.inst	0x094d9c01 ; undefined
    2800:	a5020000 	ld1rqw	{z0.s}, p0/z, [x0, x2, lsl #2]
    2804:	28000008 	stnp	w8, w0, [x0]
    2808:	00004112 	udf	#16658
    280c:	6c910200 	stp	d0, d0, [x16], #272
    2810:	0008f201 	.inst	0x0008f201 ; undefined
    2814:	41072c00 	.inst	0x41072c00 ; undefined
    2818:	02000000 	.inst	0x02000000 ; undefined
    281c:	17007c91 	b	fffffffffc021a60 <bss_end+0xfffffffffbf98cb0>
    2820:	00000963 	udf	#2403
    2824:	0832081c 	.inst	0x0832081c ; undefined
    2828:	00000000 	udf	#0
    282c:	0000c400 	udf	#50176
    2830:	00000000 	udf	#0
    2834:	949c0100 	bl	2702c34 <bss_end+0x2679e84>
    2838:	02000009 	.inst	0x02000009 ; undefined
    283c:	000008a5 	udf	#2213
    2840:	0041131c 	.inst	0x0041131c ; undefined
    2844:	91020000 	add	x0, x0, #0x80
    2848:	08f2026c 	.inst	0x08f2026c ; undefined
    284c:	1e1c0000 	.inst	0x1e1c0000 ; undefined
    2850:	00000041 	udf	#65
    2854:	01689102 	.inst	0x01689102 ; undefined
    2858:	000002bc 	udf	#700
    285c:	01580c1d 	.inst	0x01580c1d ; undefined
    2860:	91020000 	add	x0, x0, #0x80
    2864:	84220078 	.inst	0x84220078 ; undefined
    2868:	01000008 	.inst	0x01000008 ; undefined
    286c:	3120060d 	adds	w13, w16, #0x801
    2870:	00000008 	udf	#8
    2874:	00e80000 	.inst	0x00e80000 ; undefined
    2878:	00000000 	udf	#0
    287c:	9c010000 	ldr	q0, 487c <bss_size+0x481b>
    2880:	0008a502 	.inst	0x0008a502 ; undefined
    2884:	41130d00 	.inst	0x41130d00 ; undefined
    2888:	02000000 	.inst	0x02000000 ; undefined
    288c:	f2026c91 	ands	x17, x4, #0xc3ffffffc3ffffff
    2890:	0d000008 	st1	{v8.b}[0], [x0]
    2894:	0000411e 	udf	#16670
    2898:	68910200 	stgp	x0, x0, [x16], #544
    289c:	0002bc01 	.inst	0x0002bc01 ; undefined
    28a0:	580c0e00 	ldr	x0, 1aa60 <bss_size+0x1a9ff>
    28a4:	02000001 	.inst	0x02000001 ; undefined
    28a8:	9c037891 	ldr	q17, 97b8 <bss_size+0x9757>
    28ac:	00000831 	udf	#2097
    28b0:	60000000 	.inst	0x60000000 ; undefined
    28b4:	00000000 	udf	#0
    28b8:	01000000 	.inst	0x01000000 ; undefined
    28bc:	0000092c 	udf	#2348
    28c0:	01580e14 	.inst	0x01580e14 ; undefined
    28c4:	91020000 	add	x0, x0, #0x80
    28c8:	00000070 	udf	#112
    28cc:	000004c3 	udf	#1219
    28d0:	08010005 	stxrb	w1, w5, [x0]
    28d4:	00000eee 	udf	#3822
    28d8:	00004f13 	udf	#20243
    28dc:	017f1d00 	.inst	0x017f1d00 ; undefined
    28e0:	000e0000 	.inst	0x000e0000 ; undefined
    28e4:	41500000 	.inst	0x41500000 ; undefined
    28e8:	00000008 	udf	#8
    28ec:	09740000 	.inst	0x09740000 ; undefined
    28f0:	00000000 	udf	#0
    28f4:	17690000 	b	fffffffffda428f4 <bss_end+0xfffffffffd9b9b44>
    28f8:	450b0000 	.inst	0x450b0000 ; undefined
    28fc:	3e000000 	.inst	0x3e000000 ; undefined
    2900:	0c000000 	st4	{v0.8b-v3.8b}, [x0]
    2904:	0000003e 	udf	#62
    2908:	080300ff 	stxrb	w3, wzr, [x7]
    290c:	00044707 	.inst	0x00044707 ; undefined
    2910:	08010300 	stxrb	w1, w0, [x24]
    2914:	0000020a 	udf	#522
    2918:	00004514 	udf	#17684
    291c:	06a30400 	.inst	0x06a30400 ; undefined
    2920:	0d140000 	.inst	0x0d140000 ; undefined
    2924:	0000002e 	udf	#46
    2928:	0006b204 	.inst	0x0006b204 ; undefined
    292c:	2e0d1500 	.inst	0x2e0d1500 ; undefined
    2930:	04000000 	add	z0.b, p0/m, z0.b, z0.b
    2934:	00000757 	udf	#1879
    2938:	00720c16 	.inst	0x00720c16 ; undefined
    293c:	04150000 	.inst	0x04150000 ; undefined
    2940:	746e6905 	.inst	0x746e6905 ; undefined
    2944:	09c20400 	.inst	0x09c20400 ; undefined
    2948:	0c170000 	.inst	0x0c170000 ; undefined
    294c:	00000072 	udf	#114
    2950:	00074b04 	.inst	0x00074b04 ; undefined
    2954:	720c1800 	ands	w0, w0, #0x7f00000
    2958:	04000000 	add	z0.b, p0/m, z0.b, z0.b
    295c:	000005f1 	udf	#1521
    2960:	00720c19 	.inst	0x00720c19 ; undefined
    2964:	01030000 	.inst	0x01030000 ; undefined
    2968:	00020306 	.inst	0x00020306 ; undefined
    296c:	05020300 	orr	z0.d, z0.d, #0x1ffffff
    2970:	0000014c 	udf	#332
    2974:	c5050803 	ld1sw	{z3.d}, p2/z, [x0, z5.d, uxtw]
    2978:	03000001 	.inst	0x03000001 ; undefined
    297c:	02010801 	.inst	0x02010801 ; undefined
    2980:	02030000 	.inst	0x02030000 ; undefined
    2984:	00021f07 	.inst	0x00021f07 ; undefined
    2988:	07040300 	.inst	0x07040300 ; undefined
    298c:	0000044c 	udf	#1100
    2990:	00005105 	udf	#20741
    2994:	09060700 	.inst	0x09060700 ; undefined
    2998:	088b7003 	stllrb	w3, [x0]
    299c:	00000000 	udf	#0
    29a0:	005c0500 	.inst	0x005c0500 ; undefined
    29a4:	06080000 	.inst	0x06080000 ; undefined
    29a8:	8c700309 	.inst	0x8c700309 ; undefined
    29ac:	00000008 	udf	#8
    29b0:	67050000 	.inst	0x67050000 ; undefined
    29b4:	09000000 	.inst	0x09000000 ; undefined
    29b8:	70030905 	adr	x5, 8adb <bss_size+0x8a7a>
    29bc:	0000088d 	udf	#2189
    29c0:	05000000 	orr	z0.s, z0.s, #0x1
    29c4:	00000079 	udf	#121
    29c8:	0309050a 	.inst	0x0309050a ; undefined
    29cc:	00088d74 	.inst	0x00088d74 ; undefined
    29d0:	00000000 	udf	#0
    29d4:	00008405 	udf	#33797
    29d8:	09050b00 	.inst	0x09050b00 ; undefined
    29dc:	088d7803 	stllrb	w3, [x0]
    29e0:	00000000 	udf	#0
    29e4:	008f0500 	.inst	0x008f0500 ; undefined
    29e8:	050c0000 	.inst	0x050c0000 ; undefined
    29ec:	8d7c0309 	.inst	0x8d7c0309 ; undefined
    29f0:	00000008 	udf	#8
    29f4:	080d0000 	stxrb	w13, w0, [x0]
    29f8:	1d000006 	.inst	0x1d000006 ; undefined
    29fc:	00000136 	udf	#310
    2a00:	290d000e 	stp	w14, w0, [x0, #104]
    2a04:	1c000006 	ldr	s6, 2a04 <bss_size+0x29a3>
    2a08:	00000142 	udf	#322
    2a0c:	d308000e 	.inst	0xd308000e ; undefined
    2a10:	0c000001 	st4	{v1.8b-v4.8b}, [x0]
    2a14:	00000072 	udf	#114
    2a18:	00000156 	udf	#342
    2a1c:	00015609 	.inst	0x00015609 ; undefined
    2a20:	450f0000 	.inst	0x450f0000 ; undefined
    2a24:	08000000 	stxrb	w0, w0, [x0]
    2a28:	000009f0 	udf	#2544
    2a2c:	0000720d 	udf	#29197
    2a30:	00016f00 	.inst	0x00016f00 ; undefined
    2a34:	01560900 	.inst	0x01560900 ; undefined
    2a38:	08000000 	stxrb	w0, w0, [x0]
    2a3c:	00000314 	udf	#788
    2a40:	00007204 	udf	#29188
    2a44:	00018300 	.inst	0x00018300 ; undefined
    2a48:	01830900 	.inst	0x01830900 ; undefined
    2a4c:	0f000000 	.inst	0x0f000000 ; undefined
    2a50:	0000004c 	udf	#76
    2a54:	00024f10 	.inst	0x00024f10 ; undefined
    2a58:	49c4d000 	.inst	0x49c4d000 ; undefined
    2a5c:	00000008 	udf	#8
    2a60:	01000000 	.inst	0x01000000 ; undefined
    2a64:	00000000 	udf	#0
    2a68:	9c010000 	ldr	q0, 4a68 <bss_size+0x4a07>
    2a6c:	000001d5 	udf	#469
    2a70:	74706f01 	.inst	0x74706f01 ; undefined
    2a74:	2e08d100 	.inst	0x2e08d100 ; undefined
    2a78:	03000000 	.inst	0x03000000 ; undefined
    2a7c:	117e8091 	add	w17, w4, #0xfa0, lsl #12
    2a80:	00084a00 	.inst	0x00084a00 ; undefined
    2a84:	00000000 	udf	#0
    2a88:	000000b4 	udf	#180
    2a8c:	00000000 	udf	#0
    2a90:	00099807 	.inst	0x00099807 ; undefined
    2a94:	2e0cdc00 	.inst	0x2e0cdc00 ; undefined
    2a98:	03000000 	.inst	0x03000000 ; undefined
    2a9c:	007c8091 	.inst	0x007c8091 ; undefined
    2aa0:	09770600 	.inst	0x09770600 ; undefined
    2aa4:	a4c00000 	.inst	0xa4c00000 ; undefined
    2aa8:	00000848 	udf	#2120
    2aac:	20000000 	.inst	0x20000000 ; undefined
    2ab0:	00000001 	udf	#1
    2ab4:	01000000 	.inst	0x01000000 ; undefined
    2ab8:	00022a9c 	.inst	0x00022a9c ; undefined
    2abc:	00730200 	.inst	0x00730200 ; undefined
    2ac0:	018323c0 	.inst	0x018323c0 ; undefined
    2ac4:	91020000 	add	x0, x0, #0x80
    2ac8:	656c0168 	fmla	z8.h, p0/m, z11.h, z12.h
    2acc:	07c2006e 	.inst	0x07c2006e ; undefined
    2ad0:	00000072 	udf	#114
    2ad4:	11789102 	add	w2, w8, #0xe24, lsl #12
    2ad8:	000848bc 	.inst	0x000848bc ; undefined
    2adc:	00000000 	udf	#0
    2ae0:	000000e0 	udf	#224
    2ae4:	00000000 	udf	#0
    2ae8:	c4006901 	ldff1b	{z1.d}, p2/z, [x8, z0.d, uxtw]
    2aec:	0000720b 	udf	#29195
    2af0:	7c910200 	.inst	0x7c910200 ; undefined
    2af4:	880a0000 	stxr	w10, w0, [x0]
    2af8:	b5000009 	cbnz	x9, 2af8 <bss_size+0x2a97>
    2afc:	000847d0 	.inst	0x000847d0 ; undefined
    2b00:	00000000 	udf	#0
    2b04:	000000d4 	udf	#212
    2b08:	00000000 	udf	#0
    2b0c:	02539c01 	.inst	0x02539c01 ; undefined
    2b10:	63020000 	.inst	0x63020000 ; undefined
    2b14:	4c21b500 	.inst	0x4c21b500 ; undefined
    2b18:	02000000 	.inst	0x02000000 ; undefined
    2b1c:	0a007f91 	and	w17, w28, w0, lsl #31
    2b20:	000009e5 	udf	#2533
    2b24:	084700a4 	ldxrb	w4, [x5]
    2b28:	00000000 	udf	#0
    2b2c:	0000d000 	udf	#53248
    2b30:	00000000 	udf	#0
    2b34:	969c0100 	bl	fffffffffa702f34 <bss_end+0xfffffffffa67a184>
    2b38:	02000002 	.inst	0x02000002 ; undefined
    2b3c:	1ca40073 	ldr	s19, fffffffffff4ab48 <bss_end+0xffffffffffec1d98>
    2b40:	00000156 	udf	#342
    2b44:	02689102 	.inst	0x02689102 ; undefined
    2b48:	006e656c 	.inst	0x006e656c ; undefined
    2b4c:	007223a4 	.inst	0x007223a4 ; undefined
    2b50:	91020000 	add	x0, x0, #0x80
    2b54:	00690164 	.inst	0x00690164 ; undefined
    2b58:	007207a6 	.inst	0x007207a6 ; undefined
    2b5c:	91020000 	add	x0, x0, #0x80
    2b60:	a312007c 	.inst	0xa312007c ; undefined
    2b64:	96000009 	bl	fffffffff8002b88 <bss_end+0xfffffffff7f79dd8>
    2b68:	00000045 	udf	#69
    2b6c:	00084660 	.inst	0x00084660 ; undefined
    2b70:	00000000 	udf	#0
    2b74:	000000a0 	udf	#160
    2b78:	00000000 	udf	#0
    2b7c:	02c39c01 	.inst	0x02c39c01 ; undefined
    2b80:	63010000 	.inst	0x63010000 ; undefined
    2b84:	45089a00 	smmla	z0.s, z16.b, z8.b
    2b88:	02000000 	.inst	0x02000000 ; undefined
    2b8c:	06007f91 	.inst	0x06007f91 ; undefined
    2b90:	00000015 	udf	#21
    2b94:	0844cc76 	ldaxrb	w22, [x3]
    2b98:	00000000 	udf	#0
    2b9c:	00019400 	.inst	0x00019400 ; undefined
    2ba0:	00000000 	udf	#0
    2ba4:	309c0100 	adr	x0, fffffffffff3abc5 <bss_end+0xffffffffffeb1e15>
    2ba8:	02000003 	.inst	0x02000003 ; undefined
    2bac:	006d756e 	.inst	0x006d756e ; undefined
    2bb0:	00721576 	.inst	0x00721576 ; undefined
    2bb4:	91020000 	add	x0, x0, #0x80
    2bb8:	06ab075c 	.inst	0x06ab075c ; undefined
    2bbc:	0a770000 	bic	w0, w0, w23, lsr #0
    2bc0:	00000330 	udf	#816
    2bc4:	01609102 	.inst	0x01609102 ; undefined
    2bc8:	09780069 	.inst	0x09780069 ; undefined
    2bcc:	00000072 	udf	#114
    2bd0:	077c9102 	.inst	0x077c9102 ; undefined
    2bd4:	000009f5 	udf	#2549
    2bd8:	00720979 	.inst	0x00720979 ; undefined
    2bdc:	91020000 	add	x0, x0, #0x80
    2be0:	006a0178 	.inst	0x006a0178 ; undefined
    2be4:	0072098b 	.inst	0x0072098b ; undefined
    2be8:	91020000 	add	x0, x0, #0x80
    2bec:	00200774 	.inst	0x00200774 ; NYI
    2bf0:	0a8c0000 	and	w0, w0, w12, asr #0
    2bf4:	00000045 	udf	#69
    2bf8:	00739102 	.inst	0x00739102 ; undefined
    2bfc:	0000450b 	udf	#17675
    2c00:	00034000 	.inst	0x00034000 ; undefined
    2c04:	003e0c00 	.inst	0x003e0c00 ; NYI
    2c08:	000b0000 	.inst	0x000b0000 ; undefined
    2c0c:	0009da06 	.inst	0x0009da06 ; undefined
    2c10:	44506b00 	sqdmlslb	z0.h, z24.b, z16.b
    2c14:	00000008 	udf	#8
    2c18:	007c0000 	.inst	0x007c0000 ; undefined
    2c1c:	00000000 	udf	#0
    2c20:	9c010000 	ldr	q0, 4c20 <bss_size+0x4bbf>
    2c24:	00000381 	udf	#897
    2c28:	6b006802 	subs	w2, w0, w0, lsl #26
    2c2c:	00038124 	.inst	0x00038124 ; undefined
    2c30:	68910200 	stgp	x0, x0, [x16], #544
    2c34:	6c006e01 	stnp	d1, d27, [x16]
    2c38:	0000bd10 	udf	#48400
    2c3c:	78910200 	ldursh	x0, [x16, #-240]
    2c40:	6d006301 	stp	d1, d24, [x24]
    2c44:	00007207 	udf	#29191
    2c48:	7c910200 	.inst	0x7c910200 ; undefined
    2c4c:	07080300 	.inst	0x07080300 ; undefined
    2c50:	00000442 	udf	#1090
    2c54:	00045906 	.inst	0x00045906 ; undefined
    2c58:	43d46000 	.inst	0x43d46000 ; undefined
    2c5c:	00000008 	udf	#8
    2c60:	007c0000 	.inst	0x007c0000 ; undefined
    2c64:	00000000 	udf	#0
    2c68:	9c010000 	ldr	q0, 4c68 <bss_size+0x4c07>
    2c6c:	000003c9 	udf	#969
    2c70:	60006802 	.inst	0x60006802 ; undefined
    2c74:	0000bd1e 	udf	#48414
    2c78:	6c910200 	stp	d0, d0, [x16], #272
    2c7c:	61006e01 	.inst	0x61006e01 ; undefined
    2c80:	0000bd10 	udf	#48400
    2c84:	78910200 	ldursh	x0, [x16, #-240]
    2c88:	62006301 	.inst	0x62006301 ; undefined
    2c8c:	00007207 	udf	#29191
    2c90:	7c910200 	.inst	0x7c910200 ; undefined
    2c94:	020f0600 	.inst	0x020f0600 ; undefined
    2c98:	a0570000 	.inst	0xa0570000 ; undefined
    2c9c:	00000843 	udf	#2115
    2ca0:	34000000 	cbz	w0, 2ca0 <bss_size+0x2c3f>
    2ca4:	00000000 	udf	#0
    2ca8:	01000000 	.inst	0x01000000 ; undefined
    2cac:	0003f29c 	.inst	0x0003f29c ; undefined
    2cb0:	00630200 	.inst	0x00630200 ; undefined
    2cb4:	004c1c57 	.inst	0x004c1c57 ; undefined
    2cb8:	91020000 	add	x0, x0, #0x80
    2cbc:	2a06007f 	orr	wzr, w3, w6
    2cc0:	4b000000 	sub	w0, w0, w0
    2cc4:	00084344 	.inst	0x00084344 ; undefined
    2cc8:	00000000 	udf	#0
    2ccc:	0000005c 	udf	#92
    2cd0:	00000000 	udf	#0
    2cd4:	041b9c01 	lsl	z1.b, p7/m, z1.b, z0.d
    2cd8:	73020000 	.inst	0x73020000 ; undefined
    2cdc:	831d4b00 	.inst	0x831d4b00 ; undefined
    2ce0:	02000001 	.inst	0x02000001 ; undefined
    2ce4:	0a007891 	and	w17, w4, w0, lsl #30
    2ce8:	00000a07 	udf	#2567
    2cec:	08430040 	ldxrb	w0, [x2]
    2cf0:	00000000 	udf	#0
    2cf4:	00004400 	udf	#17408
    2cf8:	00000000 	udf	#0
    2cfc:	449c0100 	sdot	z0.s, z8.b, z28.b
    2d00:	02000004 	.inst	0x02000004 ; undefined
    2d04:	1d400063 	.inst	0x1d400063 ; undefined
    2d08:	000000bd 	udf	#189
    2d0c:	007c9102 	.inst	0x007c9102 ; undefined
    2d10:	0009d012 	.inst	0x0009d012 ; undefined
    2d14:	00453300 	.inst	0x00453300 ; undefined
    2d18:	42ac0000 	.inst	0x42ac0000 ; undefined
    2d1c:	00000008 	udf	#8
    2d20:	00540000 	.inst	0x00540000 ; undefined
    2d24:	00000000 	udf	#0
    2d28:	9c010000 	ldr	q0, 4d28 <bss_size+0x4cc7>
    2d2c:	00000471 	udf	#1137
    2d30:	35006301 	cbnz	w1, 3990 <bss_size+0x392f>
    2d34:	00004508 	udf	#17672
    2d38:	7f910200 	.inst	0x7f910200 ; undefined
    2d3c:	07781000 	.inst	0x07781000 ; undefined
    2d40:	84160000 	ld1sb	{z0.s}, p0/z, [x0, z22.s, uxtw]
    2d44:	00000841 	udf	#2113
    2d48:	28000000 	stnp	w0, w0, [x0]
    2d4c:	00000001 	udf	#1
    2d50:	01000000 	.inst	0x01000000 ; undefined
    2d54:	00049c9c 	.inst	0x00049c9c ; undefined
    2d58:	09b30700 	.inst	0x09b30700 ; undefined
    2d5c:	10180000 	adr	x0, 32d5c <bss_size+0x32cfb>
    2d60:	000000bd 	udf	#189
    2d64:	007c9102 	.inst	0x007c9102 ; undefined
    2d68:	0009bc16 	.inst	0x0009bc16 ; undefined
    2d6c:	060e0100 	.inst	0x060e0100 ; undefined
    2d70:	00084150 	.inst	0x00084150 ; undefined
    2d74:	00000000 	udf	#0
    2d78:	00000034 	udf	#52
    2d7c:	00000000 	udf	#0
    2d80:	00179c01 	.inst	0x00179c01 ; undefined
    2d84:	0100000a 	.inst	0x0100000a ; undefined
    2d88:	00bd190e 	.inst	0x00bd190e ; undefined
    2d8c:	91020000 	add	x0, x0, #0x80
    2d90:	4c00007c 	st4	{v28.16b-v31.16b}, [x3]
    2d94:	05000002 	orr	z2.s, z2.s, #0x1
    2d98:	74080100 	.inst	0x74080100 ; undefined
    2d9c:	0c000010 	st4	{v16.8b-v19.8b}, [x0]
    2da0:	0000004f 	udf	#79
    2da4:	00018f1d 	.inst	0x00018f1d ; undefined
    2da8:	00000e00 	udf	#3584
    2dac:	084ac400 	ldaxrb	w0, [x0]
    2db0:	00000000 	udf	#0
    2db4:	0001c000 	.inst	0x0001c000 ; undefined
    2db8:	00000000 	udf	#0
    2dbc:	001ad900 	.inst	0x001ad900 ; undefined
    2dc0:	00450700 	.inst	0x00450700 ; undefined
    2dc4:	003e0000 	.inst	0x003e0000 ; NYI
    2dc8:	3e080000 	.inst	0x3e080000 ; undefined
    2dcc:	ff000000 	.inst	0xff000000 ; undefined
    2dd0:	07080100 	.inst	0x07080100 ; undefined
    2dd4:	00000447 	udf	#1095
    2dd8:	0a080101 	and	w1, w8, w8
    2ddc:	0d000002 	st1	{v2.b}[0], [x0]
    2de0:	00000045 	udf	#69
    2de4:	6905040e 	stgp	x14, x1, [x0, #160]
    2de8:	0f00746e 	orr	v14.2s, #0x3, lsl #24
    2dec:	090a0218 	.inst	0x090a0218 ; undefined
    2df0:	00000086 	udf	#134
    2df4:	00016e05 	.inst	0x00016e05 ; undefined
    2df8:	860f0b00 	.inst	0x860f0b00 ; undefined
    2dfc:	00000000 	udf	#0
    2e00:	00014005 	.inst	0x00014005 ; undefined
    2e04:	860f0c00 	.inst	0x860f0c00 ; undefined
    2e08:	08000000 	stxrb	w0, w0, [x0]
    2e0c:	0001bb05 	.inst	0x0001bb05 ; undefined
    2e10:	a1090d00 	.inst	0xa1090d00 ; undefined
    2e14:	10000000 	adr	x0, 2e14 <bss_size+0x2db3>
    2e18:	004c0300 	.inst	0x004c0300 ; undefined
    2e1c:	51100000 	sub	w0, w0, #0x400
    2e20:	9a000000 	adc	x0, x0, x0
    2e24:	02000000 	.inst	0x02000000 ; undefined
    2e28:	0000009a 	udf	#154
    2e2c:	009f0300 	.inst	0x009f0300 ; undefined
    2e30:	08110000 	stxrb	w17, w0, [x0]
    2e34:	00008b03 	udf	#35587
    2e38:	02321200 	.inst	0x02321200 ; undefined
    2e3c:	0e020000 	tbl	v0.8b, {v0.16b}, v2.8b
    2e40:	00005802 	udf	#22530
    2e44:	00a60700 	.inst	0x00a60700 ; undefined
    2e48:	00bd0000 	.inst	0x00bd0000 ; undefined
    2e4c:	00130000 	.inst	0x00130000 ; undefined
    2e50:	0001e614 	.inst	0x0001e614 ; undefined
    2e54:	101a0200 	adr	x0, 36e94 <bss_size+0x36e33>
    2e58:	000000b2 	udf	#178
    2e5c:	03060101 	.inst	0x03060101 ; undefined
    2e60:	01000002 	.inst	0x01000002 ; undefined
    2e64:	014c0502 	.inst	0x014c0502 ; undefined
    2e68:	08010000 	stxrb	w1, w0, [x0]
    2e6c:	0001c505 	.inst	0x0001c505 ; undefined
    2e70:	08010100 	stxrb	w1, w0, [x8]
    2e74:	00000201 	udf	#513
    2e78:	1f070201 	fmadd	s1, s16, s7, s0
    2e7c:	01000002 	.inst	0x01000002 ; undefined
    2e80:	044c0704 	sabd	z4.h, p1/m, z4.h, z24.h
    2e84:	08010000 	stxrb	w1, w0, [x0]
    2e88:	0001c005 	.inst	0x0001c005 ; undefined
    2e8c:	04100100 	mul	z0.b, p0/m, z0.b, z8.b
    2e90:	000001f5 	udf	#501
    2e94:	000a2506 	.inst	0x000a2506 ; undefined
    2e98:	1b070800 	madd	w0, w0, w7, w2
    2e9c:	1b000001 	madd	w1, w0, w0, w0
    2ea0:	02000001 	.inst	0x02000001 ; undefined
    2ea4:	0000011b 	udf	#283
    2ea8:	00008602 	udf	#34306
    2eac:	45030000 	.inst	0x45030000 ; undefined
    2eb0:	06000000 	.inst	0x06000000 ; undefined
    2eb4:	0000057f 	udf	#1407
    2eb8:	00510505 	.inst	0x00510505 ; undefined
    2ebc:	013a0000 	.inst	0x013a0000 ; undefined
    2ec0:	86020000 	.inst	0x86020000 ; undefined
    2ec4:	02000000 	.inst	0x02000000 ; undefined
    2ec8:	00000086 	udf	#134
    2ecc:	09f00600 	.inst	0x09f00600 ; undefined
    2ed0:	050d0000 	.inst	0x050d0000 ; undefined
    2ed4:	00000051 	udf	#81
    2ed8:	0000014f 	udf	#335
    2edc:	00011b02 	.inst	0x00011b02 ; undefined
    2ee0:	2a090000 	orr	w0, w0, w9
    2ee4:	04000000 	add	z0.b, p0/m, z0.b, z0.b
    2ee8:	0001601f 	.inst	0x0001601f ; undefined
    2eec:	00860200 	.inst	0x00860200 ; undefined
    2ef0:	09000000 	.inst	0x09000000 ; undefined
    2ef4:	00000a11 	udf	#2577
    2ef8:	017b0a03 	.inst	0x017b0a03 ; undefined
    2efc:	9f020000 	.inst	0x9f020000 ; undefined
    2f00:	02000000 	.inst	0x02000000 ; undefined
    2f04:	00000051 	udf	#81
    2f08:	00005102 	udf	#20738
    2f0c:	18150000 	ldr	w0, 2cf0c <bss_size+0x2ceab>
    2f10:	0100000a 	.inst	0x0100000a ; undefined
    2f14:	4b880620 	sub	w0, w17, w8, asr #1
    2f18:	00000008 	udf	#8
    2f1c:	00fc0000 	.inst	0x00fc0000 ; undefined
    2f20:	00000000 	udf	#0
    2f24:	9c010000 	ldr	q0, 4f24 <bss_size+0x4ec3>
    2f28:	000001d3 	udf	#467
    2f2c:	000a2c0a 	.inst	0x000a2c0a ; undefined
    2f30:	00511700 	.inst	0x00511700 ; undefined
    2f34:	91020000 	add	x0, x0, #0x80
    2f38:	01ce0a6c 	.inst	0x01ce0a6c ; undefined
    2f3c:	d3230000 	.inst	0xd3230000 ; undefined
    2f40:	02000001 	.inst	0x02000001 ; undefined
    2f44:	980b6091 	ldrsw	x17, 19b54 <bss_size+0x19af3>
    2f48:	0000084b 	udf	#2123
    2f4c:	cc000000 	.inst	0xcc000000 ; undefined
    2f50:	00000000 	udf	#0
    2f54:	16000000 	b	fffffffff8002f54 <bss_end+0xfffffffff7f7a1a4>
    2f58:	21010069 	.inst	0x21010069 ; undefined
    2f5c:	0000510c 	udf	#20748
    2f60:	7c910200 	.inst	0x7c910200 ; undefined
    2f64:	1b030000 	madd	w0, w0, w3, w0
    2f68:	17000001 	b	fffffffffc002f6c <bss_end+0xfffffffffbf7a1bc>
    2f6c:	000007cb 	udf	#1995
    2f70:	c4060b01 	ld1sb	{z1.d}, p2/z, [x24, z6.d, uxtw]
    2f74:	0000084a 	udf	#2122
    2f78:	c4000000 	ld1sb	{z0.d}, p0/z, [x0, z0.d, uxtw]
    2f7c:	00000000 	udf	#0
    2f80:	01000000 	.inst	0x01000000 ; undefined
    2f84:	0002439c 	.inst	0x0002439c ; undefined
    2f88:	06ab0400 	.inst	0x06ab0400 ; undefined
    2f8c:	080c0000 	stxrb	w12, w0, [x0]
    2f90:	0000002e 	udf	#46
    2f94:	7df09103 	.inst	0x7df09103 ; undefined
    2f98:	0001ce04 	.inst	0x0001ce04 ; undefined
    2f9c:	43090e00 	.inst	0x43090e00 ; undefined
    2fa0:	03000002 	.inst	0x03000002 ; undefined
    2fa4:	0b7da091 	.inst	0x0b7da091 ; undefined
    2fa8:	00084adc 	.inst	0x00084adc ; undefined
    2fac:	00000000 	udf	#0
    2fb0:	000000a8 	udf	#168
    2fb4:	00000000 	udf	#0
    2fb8:	000a2c04 	.inst	0x000a2c04 ; undefined
    2fbc:	51091100 	sub	w0, w8, #0x244
    2fc0:	02000000 	.inst	0x02000000 ; undefined
    2fc4:	44047c91 	.inst	0x44047c91 ; undefined
    2fc8:	16000003 	b	fffffffff8002fd4 <bss_end+0xfffffffff7f7a224>
    2fcc:	00011b0b 	.inst	0x00011b0b ; undefined
    2fd0:	70910200 	adr	x0, fffffffffff25013 <bss_end+0xffffffffffe9c263>
    2fd4:	1b180000 	madd	w0, w0, w24, w0
    2fd8:	08000001 	stxrb	w0, w1, [x0]
    2fdc:	0000003e 	udf	#62
    2fe0:	29000009 	stp	w9, w0, [x0]
    2fe4:	05000000 	orr	z0.s, z0.s, #0x1
    2fe8:	ca080100 	eor	x0, x8, x8
    2fec:	01000011 	.inst	0x01000011 ; undefined
    2ff0:	0000004f 	udf	#79
    2ff4:	00019b1d 	.inst	0x00019b1d ; undefined
    2ff8:	00000e00 	udf	#3584
    2ffc:	001ba700 	.inst	0x001ba700 ; undefined
    3000:	07080200 	.inst	0x07080200 ; undefined
    3004:	00000447 	udf	#1095
    3008:	69050403 	stgp	x3, x1, [x0, #160]
    300c:	0000746e 	udf	#29806
    3010:	0000043e 	udf	#1086
    3014:	08010005 	stxrb	w1, w5, [x0]
    3018:	000011f0 	udf	#4592
    301c:	00004f0c 	udf	#20236
    3020:	01a81d00 	.inst	0x01a81d00 ; undefined
    3024:	000e0000 	.inst	0x000e0000 ; undefined
    3028:	4c840000 	st4	{v0.16b-v3.16b}, [x0], x4
    302c:	00000008 	udf	#8
    3030:	06200000 	.inst	0x06200000 ; undefined
    3034:	00000000 	udf	#0
    3038:	1bdc0000 	.inst	0x1bdc0000 ; undefined
    303c:	08030000 	stxrb	w3, w0, [x0]
    3040:	00044707 	.inst	0x00044707 ; undefined
    3044:	08010300 	stxrb	w1, w0, [x24]
    3048:	0000020a 	udf	#522
    304c:	00003509 	udf	#13577
    3050:	05040d00 	.inst	0x05040d00 ; undefined
    3054:	00746e69 	.inst	0x00746e69 ; undefined
    3058:	c5050803 	ld1sw	{z3.d}, p2/z, [x0, z5.d, uxtw]
    305c:	0e000001 	tbl	v1.8b, {v0.16b}, v0.8b
    3060:	000003fc 	udf	#1020
    3064:	2e17d103 	.inst	0x2e17d103 ; undefined
    3068:	03000000 	.inst	0x03000000 ; undefined
    306c:	044c0704 	sabd	z4.h, p1/m, z4.h, z24.h
    3070:	08030000 	stxrb	w3, w0, [x0]
    3074:	0001c005 	.inst	0x0001c005 ; undefined
    3078:	04100300 	mul	z0.b, p0/m, z0.b, z24.b
    307c:	000001f5 	udf	#501
    3080:	0f10080f 	.inst	0x0f10080f ; undefined
    3084:	02000002 	.inst	0x02000002 ; undefined
    3088:	0084061e 	.inst	0x0084061e ; undefined
    308c:	3c0a0000 	stur	b0, [x0, #160]
    3090:	00000000 	udf	#0
    3094:	0009d011 	.inst	0x0009d011 ; undefined
    3098:	061c0200 	.inst	0x061c0200 ; undefined
    309c:	00000035 	udf	#53
    30a0:	00000096 	udf	#150
    30a4:	c8130012 	stxr	w19, x18, [x0]
    30a8:	04000000 	add	z0.b, p0/m, z0.b, z0.b
    30ac:	0070070b 	.inst	0x0070070b ; undefined
    30b0:	00ac0000 	.inst	0x00ac0000 ; undefined
    30b4:	410a0000 	.inst	0x410a0000 ; undefined
    30b8:	00000000 	udf	#0
    30bc:	0001d304 	.inst	0x0001d304 ; undefined
    30c0:	41058a00 	.inst	0x41058a00 ; undefined
    30c4:	40000000 	.inst	0x40000000 ; undefined
    30c8:	00000852 	udf	#2130
    30cc:	64000000 	.inst	0x64000000 ; undefined
    30d0:	00000000 	udf	#0
    30d4:	01000000 	.inst	0x01000000 ; undefined
    30d8:	0000e89c 	udf	#59548
    30dc:	74730200 	.inst	0x74730200 ; undefined
    30e0:	108a0072 	adr	x18, fffffffffff170ec <bss_end+0xffffffffffe8e33c>
    30e4:	000000e8 	udf	#232
    30e8:	01689102 	.inst	0x01689102 ; undefined
    30ec:	078b006e 	.inst	0x078b006e ; undefined
    30f0:	00000041 	udf	#65
    30f4:	007c9102 	.inst	0x007c9102 ; undefined
    30f8:	00003506 	udf	#13574
    30fc:	09f00b00 	.inst	0x09f00b00 ; undefined
    3100:	05710000 	ext	z0.b, {z0.b, z1.b}, #136
    3104:	00000041 	udf	#65
    3108:	00085158 	.inst	0x00085158 ; undefined
    310c:	00000000 	udf	#0
    3110:	000000e8 	udf	#232
    3114:	00000000 	udf	#0
    3118:	01499c01 	.inst	0x01499c01 ; undefined
    311c:	73020000 	.inst	0x73020000 ; undefined
    3120:	71007274 	subs	w20, w19, #0x1c
    3124:	0000e810 	udf	#59408
    3128:	68910200 	stgp	x0, x0, [x16], #544
    312c:	706d7401 	adr	x1, ddfaf <bss_end+0x551ff>
    3130:	e8097200 	.inst	0xe8097200 ; undefined
    3134:	02000000 	.inst	0x02000000 ; undefined
    3138:	6c077891 	stnp	d17, d30, [x4, #112]
    313c:	00000851 	udf	#2129
    3140:	c0000000 	mov	za0h.b[w12, 0], p0/m, z0.b
    3144:	00000000 	udf	#0
    3148:	01000000 	.inst	0x01000000 ; undefined
    314c:	0c730069 	.inst	0x0c730069 ; undefined
    3150:	00000041 	udf	#65
    3154:	00749102 	.inst	0x00749102 ; undefined
    3158:	05ad0400 	zip2	z0.q, z0.q, z13.q
    315c:	05640000 	ext	z0.b, {z0.b, z1.b}, #32
    3160:	00000041 	udf	#65
    3164:	00085050 	.inst	0x00085050 ; undefined
    3168:	00000000 	udf	#0
    316c:	00000108 	udf	#264
    3170:	00000000 	udf	#0
    3174:	01939c01 	.inst	0x01939c01 ; undefined
    3178:	73020000 	.inst	0x73020000 ; undefined
    317c:	64007274 	.inst	0x64007274 ; undefined
    3180:	0001931a 	.inst	0x0001931a ; undefined
    3184:	68910200 	stgp	x0, x0, [x16], #544
    3188:	6e656c02 	umin	v2.8h, v0.8h, v5.8h
    318c:	41236400 	.inst	0x41236400 ; undefined
    3190:	02000000 	.inst	0x02000000 ; undefined
    3194:	6e016491 	mov	v17.b[0], v4.b[12]
    3198:	41076500 	.inst	0x41076500 ; undefined
    319c:	02000000 	.inst	0x02000000 ; undefined
    31a0:	06007c91 	.inst	0x06007c91 ; undefined
    31a4:	0000003c 	udf	#60
    31a8:	000a1114 	.inst	0x000a1114 ; undefined
    31ac:	065c0100 	.inst	0x065c0100 ; undefined
    31b0:	00084ff0 	.inst	0x00084ff0 ; undefined
    31b4:	00000000 	udf	#0
    31b8:	00000060 	udf	#96
    31bc:	00000000 	udf	#0
    31c0:	02099c01 	.inst	0x02099c01 ; undefined
    31c4:	70020000 	adr	x0, 71c7 <bss_size+0x7166>
    31c8:	5c007274 	ldr	d20, 4014 <bss_size+0x3fb3>
    31cc:	00007013 	udf	#28691
    31d0:	68910200 	stgp	x0, x0, [x16], #544
    31d4:	000a5905 	.inst	0x000a5905 ; undefined
    31d8:	411c5c00 	.inst	0x411c5c00 ; undefined
    31dc:	02000000 	.inst	0x02000000 ; undefined
    31e0:	6e026491 	mov	v17.h[0], v4.h[6]
    31e4:	41275c00 	.inst	0x41275c00 ; undefined
    31e8:	02000000 	.inst	0x02000000 ; undefined
    31ec:	70016091 	adr	x17, 5dff <bss_size+0x5d9e>
    31f0:	09145d00 	.inst	0x09145d00 ; undefined
    31f4:	02000002 	.inst	0x02000002 ; undefined
    31f8:	08077091 	stxrb	w7, w17, [x4]
    31fc:	00000850 	udf	#2128
    3200:	3c000000 	stur	b0, [x0]
    3204:	00000000 	udf	#0
    3208:	01000000 	.inst	0x01000000 ; undefined
    320c:	115e0069 	add	w9, w3, #0x780, lsl #12
    3210:	0000004f 	udf	#79
    3214:	00789102 	.inst	0x00789102 ; undefined
    3218:	020e0600 	.inst	0x020e0600 ; undefined
    321c:	01030000 	.inst	0x01030000 ; undefined
    3220:	00020108 	.inst	0x00020108 ; undefined
    3224:	020e0900 	.inst	0x020e0900 ; undefined
    3228:	c2040000 	.inst	0xc2040000 ; undefined
    322c:	51000002 	sub	w2, w0, #0x0
    3230:	00004105 	udf	#16645
    3234:	084f4000 	ldxrb	w0, [x0]
    3238:	00000000 	udf	#0
    323c:	0000b000 	udf	#45056
    3240:	00000000 	udf	#0
    3244:	989c0100 	ldrsw	x0, fffffffffff3b264 <bss_end+0xffffffffffeb24b4>
    3248:	02000002 	.inst	0x02000002 ; undefined
    324c:	51003173 	sub	w19, w11, #0xc
    3250:	00029818 	.inst	0x00029818 ; undefined
    3254:	58910200 	ldr	x0, fffffffffff25294 <bss_end+0xffffffffffe9c4e4>
    3258:	00327302 	.inst	0x00327302 ; NYI
    325c:	02982851 	.inst	0x02982851 ; undefined
    3260:	91020000 	add	x0, x0, #0x80
    3264:	006e0250 	.inst	0x006e0250 ; undefined
    3268:	00413051 	.inst	0x00413051 ; undefined
    326c:	91020000 	add	x0, x0, #0x80
    3270:	0061014c 	.inst	0x0061014c ; undefined
    3274:	029e1852 	.inst	0x029e1852 ; undefined
    3278:	91020000 	add	x0, x0, #0x80
    327c:	00620170 	.inst	0x00620170 ; undefined
    3280:	029e2152 	.inst	0x029e2152 ; undefined
    3284:	91020000 	add	x0, x0, #0x80
    3288:	4f600768 	sshr	v8.2d, v27.2d, #32
    328c:	00000008 	udf	#8
    3290:	00840000 	.inst	0x00840000 ; undefined
    3294:	00000000 	udf	#0
    3298:	69010000 	stgp	x0, x0, [x0, #32]
    329c:	410b5300 	.inst	0x410b5300 ; undefined
    32a0:	02000000 	.inst	0x02000000 ; undefined
    32a4:	00007c91 	udf	#31889
    32a8:	00029d06 	.inst	0x00029d06 ; undefined
    32ac:	15061500 	b	41886ac <bss_end+0x40ff8fc>
    32b0:	04000002 	add	z2.b, p0/m, z2.b, z0.b
    32b4:	00000a25 	udf	#2597
    32b8:	00e80731 	.inst	0x00e80731 ; undefined
    32bc:	4e0c0000 	tbl	v0.16b, {v0.16b}, v12.16b
    32c0:	00000008 	udf	#8
    32c4:	01340000 	.inst	0x01340000 ; undefined
    32c8:	00000000 	udf	#0
    32cc:	9c010000 	ldr	q0, 52cc <bss_size+0x526b>
    32d0:	00000342 	udf	#834
    32d4:	72747302 	.inst	0x72747302 ; undefined
    32d8:	e8143100 	.inst	0xe8143100 ; undefined
    32dc:	02000000 	.inst	0x02000000 ; undefined
    32e0:	4a055891 	eor	w17, w4, w5, lsl #22
    32e4:	3100000a 	adds	w10, w0, #0x0
    32e8:	00019325 	.inst	0x00019325 ; undefined
    32ec:	50910200 	adr	x0, fffffffffff2532e <bss_end+0xffffffffffe9c57e>
    32f0:	000a5408 	.inst	0x000a5408 ; undefined
    32f4:	e8103200 	.inst	0xe8103200 ; undefined
    32f8:	09000000 	.inst	0x09000000 ; undefined
    32fc:	088d8003 	stlrb	w3, [x0]
    3300:	00000000 	udf	#0
    3304:	05710800 	ext	z0.b, {z0.b, z1.b}, #138
    3308:	09330000 	.inst	0x09330000 ; undefined
    330c:	000000e8 	udf	#232
    3310:	07789102 	.inst	0x07789102 ; undefined
    3314:	00084e3c 	.inst	0x00084e3c ; undefined
    3318:	00000000 	udf	#0
    331c:	000000e0 	udf	#224
    3320:	00000000 	udf	#0
    3324:	000a3108 	.inst	0x000a3108 ; undefined
    3328:	41093b00 	.inst	0x41093b00 ; undefined
    332c:	02000000 	.inst	0x02000000 ; undefined
    3330:	40077491 	.inst	0x40077491 ; undefined
    3334:	0000084e 	udf	#2126
    3338:	54000000 	b.eq	3338 <bss_size+0x32d7>  // b.none
    333c:	00000000 	udf	#0
    3340:	01000000 	.inst	0x01000000 ; undefined
    3344:	153d0064 	b	4f434d4 <bss_end+0x4eba724>
    3348:	00000193 	udf	#403
    334c:	00689102 	.inst	0x00689102 ; undefined
    3350:	390b0000 	strb	w0, [x0, #704]
    3354:	2500000a 	cmpge	p10.b, p0/z, z0.b, #0
    3358:	0000e807 	udf	#59399
    335c:	084dc000 	ldaxrb	w0, [x0]
    3360:	00000000 	udf	#0
    3364:	00004c00 	udf	#19456
    3368:	00000000 	udf	#0
    336c:	8c9c0100 	.inst	0x8c9c0100 ; undefined
    3370:	02000003 	.inst	0x02000003 ; undefined
    3374:	00727473 	.inst	0x00727473 ; undefined
    3378:	01931a25 	.inst	0x01931a25 ; undefined
    337c:	91020000 	add	x0, x0, #0x80
    3380:	656c0168 	fmla	z8.h, p0/m, z11.h, z12.h
    3384:	0726006e 	.inst	0x0726006e ; undefined
    3388:	00000041 	udf	#65
    338c:	017c9102 	.inst	0x017c9102 ; undefined
    3390:	092a0073 	.inst	0x092a0073 ; undefined
    3394:	000000e8 	udf	#232
    3398:	00709102 	.inst	0x00709102 ; undefined
    339c:	00024804 	.inst	0x00024804 ; undefined
    33a0:	41051b00 	.inst	0x41051b00 ; undefined
    33a4:	58000000 	ldr	x0, 33a4 <bss_size+0x3343>
    33a8:	0000084d 	udf	#2125
    33ac:	68000000 	.inst	0x68000000 ; undefined
    33b0:	00000000 	udf	#0
    33b4:	01000000 	.inst	0x01000000 ; undefined
    33b8:	0003ca9c 	.inst	0x0003ca9c ; undefined
    33bc:	0a400500 	and	w0, w8, w0, lsr #1
    33c0:	121b0000 	and	w0, w0, #0x20
    33c4:	000000e8 	udf	#232
    33c8:	05789102 	.inst	0x05789102 ; undefined
    33cc:	00000a45 	udf	#2629
    33d0:	0193241b 	.inst	0x0193241b ; undefined
    33d4:	91020000 	add	x0, x0, #0x80
    33d8:	7f040070 	.inst	0x7f040070 ; undefined
    33dc:	0e000005 	tbl	v5.8b, {v0.16b}, v0.8b
    33e0:	00004105 	udf	#16645
    33e4:	084cc400 	ldaxrb	w0, [x0]
    33e8:	00000000 	udf	#0
    33ec:	00009400 	udf	#37888
    33f0:	00000000 	udf	#0
    33f4:	089c0100 	stllrb	w0, [x8]
    33f8:	05000004 	orr	z4.s, z4.s, #0x1
    33fc:	00000a40 	udf	#2624
    3400:	0193180e 	.inst	0x0193180e ; undefined
    3404:	91020000 	add	x0, x0, #0x80
    3408:	0a450578 	and	w24, w11, w5, lsr #1
    340c:	2a0e0000 	orr	w0, w0, w14
    3410:	00000193 	udf	#403
    3414:	00709102 	.inst	0x00709102 ; undefined
    3418:	00031416 	.inst	0x00031416 ; undefined
    341c:	05060100 	.inst	0x05060100 ; undefined
    3420:	00000041 	udf	#65
    3424:	00084c84 	.inst	0x00084c84 ; undefined
    3428:	00000000 	udf	#0
    342c:	00000040 	udf	#64
    3430:	00000000 	udf	#0
    3434:	73029c01 	.inst	0x73029c01 ; undefined
    3438:	06007274 	.inst	0x06007274 ; undefined
    343c:	00019318 	.inst	0x00019318 ; undefined
    3440:	68910200 	stgp	x0, x0, [x16], #544
    3444:	07006901 	.inst	0x07006901 ; undefined
    3448:	00004107 	udf	#16647
    344c:	7c910200 	.inst	0x7c910200 ; undefined
    3450:	07d10000 	.inst	0x07d10000 ; undefined
    3454:	00050000 	.inst	0x00050000 ; undefined
    3458:	13560801 	.inst	0x13560801 ; undefined
    345c:	4f190000 	.inst	0x4f190000 ; undefined
    3460:	1d000000 	.inst	0x1d000000 ; undefined
    3464:	000001b5 	udf	#437
    3468:	0000000e 	udf	#14
    346c:	000852a4 	.inst	0x000852a4 ; undefined
    3470:	00000000 	udf	#0
    3474:	00000730 	udf	#1840
    3478:	00000000 	udf	#0
    347c:	00001e9a 	udf	#7834
    3480:	0004151a 	.inst	0x0004151a ; undefined
    3484:	02011000 	.inst	0x02011000 ; undefined
    3488:	006d1004 	.inst	0x006d1004 ; undefined
    348c:	78020000 	sturh	w0, [x0, #32]
    3490:	11050200 	add	w0, w16, #0x140
    3494:	0000006d 	udf	#109
    3498:	04640600 	sub	z0.h, z16.h, z4.h
    349c:	06020000 	.inst	0x06020000 ; undefined
    34a0:	00007d11 	udf	#32017
    34a4:	d214f800 	.inst	0xd214f800 ; undefined
    34a8:	07000003 	.inst	0x07000003 ; undefined
    34ac:	0000007d 	udf	#125
    34b0:	6d140100 	stp	d0, d0, [x8, #320]
    34b4:	08000004 	stxrb	w0, w4, [x0]
    34b8:	0000007d 	udf	#125
    34bc:	1b000108 	madd	w8, w8, w0, w0
    34c0:	0000007d 	udf	#125
    34c4:	0000007d 	udf	#125
    34c8:	00007d1c 	udf	#32028
    34cc:	03001e00 	.inst	0x03001e00 ; undefined
    34d0:	04470708 	.inst	0x04470708 ; undefined
    34d4:	150d0000 	b	43434d4 <bss_end+0x42ba724>
    34d8:	02000004 	.inst	0x02000004 ; undefined
    34dc:	002e0209 	.inst	0x002e0209 ; NYI
    34e0:	01030000 	.inst	0x01030000 ; undefined
    34e4:	00020a08 	.inst	0x00020a08 ; undefined
    34e8:	00901500 	.inst	0x00901500 ; undefined
    34ec:	041d0000 	.inst	0x041d0000 ; undefined
    34f0:	746e6905 	.inst	0x746e6905 ; undefined
    34f4:	06010300 	.inst	0x06010300 ; undefined
    34f8:	00000203 	udf	#515
    34fc:	4c050203 	.inst	0x4c050203 ; undefined
    3500:	03000001 	.inst	0x03000001 ; undefined
    3504:	01c50508 	.inst	0x01c50508 ; undefined
    3508:	01030000 	.inst	0x01030000 ; undefined
    350c:	00020108 	.inst	0x00020108 ; undefined
    3510:	07020300 	.inst	0x07020300 ; undefined
    3514:	0000021f 	udf	#543
    3518:	4c070403 	.inst	0x4c070403 ; undefined
    351c:	1e000004 	.inst	0x1e000004 ; undefined
    3520:	000000c6 	udf	#198
    3524:	6820081f 	.inst	0x6820081f ; undefined
    3528:	84090a03 	ld1sb	{z3.s}, p2/z, [x16, z9.s, uxtw]
    352c:	02000001 	.inst	0x02000001 ; undefined
    3530:	00393178 	.inst	0x00393178 ; NYI
    3534:	7d110b03 	str	h3, [x24, #2180]
    3538:	00000000 	udf	#0
    353c:	30327802 	adr	x2, 6843d <bss_size+0x683dc>
    3540:	110c0300 	add	w0, w24, #0x300
    3544:	0000007d 	udf	#125
    3548:	32780208 	.inst	0x32780208 ; undefined
    354c:	0d030031 	.inst	0x0d030031 ; undefined
    3550:	00007d11 	udf	#32017
    3554:	78021000 	sturh	w0, [x0, #33]
    3558:	03003232 	.inst	0x03003232 ; undefined
    355c:	007d110e 	.inst	0x007d110e ; undefined
    3560:	02180000 	.inst	0x02180000 ; undefined
    3564:	00333278 	.inst	0x00333278 ; NYI
    3568:	7d110f03 	str	h3, [x24, #2182]
    356c:	20000000 	.inst	0x20000000 ; undefined
    3570:	34327802 	cbz	w2, 68470 <bss_size+0x6840f>
    3574:	11100300 	add	w0, w24, #0x400
    3578:	0000007d 	udf	#125
    357c:	32780228 	.inst	0x32780228 ; undefined
    3580:	11030035 	add	w21, w1, #0xc0
    3584:	00007d11 	udf	#32017
    3588:	78023000 	sturh	w0, [x0, #35]
    358c:	03003632 	.inst	0x03003632 ; undefined
    3590:	007d1112 	.inst	0x007d1112 ; undefined
    3594:	02380000 	.inst	0x02380000 ; undefined
    3598:	00373278 	.inst	0x00373278 ; NYI
    359c:	7d111303 	str	h3, [x24, #2184]
    35a0:	40000000 	.inst	0x40000000 ; undefined
    35a4:	38327802 	strb	w2, [x0, x18, lsl #0]
    35a8:	11140300 	add	w0, w24, #0x500
    35ac:	0000007d 	udf	#125
    35b0:	70660248 	adr	x8, cf5fb <bss_end+0x4684b>
    35b4:	11150300 	add	w0, w24, #0x540
    35b8:	0000007d 	udf	#125
    35bc:	726c0250 	.inst	0x726c0250 ; undefined
    35c0:	11160300 	add	w0, w24, #0x580
    35c4:	0000007d 	udf	#125
    35c8:	70730258 	adr	x24, e9613 <bss_end+0x60863>
    35cc:	11170300 	add	w0, w24, #0x5c0
    35d0:	0000007d 	udf	#125
    35d4:	a40d0060 	ld1rqb	{z0.b}, p0/z, [x3, x13]
    35d8:	03000001 	.inst	0x03000001 ; undefined
    35dc:	00d40318 	.inst	0x00d40318 ; undefined
    35e0:	67210000 	.inst	0x67210000 ; undefined
    35e4:	9800000b 	ldrsw	x11, 35e4 <bss_size+0x3583>
    35e8:	06101a03 	.inst	0x06101a03 ; undefined
    35ec:	06000002 	.inst	0x06000002 ; undefined
    35f0:	000002b0 	udf	#688
    35f4:	840e1b03 	ld1sb	{z3.s}, p6/z, [x24, z14.s, uxtw]
    35f8:	00000001 	udf	#1
    35fc:	64697402 	.inst	0x64697402 ; undefined
    3600:	071c0300 	.inst	0x071c0300 ; undefined
    3604:	0000009c 	udf	#156
    3608:	01310668 	.inst	0x01310668 ; undefined
    360c:	1d030000 	.inst	0x1d030000 ; undefined
    3610:	00009c07 	udf	#39943
    3614:	63066c00 	.inst	0x63066c00 ; undefined
    3618:	03000006 	.inst	0x03000006 ; undefined
    361c:	00d2091e 	.inst	0x00d2091e ; undefined
    3620:	06700000 	.inst	0x06700000 ; undefined
    3624:	0000015d 	udf	#349
    3628:	d2091f03 	eor	x3, x24, #0x7f8000007f800000
    362c:	78000000 	sturh	w0, [x0]
    3630:	00015606 	.inst	0x00015606 ; undefined
    3634:	09200300 	.inst	0x09200300 ; undefined
    3638:	000000d2 	udf	#210
    363c:	02ab0680 	.inst	0x02ab0680 ; undefined
    3640:	21030000 	.inst	0x21030000 ; undefined
    3644:	00020612 	.inst	0x00020612 ; undefined
    3648:	9c068800 	ldr	q0, 10748 <bss_size+0x106e7>
    364c:	03000002 	.inst	0x03000002 ; undefined
    3650:	02061222 	.inst	0x02061222 ; undefined
    3654:	00900000 	.inst	0x00900000 ; undefined
    3658:	00019005 	.inst	0x00019005 ; undefined
    365c:	0b670d00 	.inst	0x0b670d00 ; undefined
    3660:	23030000 	.inst	0x23030000 ; undefined
    3664:	00019003 	.inst	0x00019003 ; undefined
    3668:	020b0500 	.inst	0x020b0500 ; undefined
    366c:	fc0d0000 	stur	d0, [x0, #208]
    3670:	04000003 	add	z3.b, p0/m, z3.b, z0.b
    3674:	007d17d1 	.inst	0x007d17d1 ; undefined
    3678:	08030000 	stxrb	w3, w0, [x0]
    367c:	0001c005 	.inst	0x0001c005 ; undefined
    3680:	04100300 	mul	z0.b, p0/m, z0.b, z24.b
    3684:	000001f5 	udf	#501
    3688:	000a8310 	.inst	0x000a8310 ; undefined
    368c:	43340300 	.inst	0x43340300 ; undefined
    3690:	09000002 	.inst	0x09000002 ; undefined
    3694:	04590e00 	eor	z0.h, p3/m, z0.h, z16.h
    3698:	53200000 	.inst	0x53200000 ; undefined
    369c:	04000002 	add	z2.b, p0/m, z2.b, z0.b
    36a0:	000000c6 	udf	#198
    36a4:	00150e00 	.inst	0x00150e00 ; undefined
    36a8:	63220000 	.inst	0x63220000 ; undefined
    36ac:	04000002 	add	z2.b, p0/m, z2.b, z0.b
    36b0:	0000009c 	udf	#156
    36b4:	0a6b0b00 	bic	w0, w24, w11, lsr #2
    36b8:	36030000 	tbz	w0, #0, 96b8 <bss_size+0x9657>
    36bc:	00009c05 	udf	#39941
    36c0:	00027900 	.inst	0x00027900 ; undefined
    36c4:	009c0400 	.inst	0x009c0400 ; undefined
    36c8:	10000000 	adr	x0, 36c8 <bss_size+0x3667>
    36cc:	00000a5f 	udf	#2655
    36d0:	02863503 	.inst	0x02863503 ; undefined
    36d4:	00090000 	.inst	0x00090000 ; undefined
    36d8:	0007630b 	.inst	0x0007630b ; undefined
    36dc:	05180600 	mov	z0.b, p8/z, #48
    36e0:	0000009c 	udf	#156
    36e4:	000002a1 	udf	#673
    36e8:	0000b804 	udf	#47108
    36ec:	02a10400 	.inst	0x02a10400 ; undefined
    36f0:	05000000 	orr	z0.s, z0.s, #0x1
    36f4:	000000cd 	udf	#205
    36f8:	00002a0e 	udf	#10766
    36fc:	02b61f00 	.inst	0x02b61f00 ; undefined
    3700:	b6040000 	tbz	x0, #32, ffffffffffffb700 <bss_end+0xfffffffffff72950>
    3704:	00000002 	udf	#2
    3708:	00009705 	udf	#38661
    370c:	01960b00 	.inst	0x01960b00 ; undefined
    3710:	30030000 	adr	x0, 9711 <bss_size+0x96b0>
    3714:	00021709 	.inst	0x00021709 ; undefined
    3718:	0002d100 	.inst	0x0002d100 ; undefined
    371c:	02d10400 	.inst	0x02d10400 ; undefined
    3720:	05000000 	orr	z0.s, z0.s, #0x1
    3724:	000002d6 	udf	#726
    3728:	06911022 	.inst	0x06911022 ; undefined
    372c:	1e070000 	.inst	0x1e070000 ; undefined
    3730:	000002e4 	udf	#740
    3734:	790b0009 	strh	w9, [x0, #1408]
    3738:	08000002 	stxrb	w0, w2, [x0]
    373c:	00d20730 	.inst	0x00d20730 ; undefined
    3740:	02fa0000 	.inst	0x02fa0000 ; undefined
    3744:	9c040000 	ldr	q0, b744 <bss_size+0xb6e3>
    3748:	00000000 	udf	#0
    374c:	0001d811 	.inst	0x0001d811 ; undefined
    3750:	051c0900 	mov	z0.b, p12/z, #72
    3754:	0000009c 	udf	#156
    3758:	0000030c 	udf	#780
    375c:	260b0009 	.inst	0x260b0009 ; undefined
    3760:	09000001 	.inst	0x09000001 ; undefined
    3764:	00d2071b 	.inst	0x00d2071b ; undefined
    3768:	03220000 	.inst	0x03220000 ; undefined
    376c:	22040000 	.inst	0x22040000 ; undefined
    3770:	00000003 	udf	#3
    3774:	00009005 	udf	#36869
    3778:	03221500 	.inst	0x03221500 ; undefined
    377c:	0f0e0000 	.inst	0x0f0e0000 ; undefined
    3780:	1e000002 	.inst	0x1e000002 ; undefined
    3784:	0000033c 	udf	#828
    3788:	00009704 	udf	#38660
    378c:	d0110000 	adrp	x0, 22005000 <bss_end+0x21f7c250>
    3790:	05000009 	orr	z9.s, z9.s, #0x1
    3794:	0090061c 	.inst	0x0090061c ; undefined
    3798:	034e0000 	.inst	0x034e0000 ; undefined
    379c:	00090000 	.inst	0x00090000 ; undefined
    37a0:	000a9611 	.inst	0x000a9611 ; undefined
    37a4:	102c0300 	adr	x0, 5b804 <bss_size+0x5b7a3>
    37a8:	00000217 	udf	#535
    37ac:	00000360 	udf	#864
    37b0:	5f120009 	.inst	0x5f120009 ; undefined
    37b4:	d7000002 	.inst	0xd7000002 ; undefined
    37b8:	000859ac 	.inst	0x000859ac ; undefined
    37bc:	00000000 	udf	#0
    37c0:	00000028 	udf	#40
    37c4:	00000000 	udf	#0
    37c8:	03899c01 	.inst	0x03899c01 ; undefined
    37cc:	74010000 	.inst	0x74010000 ; undefined
    37d0:	170bd800 	b	fffffffffc2f97d0 <bss_end+0xfffffffffc270a20>
    37d4:	02000002 	.inst	0x02000002 ; undefined
    37d8:	12007891 	and	w17, w4, #0x7fffffff
    37dc:	00000263 	udf	#611
    37e0:	08578094 	ldaxrb	w20, [x4]
    37e4:	00000000 	udf	#0
    37e8:	00022c00 	.inst	0x00022c00 ; undefined
    37ec:	00000000 	udf	#0
    37f0:	049c0100 	.inst	0x049c0100 ; undefined
    37f4:	01000004 	.inst	0x01000004 ; undefined
    37f8:	00746e63 	.inst	0x00746e63 ; undefined
    37fc:	009c099a 	.inst	0x009c099a ; undefined
    3800:	91020000 	add	x0, x0, #0x80
    3804:	6572016c 	fmla	z12.h, p0/m, z11.h, z18.h
    3808:	099b0074 	.inst	0x099b0074 ; undefined
    380c:	0000009c 	udf	#156
    3810:	13789102 	.inst	0x13789102 ; undefined
    3814:	000857a8 	.inst	0x000857a8 ; undefined
    3818:	00000000 	udf	#0
    381c:	00000028 	udf	#40
    3820:	00000000 	udf	#0
    3824:	000003e3 	udf	#995
    3828:	99006901 	.inst	0x99006901 ; undefined
    382c:	00009c11 	udf	#39953
    3830:	7c910200 	.inst	0x7c910200 ; undefined
    3834:	57f00f00 	.inst	0x57f00f00 ; undefined
    3838:	00000008 	udf	#8
    383c:	01700000 	.inst	0x01700000 ; undefined
    3840:	00000000 	udf	#0
    3844:	c4070000 	ld1sb	{z0.d}, p0/z, [x0, z7.d, uxtw]
    3848:	9f00000a 	.inst	0x9f00000a ; undefined
    384c:	00022813 	.inst	0x00022813 ; undefined
    3850:	70910200 	adr	x0, fffffffffff25893 <bss_end+0xffffffffffe9cae3>
    3854:	77120000 	.inst	0x77120000 ; undefined
    3858:	8800000a 	stxr	w0, w10, [x0]
    385c:	000856fc 	.inst	0x000856fc ; undefined
    3860:	00000000 	udf	#0
    3864:	00000084 	udf	#132
    3868:	00000000 	udf	#0
    386c:	044b9c01 	.inst	0x044b9c01 ; undefined
    3870:	74010000 	.inst	0x74010000 ; undefined
    3874:	170b8900 	b	fffffffffc2e5c74 <bss_end+0xfffffffffc25cec4>
    3878:	02000002 	.inst	0x02000002 ; undefined
    387c:	180f7091 	ldr	w17, 2268c <bss_size+0x2262b>
    3880:	00000857 	udf	#2135
    3884:	28000000 	stnp	w0, w0, [x0]
    3888:	00000000 	udf	#0
    388c:	01000000 	.inst	0x01000000 ; undefined
    3890:	0b8b0069 	add	w9, w3, w11, asr #0
    3894:	0000009c 	udf	#156
    3898:	007c9102 	.inst	0x007c9102 ; undefined
    389c:	0a661600 	bic	w0, w16, w6, lsr #5
    38a0:	e0810000 	ld1w	{za0h.s[w12, 0]}, p0/z, [x0, x1, lsl #2]
    38a4:	00000856 	udf	#2134
    38a8:	1c000000 	ldr	s0, 38a8 <bss_size+0x3847>
    38ac:	00000000 	udf	#0
    38b0:	01000000 	.inst	0x01000000 ; undefined
    38b4:	0004769c 	.inst	0x0004769c ; undefined
    38b8:	085a0800 	ldxrb	w0, [x0]
    38bc:	0f810000 	fmlal	v0.2s, v0.2h, v1.h[0]
    38c0:	0000009c 	udf	#156
    38c4:	007c9102 	.inst	0x007c9102 ; undefined
    38c8:	00047817 	.inst	0x00047817 ; undefined
    38cc:	009c7800 	.inst	0x009c7800 ; undefined
    38d0:	56c00000 	.inst	0x56c00000 ; undefined
    38d4:	00000008 	udf	#8
    38d8:	00200000 	.inst	0x00200000 ; NYI
    38dc:	00000000 	udf	#0
    38e0:	9c010000 	ldr	q0, 58e0 <bss_size+0x587f>
    38e4:	000004a5 	udf	#1189
    38e8:	74657201 	.inst	0x74657201 ; undefined
    38ec:	9c077900 	ldr	q0, 1280c <bss_size+0x127ab>
    38f0:	02000000 	.inst	0x02000000 ; undefined
    38f4:	17007c91 	b	fffffffffc022b38 <bss_end+0xfffffffffbf99d88>
    38f8:	000003e7 	udf	#999
    38fc:	00009c6f 	udf	#40047
    3900:	0856a000 	ldaxrb	w0, [x0]
    3904:	00000000 	udf	#0
    3908:	00002000 	udf	#8192
    390c:	00000000 	udf	#0
    3910:	d49c0100 	.inst	0xd49c0100 ; undefined
    3914:	01000004 	.inst	0x01000004 ; undefined
    3918:	00746572 	.inst	0x00746572 ; undefined
    391c:	009c0770 	.inst	0x009c0770 ; undefined
    3920:	91020000 	add	x0, x0, #0x80
    3924:	0c18007c 	.inst	0x0c18007c ; undefined
    3928:	6b000004 	subs	w4, w0, w0
    392c:	00085680 	.inst	0x00085680 ; undefined
    3930:	00000000 	udf	#0
    3934:	00000020 	udf	#32
    3938:	00000000 	udf	#0
    393c:	04ff9c01 	lsl	z1.d, z0.d, #63
    3940:	700a0000 	adr	x0, 17943 <bss_size+0x178e2>
    3944:	6b006469 	subs	w9, w3, w0, lsl #25
    3948:	00009c13 	udf	#39955
    394c:	7c910200 	.inst	0x7c910200 ; undefined
    3950:	04031800 	subr	z0.b, p6/m, z0.b, z0.b
    3954:	64670000 	fmla	z0.h, z0.h, z7.h[4]
    3958:	00000856 	udf	#2134
    395c:	1c000000 	ldr	s0, 395c <bss_size+0x38fb>
    3960:	00000000 	udf	#0
    3964:	01000000 	.inst	0x01000000 ; undefined
    3968:	00052a9c 	.inst	0x00052a9c ; undefined
    396c:	085a0800 	ldxrb	w0, [x0]
    3970:	13670000 	.inst	0x13670000 ; undefined
    3974:	0000009c 	udf	#156
    3978:	007c9102 	.inst	0x007c9102 ; undefined
    397c:	0004270c 	.inst	0x0004270c ; undefined
    3980:	9c056300 	ldr	q0, e5e0 <bss_size+0xe57f>
    3984:	40000000 	.inst	0x40000000 ; undefined
    3988:	00000856 	udf	#2134
    398c:	24000000 	cmphs	p0.b, p0/z, z0.b, z0.b
    3990:	00000000 	udf	#0
    3994:	01000000 	.inst	0x01000000 ; undefined
    3998:	0005679c 	.inst	0x0005679c ; undefined
    399c:	68630a00 	.inst	0x68630a00 ; undefined
    39a0:	b8216300 	ldumax	w1, w0, [x24]
    39a4:	02000000 	.inst	0x02000000 ; undefined
    39a8:	a2087f91 	.inst	0xa2087f91 ; undefined
    39ac:	6300000a 	.inst	0x6300000a ; undefined
    39b0:	00056733 	.inst	0x00056733 ; undefined
    39b4:	70910200 	adr	x0, fffffffffff259f7 <bss_end+0xffffffffffe9cc47>
    39b8:	00c60500 	.inst	0x00c60500 ; undefined
    39bc:	740c0000 	.inst	0x740c0000 ; undefined
    39c0:	41000004 	.inst	0x41000004 ; undefined
    39c4:	00009c05 	udf	#39941
    39c8:	08547800 	ldxrb	w0, [x0]
    39cc:	00000000 	udf	#0
    39d0:	0001c800 	.inst	0x0001c800 ; undefined
    39d4:	00000000 	udf	#0
    39d8:	449c0100 	sdot	z0.s, z8.b, z28.b
    39dc:	0a000006 	and	w6, w0, w0
    39e0:	41006674 	.inst	0x41006674 ; undefined
    39e4:	00064419 	.inst	0x00064419 ; undefined
    39e8:	b8910300 	ldursw	x0, [x24, #-240]
    39ec:	7563017f 	.inst	0x7563017f ; undefined
    39f0:	0b420072 	add	w18, w3, w2, lsr #0
    39f4:	00000217 	udf	#535
    39f8:	07689102 	.inst	0x07689102 ; undefined
    39fc:	00000ab4 	udf	#2740
    3a00:	02170b43 	.inst	0x02170b43 ; undefined
    3a04:	91020000 	add	x0, x0, #0x80
    3a08:	0aba0760 	bic	w0, w27, w26, asr #1
    3a0c:	07440000 	.inst	0x07440000 ; undefined
    3a10:	0000009c 	udf	#156
    3a14:	075c9102 	.inst	0x075c9102 ; undefined
    3a18:	00000ac4 	udf	#2756
    3a1c:	007d114f 	.inst	0x007d114f ; undefined
    3a20:	91020000 	add	x0, x0, #0x80
    3a24:	0a880750 	and	w16, w26, w8, asr #1
    3a28:	0e530000 	.inst	0x0e530000 ; undefined
    3a2c:	00000644 	udf	#1604
    3a30:	13489102 	.inst	0x13489102 ; undefined
    3a34:	000854a4 	.inst	0x000854a4 ; undefined
    3a38:	00000000 	udf	#0
    3a3c:	00000048 	udf	#72
    3a40:	00000000 	udf	#0
    3a44:	00000603 	udf	#1539
    3a48:	47006901 	.inst	0x47006901 ; undefined
    3a4c:	00009c0b 	udf	#39947
    3a50:	7c910200 	.inst	0x7c910200 ; undefined
    3a54:	54ec1300 	b.eq	fffffffffffdbcb4 <bss_end+0xfffffffffff52f04>  // b.none
    3a58:	00000008 	udf	#8
    3a5c:	00480000 	.inst	0x00480000 ; undefined
    3a60:	00000000 	udf	#0
    3a64:	06250000 	.inst	0x06250000 ; undefined
    3a68:	69010000 	stgp	x0, x0, [x0, #32]
    3a6c:	9c0b4b00 	ldr	q0, 1a3cc <bss_size+0x1a36b>
    3a70:	02000000 	.inst	0x02000000 ; undefined
    3a74:	0f007891 	.inst	0x0f007891 ; undefined
    3a78:	000855f4 	.inst	0x000855f4 ; undefined
    3a7c:	00000000 	udf	#0
    3a80:	00000028 	udf	#40
    3a84:	00000000 	udf	#0
    3a88:	5b006901 	.inst	0x5b006901 ; undefined
    3a8c:	00009c0d 	udf	#39949
    3a90:	74910200 	.inst	0x74910200 ; undefined
    3a94:	84050000 	ld1sb	{z0.s}, p0/z, [x0, z5.s, uxtw]
    3a98:	16000000 	b	fffffffff8003a98 <bss_end+0xfffffffff7f7ace8>
    3a9c:	00000aa7 	udf	#2727
    3aa0:	08545039 	ldxrb	w25, [x1]
    3aa4:	00000000 	udf	#0
    3aa8:	00002800 	udf	#10240
    3aac:	00000000 	udf	#0
    3ab0:	809c0100 	fmopa	za0.s, p0/m, p0/m, z8.s, z28.s
    3ab4:	0a000006 	and	w6, w0, w0
    3ab8:	1b390074 	.inst	0x1b390074 ; undefined
    3abc:	00000217 	udf	#535
    3ac0:	01689102 	.inst	0x01689102 ; undefined
    3ac4:	00746572 	.inst	0x00746572 ; undefined
    3ac8:	007d113a 	.inst	0x007d113a ; undefined
    3acc:	91020000 	add	x0, x0, #0x80
    3ad0:	da0c0078 	sbc	x24, x3, x12
    3ad4:	20000003 	.inst	0x20000003 ; undefined
    3ad8:	00009c05 	udf	#39941
    3adc:	08537800 	ldxrb	w0, [x0]
    3ae0:	00000000 	udf	#0
    3ae4:	0000d800 	udf	#55296
    3ae8:	00000000 	udf	#0
    3aec:	109c0100 	adr	x0, fffffffffff3bb0c <bss_end+0xffffffffffeb2d5c>
    3af0:	08000007 	stxrb	w0, w7, [x0]
    3af4:	0000016e 	udf	#366
    3af8:	02b61a20 	.inst	0x02b61a20 ; undefined
    3afc:	91020000 	add	x0, x0, #0x80
    3b00:	0a910848 	and	w8, w2, w17, asr #2
    3b04:	2c200000 	stnp	s0, s0, [x0, #-256]
    3b08:	00000710 	udf	#1808
    3b0c:	07409102 	.inst	0x07409102 ; undefined
    3b10:	00000a20 	udf	#2592
    3b14:	00d20921 	.inst	0x00d20921 ; undefined
    3b18:	91020000 	add	x0, x0, #0x80
    3b1c:	0acb0770 	and	w16, w27, w11, ror #1
    3b20:	07220000 	.inst	0x07220000 ; undefined
    3b24:	0000009c 	udf	#156
    3b28:	016c9102 	.inst	0x016c9102 ; undefined
    3b2c:	09240070 	.inst	0x09240070 ; undefined
    3b30:	000000d2 	udf	#210
    3b34:	01609102 	.inst	0x01609102 ; undefined
    3b38:	0b2a0074 	add	w20, w3, w10, uxtb
    3b3c:	00000217 	udf	#535
    3b40:	0f589102 	.inst	0x0f589102 ; undefined
    3b44:	000853ac 	.inst	0x000853ac ; undefined
    3b48:	00000000 	udf	#0
    3b4c:	00000044 	udf	#68
    3b50:	00000000 	udf	#0
    3b54:	26006901 	.inst	0x26006901 ; undefined
    3b58:	00009c0b 	udf	#39947
    3b5c:	7c910200 	.inst	0x7c910200 ; undefined
    3b60:	27050000 	.inst	0x27050000 ; undefined
    3b64:	0c000003 	st4	{v3.8b-v6.8b}, [x0]
    3b68:	000003ee 	udf	#1006
    3b6c:	021c0818 	.inst	0x021c0818 ; undefined
    3b70:	53240000 	.inst	0x53240000 ; undefined
    3b74:	00000008 	udf	#8
    3b78:	00540000 	.inst	0x00540000 ; undefined
    3b7c:	00000000 	udf	#0
    3b80:	9c010000 	ldr	q0, 5b80 <bss_size+0x5b1f>
    3b84:	0000075f 	udf	#1887
    3b88:	6675620a 	.inst	0x6675620a ; undefined
    3b8c:	221b1800 	.inst	0x221b1800 ; undefined
    3b90:	02000003 	.inst	0x02000003 ; undefined
    3b94:	e1086891 	.inst	0xe1086891 ; undefined
    3b98:	18000001 	ldr	w1, 3b98 <bss_size+0x3b37>
    3b9c:	00021c29 	.inst	0x00021c29 ; undefined
    3ba0:	60910200 	.inst	0x60910200 ; undefined
    3ba4:	19006901 	.inst	0x19006901 ; undefined
    3ba8:	00021c0a 	.inst	0x00021c0a ; undefined
    3bac:	78910200 	ldursh	x0, [x16, #-240]
    3bb0:	04350c00 	.inst	0x04350c00 ; undefined
    3bb4:	080f0000 	stxrb	w15, w0, [x0]
    3bb8:	0000021c 	udf	#540
    3bbc:	000852c4 	.inst	0x000852c4 ; undefined
    3bc0:	00000000 	udf	#0
    3bc4:	00000060 	udf	#96
    3bc8:	00000000 	udf	#0
    3bcc:	07a99c01 	.inst	0x07a99c01 ; undefined
    3bd0:	620a0000 	.inst	0x620a0000 ; undefined
    3bd4:	0f006675 	movi	v21.2s, #0x13, lsl #24
    3bd8:	0003221a 	.inst	0x0003221a ; undefined
    3bdc:	68910200 	stgp	x0, x0, [x16], #544
    3be0:	0001e108 	.inst	0x0001e108 ; undefined
    3be4:	1c280f00 	ldr	s0, 53dc4 <bss_size+0x53d63>
    3be8:	02000002 	.inst	0x02000002 ; undefined
    3bec:	69016091 	stgp	x17, x24, [x4, #32]
    3bf0:	1c0a1000 	ldr	s0, 17df0 <bss_size+0x17d8f>
    3bf4:	02000002 	.inst	0x02000002 ; undefined
    3bf8:	23007891 	.inst	0x23007891 ; undefined
    3bfc:	000003e3 	udf	#995
    3c00:	9c050a01 	ldr	q1, dd40 <bss_size+0xdcdf>
    3c04:	a4000000 	ld1rqb	{z0.b}, p0/z, [x0, x0]
    3c08:	00000852 	udf	#2130
    3c0c:	20000000 	.inst	0x20000000 ; undefined
    3c10:	00000000 	udf	#0
    3c14:	01000000 	.inst	0x01000000 ; undefined
    3c18:	0074019c 	.inst	0x0074019c ; undefined
    3c1c:	02170b0b 	.inst	0x02170b0b ; undefined
    3c20:	91020000 	add	x0, x0, #0x80
    3c24:	0d000078 	st1	{v24.b}[0], [x3]
    3c28:	05000006 	orr	z6.s, z6.s, #0x1
    3c2c:	95080100 	bl	420402c <bss_end+0x417b27c>
    3c30:	15000015 	b	4003c84 <bss_end+0x3f7aed4>
    3c34:	0000004f 	udf	#79
    3c38:	0001c31d 	.inst	0x0001c31d ; undefined
    3c3c:	00000e00 	udf	#3584
    3c40:	0859d400 	ldaxrb	w0, [x0]
    3c44:	00000000 	udf	#0
    3c48:	00063800 	.inst	0x00063800 ; undefined
    3c4c:	00000000 	udf	#0
    3c50:	0021b500 	.inst	0x0021b500 ; NYI
    3c54:	02681600 	.inst	0x02681600 ; undefined
    3c58:	00d1090a 	.inst	0x00d1090a ; undefined
    3c5c:	78010000 	sturh	w0, [x0, #16]
    3c60:	0b003931 	add	w17, w9, w0, lsl #14
    3c64:	0000d111 	udf	#53521
    3c68:	78010000 	sturh	w0, [x0, #16]
    3c6c:	0c003032 	.inst	0x0c003032 ; undefined
    3c70:	0000d111 	udf	#53521
    3c74:	78010800 	sttrh	w0, [x0, #16]
    3c78:	0d003132 	st3	{v18.b-v20.b}[4], [x9]
    3c7c:	0000d111 	udf	#53521
    3c80:	78011000 	sturh	w0, [x0, #17]
    3c84:	0e003232 	tbx	v18.8b, {v17.16b, v18.16b}, v0.8b
    3c88:	0000d111 	udf	#53521
    3c8c:	78011800 	sttrh	w0, [x0, #17]
    3c90:	0f003332 	.inst	0x0f003332 ; undefined
    3c94:	0000d111 	udf	#53521
    3c98:	78012000 	sturh	w0, [x0, #18]
    3c9c:	10003432 	adr	x18, 4320 <bss_size+0x42bf>
    3ca0:	0000d111 	udf	#53521
    3ca4:	78012800 	sttrh	w0, [x0, #18]
    3ca8:	11003532 	add	w18, w9, #0xd
    3cac:	0000d111 	udf	#53521
    3cb0:	78013000 	sturh	w0, [x0, #19]
    3cb4:	12003632 	and	w18, w17, #0x3fff
    3cb8:	0000d111 	udf	#53521
    3cbc:	78013800 	sttrh	w0, [x0, #19]
    3cc0:	13003732 	sbfx	w18, w25, #0, #14
    3cc4:	0000d111 	udf	#53521
    3cc8:	78014000 	sturh	w0, [x0, #20]
    3ccc:	14003832 	b	11d94 <bss_size+0x11d33>
    3cd0:	0000d111 	udf	#53521
    3cd4:	66014800 	.inst	0x66014800 ; undefined
    3cd8:	11150070 	add	w16, w3, #0x540
    3cdc:	000000d1 	udf	#209
    3ce0:	726c0150 	.inst	0x726c0150 ; undefined
    3ce4:	d1111600 	sub	x0, x16, #0x445
    3ce8:	58000000 	ldr	x0, 3ce8 <bss_size+0x3c87>
    3cec:	00707301 	.inst	0x00707301 ; undefined
    3cf0:	00d11117 	.inst	0x00d11117 ; undefined
    3cf4:	00600000 	.inst	0x00600000 ; undefined
    3cf8:	47070803 	.inst	0x47070803 ; undefined
    3cfc:	0d000004 	st1	{v4.b}[0], [x0]
    3d00:	000001a4 	udf	#420
    3d04:	2e031802 	ext	v2.8b, v0.8b, v3.8b, #3
    3d08:	17000000 	b	fffffffffc003d08 <bss_end+0xfffffffffbf7af58>
    3d0c:	00000b67 	udf	#2919
    3d10:	101a0298 	adr	x24, 37d60 <bss_size+0x37cff>
    3d14:	00000152 	udf	#338
    3d18:	0002b005 	.inst	0x0002b005 ; undefined
    3d1c:	d80e1b00 	prfm	pldl1keep, 2007c <bss_size+0x2001b>
    3d20:	00000000 	udf	#0
    3d24:	64697401 	.inst	0x64697401 ; undefined
    3d28:	52071c00 	eor	w0, w0, #0xfe000001
    3d2c:	68000001 	.inst	0x68000001 ; undefined
    3d30:	00013105 	.inst	0x00013105 ; undefined
    3d34:	52071d00 	eor	w0, w8, #0xfe000001
    3d38:	6c000001 	stnp	d1, d0, [x0]
    3d3c:	00066305 	.inst	0x00066305 ; undefined
    3d40:	59091e00 	.inst	0x59091e00 ; undefined
    3d44:	70000001 	adr	x1, 3d47 <bss_size+0x3ce6>
    3d48:	00015d05 	.inst	0x00015d05 ; undefined
    3d4c:	59091f00 	.inst	0x59091f00 ; undefined
    3d50:	78000001 	sturh	w1, [x0]
    3d54:	00015605 	.inst	0x00015605 ; undefined
    3d58:	59092000 	stlurh	w0, [x0, #146]
    3d5c:	80000001 	.inst	0x80000001 ; undefined
    3d60:	0002ab05 	.inst	0x0002ab05 ; undefined
    3d64:	5b122100 	.inst	0x5b122100 ; undefined
    3d68:	88000001 	stxr	w0, w1, [x0]
    3d6c:	00029c05 	.inst	0x00029c05 ; undefined
    3d70:	5b122200 	.inst	0x5b122200 ; undefined
    3d74:	90000001 	adrp	x1, 3000 <bss_size+0x2f9f>
    3d78:	05041800 	.inst	0x05041800 ; undefined
    3d7c:	00746e69 	.inst	0x00746e69 ; undefined
    3d80:	e4060819 	.inst	0xe4060819 ; undefined
    3d84:	0d000000 	st1	{v0.b}[0], [x0]
    3d88:	00000b67 	udf	#2919
    3d8c:	e4032302 	stnt1b	{z2.d}, p0, [z24.d, x3]
    3d90:	06000000 	.inst	0x06000000 ; undefined
    3d94:	00000160 	udf	#352
    3d98:	0a080103 	and	w3, w8, w8
    3d9c:	1a000002 	adc	w2, w0, w0
    3da0:	00000171 	udf	#369
    3da4:	03060103 	.inst	0x03060103 ; undefined
    3da8:	03000002 	.inst	0x03000002 ; undefined
    3dac:	014c0502 	.inst	0x014c0502 ; undefined
    3db0:	08030000 	stxrb	w3, w0, [x0]
    3db4:	0001c505 	.inst	0x0001c505 ; undefined
    3db8:	08010300 	stxrb	w1, w0, [x24]
    3dbc:	00000201 	udf	#513
    3dc0:	1f070203 	fmadd	s3, s16, s7, s0
    3dc4:	03000002 	.inst	0x03000002 ; undefined
    3dc8:	044c0704 	sabd	z4.h, p1/m, z4.h, z24.h
    3dcc:	370d0000 	tbnz	w0, #1, ffffffffffffddcc <bss_end+0xfffffffffff7501c>
    3dd0:	03000001 	.inst	0x03000001 ; undefined
    3dd4:	00d11937 	.inst	0x00d11937 ; undefined
    3dd8:	be1b0000 	.inst	0xbe1b0000 ; undefined
    3ddc:	02000001 	.inst	0x02000001 ; undefined
    3de0:	00000159 	udf	#345
    3de4:	01b30600 	.inst	0x01b30600 ; undefined
    3de8:	e1070000 	.inst	0xe1070000 ; undefined
    3dec:	0700000a 	.inst	0x0700000a ; undefined
    3df0:	0001520c 	.inst	0x0001520c ; undefined
    3df4:	a0030900 	.inst	0xa0030900 ; undefined
    3df8:	0000088d 	udf	#2189
    3dfc:	0e000000 	tbl	v0.8b, {v0.16b}, v0.8b
    3e00:	00000b06 	udf	#2822
    3e04:	00016c09 	.inst	0x00016c09 ; undefined
    3e08:	88030900 	stxr	w3, w0, [x8]
    3e0c:	0000088d 	udf	#2189
    3e10:	0e000000 	tbl	v0.8b, {v0.16b}, v0.8b
    3e14:	00000b33 	udf	#2867
    3e18:	00016c0a 	.inst	0x00016c0a ; undefined
    3e1c:	90030900 	adrp	x0, 6123000 <bss_end+0x609a250>
    3e20:	0000088d 	udf	#2189
    3e24:	0e000000 	tbl	v0.8b, {v0.16b}, v0.8b
    3e28:	00000b62 	udf	#2914
    3e2c:	00016c0c 	.inst	0x00016c0c ; undefined
    3e30:	98030900 	ldrsw	x0, 9f50 <bss_size+0x9eef>
    3e34:	0000088d 	udf	#2189
    3e38:	10000000 	adr	x0, 3e38 <bss_size+0x3dd7>
    3e3c:	00000af2 	udf	#2802
    3e40:	52051504 	eor	w4, w8, #0xf8000001
    3e44:	34000001 	cbz	w1, 3e44 <bss_size+0x3de3>
    3e48:	02000002 	.inst	0x02000002 ; undefined
    3e4c:	000001a7 	udf	#423
    3e50:	0001be02 	.inst	0x0001be02 ; undefined
    3e54:	01590200 	.inst	0x01590200 ; undefined
    3e58:	11000000 	add	w0, w0, #0x0
    3e5c:	00000ad8 	udf	#2776
    3e60:	a70a1204 	.inst	0xa70a1204 ; undefined
    3e64:	46000001 	.inst	0x46000001 ; undefined
    3e68:	12000002 	and	w2, w0, #0x1
    3e6c:	05eb0b00 	.inst	0x05eb0b00 ; undefined
    3e70:	31050000 	adds	w0, w0, #0x140
    3e74:	00025806 	.inst	0x00025806 ; undefined
    3e78:	01590200 	.inst	0x01590200 ; undefined
    3e7c:	0b000000 	add	w0, w0, w0
    3e80:	00000b21 	udf	#2849
    3e84:	6f0d2b02 	.inst	0x6f0d2b02 ; undefined
    3e88:	02000002 	.inst	0x02000002 ; undefined
    3e8c:	0000016c 	udf	#364
    3e90:	00016c02 	.inst	0x00016c02 ; undefined
    3e94:	96110000 	bl	fffffffff8443e94 <bss_end+0xfffffffff83bb0e4>
    3e98:	0200000a 	.inst	0x0200000a ; undefined
    3e9c:	016c102c 	.inst	0x016c102c ; undefined
    3ea0:	02810000 	.inst	0x02810000 ; undefined
    3ea4:	00120000 	.inst	0x00120000 ; undefined
    3ea8:	00027910 	.inst	0x00027910 ; undefined
    3eac:	07300500 	.inst	0x07300500 ; undefined
    3eb0:	00000159 	udf	#345
    3eb4:	00000297 	udf	#663
    3eb8:	00015202 	.inst	0x00015202 ; undefined
    3ebc:	2a0b0000 	orr	w0, w0, w11
    3ec0:	06000000 	.inst	0x06000000 ; undefined
    3ec4:	02a9061f 	.inst	0x02a9061f ; undefined
    3ec8:	a9020000 	stp	x0, x0, [x0, #32]
    3ecc:	00000002 	udf	#2
    3ed0:	00017806 	.inst	0x00017806 ; undefined
    3ed4:	00150b00 	.inst	0x00150b00 ; undefined
    3ed8:	22060000 	.inst	0x22060000 ; undefined
    3edc:	0002c006 	.inst	0x0002c006 ; undefined
    3ee0:	01520200 	.inst	0x01520200 ; undefined
    3ee4:	08000000 	stxrb	w0, w0, [x0]
    3ee8:	0000026d 	udf	#621
    3eec:	085fc8a3 	ldaxrb	w3, [x5]
    3ef0:	00000000 	udf	#0
    3ef4:	00004400 	udf	#17408
    3ef8:	00000000 	udf	#0
    3efc:	fb9c0100 	.inst	0xfb9c0100 ; undefined
    3f00:	09000002 	.inst	0x09000002 ; undefined
    3f04:	00085fd0 	.inst	0x00085fd0 ; undefined
    3f08:	00000000 	udf	#0
    3f0c:	0000002c 	udf	#44
    3f10:	00000000 	udf	#0
    3f14:	a4006904 	ldff1b	{z4.b}, p2/z, [x8, x0]
    3f18:	0001520b 	.inst	0x0001520b ; undefined
    3f1c:	7c910200 	.inst	0x7c910200 ; undefined
    3f20:	661c0000 	.inst	0x661c0000 ; undefined
    3f24:	01006f6f 	.inst	0x01006f6f ; undefined
    3f28:	5f2c0696 	.inst	0x5f2c0696 ; undefined
    3f2c:	00000008 	udf	#8
    3f30:	009c0000 	.inst	0x009c0000 ; undefined
    3f34:	00000000 	udf	#0
    3f38:	9c010000 	ldr	q0, 5f38 <bss_size+0x5ed7>
    3f3c:	00000356 	udf	#854
    3f40:	085f3409 	ldxrb	w9, [x0]
    3f44:	00000000 	udf	#0
    3f48:	00008400 	udf	#33792
    3f4c:	00000000 	udf	#0
    3f50:	00690400 	.inst	0x00690400 ; undefined
    3f54:	01520d97 	.inst	0x01520d97 ; undefined
    3f58:	91020000 	add	x0, x0, #0x80
    3f5c:	5f74097c 	.inst	0x5f74097c ; undefined
    3f60:	00000008 	udf	#8
    3f64:	00280000 	.inst	0x00280000 ; NYI
    3f68:	00000000 	udf	#0
    3f6c:	6a040000 	ands	w0, w0, w4
    3f70:	52119d00 	eor	w0, w8, #0x807f807f
    3f74:	02000001 	.inst	0x02000001 ; undefined
    3f78:	00007891 	udf	#30865
    3f7c:	023a0800 	.inst	0x023a0800 ; undefined
    3f80:	e88e0000 	.inst	0xe88e0000 ; undefined
    3f84:	0000085e 	udf	#2142
    3f88:	44000000 	.inst	0x44000000 ; undefined
    3f8c:	00000000 	udf	#0
    3f90:	01000000 	.inst	0x01000000 ; undefined
    3f94:	0003819c 	.inst	0x0003819c ; undefined
    3f98:	0adc0700 	and	w0, w24, w28, ror #1
    3f9c:	0c900000 	st4	{v0.8b-v3.8b}, [x0], x16
    3fa0:	000001a7 	udf	#423
    3fa4:	00789102 	.inst	0x00789102 ; undefined
    3fa8:	000b140f 	.inst	0x000b140f ; undefined
    3fac:	5ed08900 	.inst	0x5ed08900 ; undefined
    3fb0:	00000008 	udf	#8
    3fb4:	00180000 	.inst	0x00180000 ; undefined
    3fb8:	00000000 	udf	#0
    3fbc:	9c010000 	ldr	q0, 5fbc <bss_size+0x5f5b>
    3fc0:	000a6b13 	.inst	0x000a6b13 ; undefined
    3fc4:	52057b00 	eor	w0, w24, #0xfbffffff
    3fc8:	44000001 	.inst	0x44000001 ; undefined
    3fcc:	0000085e 	udf	#2142
    3fd0:	8c000000 	.inst	0x8c000000 ; undefined
    3fd4:	00000000 	udf	#0
    3fd8:	01000000 	.inst	0x01000000 ; undefined
    3fdc:	0003d79c 	.inst	0x0003d79c ; undefined
    3fe0:	69740a00 	ldpsw	x0, x2, [x16, #-96]
    3fe4:	157b0064 	b	5ec4174 <bss_end+0x5e3b3c4>
    3fe8:	00000152 	udf	#338
    3fec:	046c9102 	asr	z2.s, z8.s, #20
    3ff0:	00706d74 	.inst	0x00706d74 ; undefined
    3ff4:	016c0b7c 	.inst	0x016c0b7c ; undefined
    3ff8:	91020000 	add	x0, x0, #0x80
    3ffc:	5f080078 	.inst	0x5f080078 ; undefined
    4000:	7200000a 	ands	w10, w0, #0x1
    4004:	00085de4 	.inst	0x00085de4 ; undefined
    4008:	00000000 	udf	#0
    400c:	00000060 	udf	#96
    4010:	00000000 	udf	#0
    4014:	04029c01 	.inst	0x04029c01 ; undefined
    4018:	9a070000 	adc	x0, x0, x7
    401c:	7300000a 	.inst	0x7300000a ; undefined
    4020:	00016c0b 	.inst	0x00016c0b ; undefined
    4024:	78910200 	ldursh	x0, [x16, #-240]
    4028:	0b440800 	add	w0, w0, w4, lsr #2
    402c:	84690000 	prfb	pldl1keep, p0, [x0, z9.s, sxtw]
    4030:	0000085d 	udf	#2141
    4034:	60000000 	.inst	0x60000000 ; undefined
    4038:	00000000 	udf	#0
    403c:	01000000 	.inst	0x01000000 ; undefined
    4040:	00043d9c 	.inst	0x00043d9c ; undefined
    4044:	5d900900 	.inst	0x5d900900 ; undefined
    4048:	00000008 	udf	#8
    404c:	00300000 	.inst	0x00300000 ; NYI
    4050:	00000000 	udf	#0
    4054:	74040000 	.inst	0x74040000 ; undefined
    4058:	6c0d6b00 	stnp	d0, d26, [x24, #208]
    405c:	02000001 	.inst	0x02000001 ; undefined
    4060:	00007891 	udf	#30865
    4064:	000a830f 	.inst	0x000a830f ; undefined
    4068:	5d706200 	.inst	0x5d706200 ; undefined
    406c:	00000008 	udf	#8
    4070:	00140000 	.inst	0x00140000 ; undefined
    4074:	00000000 	udf	#0
    4078:	9c010000 	ldr	q0, 6078 <bss_size+0x6017>
    407c:	000ae908 	.inst	0x000ae908 ; undefined
    4080:	5d0c5700 	.inst	0x5d0c5700 ; undefined
    4084:	00000008 	udf	#8
    4088:	00640000 	.inst	0x00640000 ; undefined
    408c:	00000000 	udf	#0
    4090:	9c010000 	ldr	q0, 6090 <bss_size+0x602f>
    4094:	000004a0 	udf	#1184
    4098:	000a9a07 	.inst	0x000a9a07 ; undefined
    409c:	6c0b5800 	stnp	d0, d22, [x0, #176]
    40a0:	02000001 	.inst	0x02000001 ; undefined
    40a4:	4c097891 	.inst	0x4c097891 ; undefined
    40a8:	0000085d 	udf	#2141
    40ac:	18000000 	ldr	w0, 40ac <bss_size+0x404b>
    40b0:	00000000 	udf	#0
    40b4:	07000000 	.inst	0x07000000 ; undefined
    40b8:	000002ab 	udf	#683
    40bc:	016c0d5c 	.inst	0x016c0d5c ; undefined
    40c0:	91020000 	add	x0, x0, #0x80
    40c4:	13000070 	sbfx	w16, w3, #0, #1
    40c8:	00000196 	udf	#406
    40cc:	016c0949 	.inst	0x016c0949 ; undefined
    40d0:	5c480000 	ldr	d0, 940d0 <bss_end+0xb320>
    40d4:	00000008 	udf	#8
    40d8:	00c40000 	.inst	0x00c40000 ; undefined
    40dc:	00000000 	udf	#0
    40e0:	9c010000 	ldr	q0, 60e0 <bss_size+0x607f>
    40e4:	000004dc 	udf	#1244
    40e8:	0001bb0c 	.inst	0x0001bb0c ; undefined
    40ec:	dd1e4900 	.inst	0xdd1e4900 ; undefined
    40f0:	02000004 	.inst	0x02000004 ; undefined
    40f4:	74046891 	.inst	0x74046891 ; undefined
    40f8:	6c0b4a00 	stnp	d0, d18, [x16, #176]
    40fc:	02000001 	.inst	0x02000001 ; undefined
    4100:	1d007891 	.inst	0x1d007891 ; undefined
    4104:	0004dc06 	.inst	0x0004dc06 ; undefined
    4108:	079f0f00 	.inst	0x079f0f00 ; undefined
    410c:	08420000 	ldxrb	w0, [x0]
    4110:	0000085c 	udf	#2140
    4114:	40000000 	.inst	0x40000000 ; undefined
    4118:	00000000 	udf	#0
    411c:	01000000 	.inst	0x01000000 ; undefined
    4120:	0b511e9c 	add	w28, w20, w17, lsr #7
    4124:	37010000 	tbnz	w0, #0, 6124 <bss_size+0x60c3>
    4128:	085b9806 	ldaxrb	w6, [x0]
    412c:	00000000 	udf	#0
    4130:	00007000 	udf	#28672
    4134:	00000000 	udf	#0
    4138:	339c0100 	.inst	0x339c0100 ; undefined
    413c:	0a000005 	and	w5, w0, w0
    4140:	19370071 	.inst	0x19370071 ; undefined
    4144:	0000016c 	udf	#364
    4148:	04689102 	asr	z2.s, z8.s, #24
    414c:	00706d74 	.inst	0x00706d74 ; undefined
    4150:	016c0b38 	.inst	0x016c0b38 ; undefined
    4154:	91020000 	add	x0, x0, #0x80
    4158:	5c140078 	ldr	d24, 2c164 <bss_size+0x2c103>
    415c:	3200000b 	orr	w11, w0, #0x1
    4160:	0000016c 	udf	#364
    4164:	00085b70 	.inst	0x00085b70 ; undefined
    4168:	00000000 	udf	#0
    416c:	00000028 	udf	#40
    4170:	00000000 	udf	#0
    4174:	05609c01 	mov	z1.h, p7/m, h0
    4178:	710a0000 	subs	w0, w0, #0x280
    417c:	6c173200 	stnp	d0, d12, [x16, #368]
    4180:	02000001 	.inst	0x02000001 ; undefined
    4184:	1f007891 	fmadd	s17, s4, s0, s30
    4188:	00000afc 	udf	#2812
    418c:	fc062801 	.inst	0xfc062801 ; undefined
    4190:	0000085a 	udf	#2138
    4194:	74000000 	.inst	0x74000000 ; undefined
    4198:	00000000 	udf	#0
    419c:	01000000 	.inst	0x01000000 ; undefined
    41a0:	0005999c 	.inst	0x0005999c ; undefined
    41a4:	06f00c00 	.inst	0x06f00c00 ; undefined
    41a8:	19280000 	.inst	0x19280000 ; undefined
    41ac:	00000599 	udf	#1433
    41b0:	0a789102 	.inst	0x0a789102 ; undefined
    41b4:	27280074 	.inst	0x27280074 ; undefined
    41b8:	0000016c 	udf	#364
    41bc:	00709102 	.inst	0x00709102 ; undefined
    41c0:	00016c06 	.inst	0x00016c06 ; undefined
    41c4:	0b6e1400 	.inst	0x0b6e1400 ; undefined
    41c8:	6c1b0000 	stnp	d0, d0, [x0, #432]
    41cc:	6c000001 	stnp	d1, d0, [x0]
    41d0:	0000085a 	udf	#2138
    41d4:	90000000 	adrp	x0, 4000 <bss_size+0x3f9f>
    41d8:	00000000 	udf	#0
    41dc:	01000000 	.inst	0x01000000 ; undefined
    41e0:	0005db9c 	.inst	0x0005db9c ; undefined
    41e4:	06f00c00 	.inst	0x06f00c00 ; undefined
    41e8:	1a1b0000 	adc	w0, w0, w27
    41ec:	00000599 	udf	#1433
    41f0:	04689102 	asr	z2.s, z8.s, #24
    41f4:	00706d74 	.inst	0x00706d74 ; undefined
    41f8:	016c0b1d 	.inst	0x016c0b1d ; undefined
    41fc:	91020000 	add	x0, x0, #0x80
    4200:	2b200078 	adds	w24, w3, w0, uxtb
    4204:	0100000b 	.inst	0x0100000b ; undefined
    4208:	59d4060e 	.inst	0x59d4060e ; undefined
    420c:	00000008 	udf	#8
    4210:	00980000 	.inst	0x00980000 ; undefined
    4214:	00000000 	udf	#0
    4218:	9c010000 	ldr	q0, 6218 <bss_size+0x61b7>
    421c:	0006f00c 	.inst	0x0006f00c ; undefined
    4220:	99170e00 	.inst	0x99170e00 ; undefined
    4224:	02000005 	.inst	0x02000005 ; undefined
    4228:	740a7891 	.inst	0x740a7891 ; undefined
    422c:	6c250e00 	stnp	d0, d3, [x16, #-432]
    4230:	02000001 	.inst	0x02000001 ; undefined
    4234:	00007091 	udf	#28817
    4238:	000002d5 	udf	#725
    423c:	08010005 	stxrb	w1, w5, [x0]
    4240:	000017c6 	udf	#6086
    4244:	00004f0c 	udf	#20236
    4248:	01d01d00 	.inst	0x01d01d00 ; undefined
    424c:	000e0000 	.inst	0x000e0000 ; undefined
    4250:	600c0000 	.inst	0x600c0000 ; undefined
    4254:	00000008 	udf	#8
    4258:	02080000 	.inst	0x02080000 ; undefined
    425c:	00000000 	udf	#0
    4260:	24460000 	cmphs	p0.h, p0/z, z0.h, z6.h
    4264:	01010000 	.inst	0x01010000 ; undefined
    4268:	00020306 	.inst	0x00020306 ; undefined
    426c:	05020100 	orr	z0.d, z0.d, #0x1ff
    4270:	0000014c 	udf	#332
    4274:	6905040d 	stgp	x13, x1, [x0, #160]
    4278:	0100746e 	.inst	0x0100746e ; undefined
    427c:	01c50508 	.inst	0x01c50508 ; undefined
    4280:	01010000 	.inst	0x01010000 ; undefined
    4284:	00020108 	.inst	0x00020108 ; undefined
    4288:	07020100 	.inst	0x07020100 ; undefined
    428c:	0000021f 	udf	#543
    4290:	4c070401 	.inst	0x4c070401 ; undefined
    4294:	07000004 	.inst	0x07000004 ; undefined
    4298:	00000137 	udf	#311
    429c:	6b193703 	subs	w3, w24, w25, lsl #13
    42a0:	01000000 	.inst	0x01000000 ; undefined
    42a4:	04470708 	.inst	0x04470708 ; undefined
    42a8:	f60e0000 	.inst	0xf60e0000 ; undefined
    42ac:	2000000a 	.inst	0x2000000a ; undefined
    42b0:	b0100602 	adrp	x2, 200c5000 <bss_end+0x2003c250>
    42b4:	04000000 	add	z0.b, p0/m, z0.b, z0.b
    42b8:	000006e2 	udf	#1762
    42bc:	005f0c07 	.inst	0x005f0c07 ; undefined
    42c0:	04000000 	add	z0.b, p0/m, z0.b, z0.b
    42c4:	000005c0 	udf	#1472
    42c8:	00bd0a08 	.inst	0x00bd0a08 ; undefined
    42cc:	04080000 	smax	z0.b, p0/m, z0.b, z0.b
    42d0:	000002a6 	udf	#678
    42d4:	00bb090a 	.inst	0x00bb090a ; undefined
    42d8:	04100000 	mul	z0.b, p0/m, z0.b, z0.b
    42dc:	000002ab 	udf	#683
    42e0:	00c2110b 	.inst	0x00c2110b ; undefined
    42e4:	00180000 	.inst	0x00180000 ; undefined
    42e8:	0000bb0f 	udf	#47887
    42ec:	00bb0500 	.inst	0x00bb0500 ; undefined
    42f0:	10000000 	adr	x0, 42f0 <bss_size+0x428f>
    42f4:	00b00308 	.inst	0x00b00308 ; undefined
    42f8:	72030000 	ands	w0, w0, #0x20000000
    42fc:	07000000 	.inst	0x07000000 ; undefined
    4300:	000006d6 	udf	#1750
    4304:	72020c02 	ands	w2, w0, #0xc0000003
    4308:	11000000 	add	w0, w0, #0x0
    430c:	00000733 	udf	#1843
    4310:	df110e02 	.inst	0xdf110e02 ; undefined
    4314:	03000000 	.inst	0x03000000 ; undefined
    4318:	000000c7 	udf	#199
    431c:	0a080101 	and	w1, w8, w8
    4320:	12000002 	and	w2, w0, #0x1
    4324:	000000e4 	udf	#228
    4328:	c0050801 	.inst	0xc0050801 ; undefined
    432c:	01000001 	.inst	0x01000001 ; undefined
    4330:	01f50410 	.inst	0x01f50410 ; undefined
    4334:	d3130000 	.inst	0xd3130000 ; undefined
    4338:	01000000 	.inst	0x01000000 ; undefined
    433c:	03090a08 	.inst	0x03090a08 ; undefined
    4340:	00088da8 	.inst	0x00088da8 ; undefined
    4344:	00000000 	udf	#0
    4348:	00069114 	.inst	0x00069114 ; undefined
    434c:	061e0600 	.inst	0x061e0600 ; undefined
    4350:	0000011e 	udf	#286
    4354:	2a160015 	orr	w21, w0, w22
    4358:	07000000 	.inst	0x07000000 ; undefined
    435c:	0130061f 	.inst	0x0130061f ; undefined
    4360:	30050000 	adr	x0, e361 <bss_size+0xe300>
    4364:	00000001 	udf	#1
    4368:	0000eb03 	udf	#60163
    436c:	02790800 	.inst	0x02790800 ; undefined
    4370:	30040000 	adr	x0, c371 <bss_size+0xc310>
    4374:	000000bb 	udf	#187
    4378:	0000014a 	udf	#330
    437c:	00003c05 	udf	#15365
    4380:	39080000 	strb	w0, [x0, #512]
    4384:	0500000a 	orr	z10.s, z10.s, #0x1
    4388:	00015f07 	.inst	0x00015f07 ; undefined
    438c:	00015f00 	.inst	0x00015f00 ; undefined
    4390:	01300500 	.inst	0x01300500 ; undefined
    4394:	03000000 	.inst	0x03000000 ; undefined
    4398:	000000e4 	udf	#228
    439c:	000b7609 	.inst	0x000b7609 ; undefined
    43a0:	61d44800 	.inst	0x61d44800 ; undefined
    43a4:	00000008 	udf	#8
    43a8:	00400000 	.inst	0x00400000 ; undefined
    43ac:	00000000 	udf	#0
    43b0:	9c010000 	ldr	q0, 63b0 <bss_size+0x634f>
    43b4:	0000019d 	udf	#413
    43b8:	67736d0a 	.inst	0x67736d0a ; undefined
    43bc:	bb1a4800 	.inst	0xbb1a4800 ; undefined
    43c0:	02000000 	.inst	0x02000000 ; undefined
    43c4:	7c026891 	.inst	0x7c026891 ; undefined
    43c8:	4900000b 	.inst	0x4900000b ; undefined
    43cc:	00015f09 	.inst	0x00015f09 ; undefined
    43d0:	78910200 	ldursh	x0, [x16, #-240]
    43d4:	0af21700 	bic	w0, w24, w18, ror #5
    43d8:	23010000 	.inst	0x23010000 ; undefined
    43dc:	00003c05 	udf	#15365
    43e0:	0860b000 	.inst	0x0860b000 ; undefined
    43e4:	00000000 	udf	#0
    43e8:	00012400 	.inst	0x00012400 ; undefined
    43ec:	00000000 	udf	#0
    43f0:	149c0100 	b	27047f0 <bss_end+0x267ba40>
    43f4:	06000002 	.inst	0x06000002 ; undefined
    43f8:	000006e2 	udf	#1762
    43fc:	005f1823 	.inst	0x005f1823 ; undefined
    4400:	91020000 	add	x0, x0, #0x80
    4404:	05c00658 	dupm	z24.b, #0x7
    4408:	25230000 	whilege	p0.b, w0, w3
    440c:	000000bd 	udf	#189
    4410:	06509102 	.inst	0x06509102 ; undefined
    4414:	000002a6 	udf	#678
    4418:	00bb3d23 	.inst	0x00bb3d23 ; undefined
    441c:	91020000 	add	x0, x0, #0x80
    4420:	0b980248 	add	w8, w18, w24, asr #0
    4424:	0c250000 	.inst	0x0c250000 ; undefined
    4428:	000000df 	udf	#223
    442c:	02689102 	.inst	0x02689102 ; undefined
    4430:	00000a9a 	udf	#2714
    4434:	00df0c32 	.inst	0x00df0c32 ; undefined
    4438:	91020000 	add	x0, x0, #0x80
    443c:	029c0278 	.inst	0x029c0278 ; undefined
    4440:	0c330000 	.inst	0x0c330000 ; undefined
    4444:	000000df 	udf	#223
    4448:	00709102 	.inst	0x00709102 ; undefined
    444c:	00029009 	.inst	0x00029009 ; undefined
    4450:	60641e00 	.inst	0x60641e00 ; undefined
    4454:	00000008 	udf	#8
    4458:	004c0000 	.inst	0x004c0000 ; undefined
    445c:	00000000 	udf	#0
    4460:	9c010000 	ldr	q0, 6460 <bss_size+0x63ff>
    4464:	0000025b 	udf	#603
    4468:	67736d0a 	.inst	0x67736d0a ; undefined
    446c:	5f181e00 	.inst	0x5f181e00 ; undefined
    4470:	02000001 	.inst	0x02000001 ; undefined
    4474:	84066891 	ldff1b	{z17.s}, p2/z, [x4, z6.s, uxtw]
    4478:	1e00000b 	.inst	0x1e00000b ; undefined
    447c:	00005f26 	udf	#24358
    4480:	60910200 	.inst	0x60910200 ; undefined
    4484:	0006e202 	.inst	0x0006e202 ; undefined
    4488:	5f0c1f00 	.inst	0x5f0c1f00 ; undefined
    448c:	02000000 	.inst	0x02000000 ; undefined
    4490:	0b007891 	add	w17, w4, w0, lsl #30
    4494:	00000ad8 	udf	#2776
    4498:	00005f16 	udf	#24342
    449c:	08604c00 	.inst	0x08604c00 ; undefined
    44a0:	00000000 	udf	#0
    44a4:	00001800 	udf	#6144
    44a8:	00000000 	udf	#0
    44ac:	8a9c0100 	and	x0, x8, x28, asr #0
    44b0:	02000002 	.inst	0x02000002 ; undefined
    44b4:	00000adc 	udf	#2780
    44b8:	005f0c17 	.inst	0x005f0c17 ; undefined
    44bc:	91020000 	add	x0, x0, #0x80
    44c0:	de0b0078 	.inst	0xde0b0078 ; undefined
    44c4:	0e000006 	tbl	v6.8b, {v0.16b}, v0.8b
    44c8:	0000005f 	udf	#95
    44cc:	00086034 	.inst	0x00086034 ; undefined
    44d0:	00000000 	udf	#0
    44d4:	00000018 	udf	#24
    44d8:	00000000 	udf	#0
    44dc:	02ba9c01 	.inst	0x02ba9c01 ; undefined
    44e0:	6e180000 	ext	v0.16b, v0.16b, v24.16b, #0
    44e4:	0100776f 	.inst	0x0100776f ; undefined
    44e8:	005f0c0f 	.inst	0x005f0c0f ; undefined
    44ec:	91020000 	add	x0, x0, #0x80
    44f0:	8d190078 	.inst	0x8d190078 ; undefined
    44f4:	0100000b 	.inst	0x0100000b ; undefined
    44f8:	005f0a0a 	.inst	0x005f0a0a ; undefined
    44fc:	600c0000 	.inst	0x600c0000 ; undefined
    4500:	00000008 	udf	#8
    4504:	00280000 	.inst	0x00280000 ; NYI
    4508:	00000000 	udf	#0
    450c:	9c010000 	ldr	q0, 650c <bss_size+0x64ab>
    4510:	00002400 	udf	#9216
    4514:	01000500 	.inst	0x01000500 ; undefined
    4518:	00196808 	.inst	0x00196808 ; undefined
    451c:	25590100 	cmpge	p0.h, p0/z, z8.h, #-7
    4520:	00000000 	udf	#0
    4524:	00000008 	udf	#8
    4528:	a2680000 	.inst	0xa2680000 ; undefined
    452c:	aa00000b 	orr	x11, x0, x0
    4530:	ca00000b 	eor	x11, x0, x0
    4534:	0100000b 	.inst	0x0100000b ; undefined
    4538:	00002580 	udf	#9600
    453c:	01000500 	.inst	0x01000500 ; undefined
    4540:	00197c08 	.inst	0x00197c08 ; undefined
    4544:	25b40100 	whilege	p0.s, w8, w20
    4548:	68000000 	.inst	0x68000000 ; undefined
    454c:	00000008 	udf	#8
    4550:	15d00000 	b	7404550 <bss_end+0x737b7a0>
    4554:	00000bd6 	udf	#3030
    4558:	00000baa 	udf	#2986
    455c:	00000bca 	udf	#3018
    4560:	00248001 	.inst	0x00248001 ; NYI
    4564:	00050000 	.inst	0x00050000 ; undefined
    4568:	19900801 	.inst	0x19900801 ; undefined
    456c:	3c010000 	stur	b0, [x0, #16]
    4570:	d0000026 	adrp	x6, a000 <bss_size+0x9f9f>
    4574:	00000872 	udf	#2162
    4578:	50000000 	adr	x0, 457a <bss_size+0x4519>
    457c:	00000bec 	udf	#3052
    4580:	00000baa 	udf	#2986
    4584:	00000bca 	udf	#3018
    4588:	Address 0x0000000000004588 is out of bounds.


Disassembly of section .debug_abbrev:

0000000000000000 <.debug_abbrev>:
       0:	03000501 	.inst	0x03000501 ; undefined
       4:	01213a0e 	.inst	0x01213a0e ; undefined
       8:	0b390b3b 	add	w27, w25, w25, uxtb #2
       c:	18021349 	ldr	w9, 4274 <bss_size+0x4213>
      10:	18020000 	ldr	w0, 4010 <bss_size+0x3faf>
      14:	03000000 	.inst	0x03000000 ; undefined
      18:	0e030034 	tbl	v20.8b, {v1.16b}, v3.8b
      1c:	3b01213a 	.inst	0x3b01213a ; undefined
      20:	490b390b 	.inst	0x490b390b ; undefined
      24:	00180213 	.inst	0x00180213 ; undefined
      28:	012e0400 	.inst	0x012e0400 ; undefined
      2c:	0e03193f 	uzp1	v31.8b, v9.8b, v3.8b
      30:	3b01213a 	.inst	0x3b01213a ; undefined
      34:	490b390b 	.inst	0x490b390b ; undefined
      38:	01193c13 	.inst	0x01193c13 ; undefined
      3c:	05000013 	orr	z19.s, z19.s, #0x1
      40:	0111010b 	.inst	0x0111010b ; undefined
      44:	00000712 	udf	#1810
      48:	03000d06 	.inst	0x03000d06 ; undefined
      4c:	01213a0e 	.inst	0x01213a0e ; undefined
      50:	0b390b3b 	add	w27, w25, w25, uxtb #2
      54:	0b381349 	add	w9, w26, w24, uxtb #4
      58:	0f070000 	.inst	0x0f070000 ; undefined
      5c:	08210b00 	.inst	0x08210b00 ; undefined
      60:	00001349 	udf	#4937
      64:	3f012e08 	.inst	0x3f012e08 ; undefined
      68:	3a0e0319 	adcs	w25, w24, w14
      6c:	0b3b0121 	add	w1, w9, w27, uxtb
      70:	27062139 	.inst	0x27062139 ; undefined
      74:	12011119 	and	w25, w8, #0x8000000f
      78:	7c184007 	stur	h7, [x0, #-124]
      7c:	00130119 	.inst	0x00130119 ; undefined
      80:	012e0900 	.inst	0x012e0900 ; undefined
      84:	0e03193f 	uzp1	v31.8b, v9.8b, v3.8b
      88:	3b01213a 	.inst	0x3b01213a ; undefined
      8c:	3900d221 	strb	w1, [x17, #52]
      90:	13490721 	.inst	0x13490721 ; undefined
      94:	0000193c 	udf	#6460
      98:	3f012e0a 	.inst	0x3f012e0a ; undefined
      9c:	3a0e0319 	adcs	w25, w24, w14
      a0:	0b3b0121 	add	w1, w9, w27, uxtb
      a4:	19270b39 	.inst	0x19270b39 ; undefined
      a8:	01111349 	.inst	0x01111349 ; undefined
      ac:	18400712 	ldr	w18, 8018c <from_el2_to_el1+0x150>
      b0:	1301197a 	sbfx	w26, w11, #1, #6
      b4:	110b0000 	add	w0, w0, #0x2c0
      b8:	130e2501 	sbfiz	w1, w8, #18, #10
      bc:	1b1f030b 	madd	w11, w24, wzr, w0
      c0:	1201111f 	and	wsp, w8, #0x8000000f
      c4:	00171007 	.inst	0x00171007 ; undefined
      c8:	01130c00 	.inst	0x01130c00 ; undefined
      cc:	0b0b0e03 	add	w3, w16, w11, lsl #3
      d0:	0b3b0b3a 	add	w26, w25, w27, uxtb #2
      d4:	13010b39 	sbfx	w25, w25, #1, #2
      d8:	0d0d0000 	.inst	0x0d0d0000 ; undefined
      dc:	3a080300 	adcs	w0, w24, w8
      e0:	390b3b0b 	strb	w11, [x24, #718]
      e4:	3813490b 	sttrb	w11, [x8, #-204]
      e8:	0e00000b 	tbl	v11.8b, {v0.16b}, v0.8b
      ec:	0b0b0024 	add	w4, w1, w11
      f0:	08030b3e 	stxrb	w3, w30, [x25]
      f4:	160f0000 	b	fffffffff83c00f4 <bss_end+0xfffffffff8337344>
      f8:	3a0e0300 	adcs	w0, w24, w14
      fc:	390b3b0b 	strb	w11, [x24, #718]
     100:	0013490b 	.inst	0x0013490b ; undefined
     104:	012e1000 	.inst	0x012e1000 ; undefined
     108:	0e03193f 	uzp1	v31.8b, v9.8b, v3.8b
     10c:	0b3b0b3a 	add	w26, w25, w27, uxtb #2
     110:	19270b39 	.inst	0x19270b39 ; undefined
     114:	01111349 	.inst	0x01111349 ; undefined
     118:	18400712 	ldr	w18, 801f8 <from_el2_to_el1+0x1bc>
     11c:	1301197c 	sbfx	w28, w11, #1, #6
     120:	0b110000 	add	w0, w0, w17
     124:	01175501 	.inst	0x01175501 ; undefined
     128:	12000013 	and	w19, w0, #0x1
     12c:	0111010b 	.inst	0x0111010b ; undefined
     130:	13010712 	sbfx	w18, w24, #1, #1
     134:	34130000 	cbz	w0, 26134 <bss_size+0x260d3>
     138:	3a080300 	adcs	w0, w24, w8
     13c:	390b3b0b 	strb	w11, [x24, #718]
     140:	0213490b 	.inst	0x0213490b ; undefined
     144:	14000018 	b	1a4 <bss_size+0x143>
     148:	193f012e 	.inst	0x193f012e ; undefined
     14c:	0b3a0e03 	add	w3, w16, w26, uxtb #3
     150:	0b390b3b 	add	w27, w25, w25, uxtb #2
     154:	13491927 	.inst	0x13491927 ; undefined
     158:	07120111 	.inst	0x07120111 ; undefined
     15c:	197a1840 	.inst	0x197a1840 ; undefined
     160:	01000000 	.inst	0x01000000 ; undefined
     164:	0803000d 	stxrb	w3, w13, [x0]
     168:	3b04213a 	.inst	0x3b04213a ; undefined
     16c:	490b390b 	.inst	0x490b390b ; undefined
     170:	000b3813 	.inst	0x000b3813 ; undefined
     174:	00050200 	.inst	0x00050200 ; undefined
     178:	00001349 	udf	#4937
     17c:	03000d03 	.inst	0x03000d03 ; undefined
     180:	3b0b3a0e 	.inst	0x3b0b3a0e ; undefined
     184:	490b390b 	.inst	0x490b390b ; undefined
     188:	000b3813 	.inst	0x000b3813 ; undefined
     18c:	00240400 	.inst	0x00240400 ; NYI
     190:	0b3e0b0b 	add	w11, w24, w30, uxtb #2
     194:	00000e03 	udf	#3587
     198:	00001805 	udf	#6149
     19c:	00050600 	.inst	0x00050600 ; undefined
     1a0:	213a0e03 	.inst	0x213a0e03 ; undefined
     1a4:	390b3b01 	strb	w1, [x24, #718]
     1a8:	0213490b 	.inst	0x0213490b ; undefined
     1ac:	07000018 	.inst	0x07000018 ; undefined
     1b0:	210b000f 	.inst	0x210b000f ; undefined
     1b4:	00134908 	.inst	0x00134908 ; undefined
     1b8:	012e0800 	.inst	0x012e0800 ; undefined
     1bc:	0e03193f 	uzp1	v31.8b, v9.8b, v3.8b
     1c0:	0b3b0b3a 	add	w26, w25, w27, uxtb #2
     1c4:	3c062139 	stur	b25, [x9, #98]
     1c8:	00130119 	.inst	0x00130119 ; undefined
     1cc:	012e0900 	.inst	0x012e0900 ; undefined
     1d0:	0e03193f 	uzp1	v31.8b, v9.8b, v3.8b
     1d4:	0b3b0b3a 	add	w26, w25, w27, uxtb #2
     1d8:	19270b39 	.inst	0x19270b39 ; undefined
     1dc:	193c1349 	.inst	0x193c1349 ; undefined
     1e0:	00001301 	udf	#4865
     1e4:	3f012e0a 	.inst	0x3f012e0a ; undefined
     1e8:	3a0e0319 	adcs	w25, w24, w14
     1ec:	0b3b0121 	add	w1, w9, w27, uxtb
     1f0:	27052139 	.inst	0x27052139 ; undefined
     1f4:	11134919 	add	w25, w8, #0x4d2
     1f8:	40071201 	.inst	0x40071201 ; undefined
     1fc:	01197c18 	.inst	0x01197c18 ; undefined
     200:	0b000013 	add	w19, w0, w0
     204:	08030034 	stxrb	w3, w20, [x1]
     208:	3b01213a 	.inst	0x3b01213a ; undefined
     20c:	490b390b 	.inst	0x490b390b ; undefined
     210:	00180213 	.inst	0x00180213 ; undefined
     214:	00160c00 	.inst	0x00160c00 ; undefined
     218:	0b3a0e03 	add	w3, w16, w26, uxtb #3
     21c:	0b390b3b 	add	w27, w25, w25, uxtb #2
     220:	00001349 	udf	#4937
     224:	4901010d 	.inst	0x4901010d ; undefined
     228:	00130113 	.inst	0x00130113 ; undefined
     22c:	012e0e00 	.inst	0x012e0e00 ; undefined
     230:	0e03193f 	uzp1	v31.8b, v9.8b, v3.8b
     234:	0b3b0b3a 	add	w26, w25, w27, uxtb #2
     238:	27062139 	.inst	0x27062139 ; undefined
     23c:	01193c19 	.inst	0x01193c19 ; undefined
     240:	0f000013 	.inst	0x0f000013 ; undefined
     244:	193f012e 	.inst	0x193f012e ; undefined
     248:	0b3a0e03 	add	w3, w16, w26, uxtb #3
     24c:	0b390b3b 	add	w27, w25, w25, uxtb #2
     250:	193c1349 	.inst	0x193c1349 ; undefined
     254:	00001301 	udf	#4865
     258:	03003410 	.inst	0x03003410 ; undefined
     25c:	01213a0e 	.inst	0x01213a0e ; undefined
     260:	0b390b3b 	add	w27, w25, w25, uxtb #2
     264:	18021349 	ldr	w9, 44cc <bss_size+0x446b>
     268:	0b110000 	add	w0, w0, w17
     26c:	12011101 	and	w1, w8, #0x8000000f
     270:	12000007 	and	w7, w0, #0x1
     274:	0b0b0113 	add	w19, w8, w11
     278:	213b0b3a 	.inst	0x213b0b3a ; undefined
     27c:	0921390a 	.inst	0x0921390a ; undefined
     280:	00001301 	udf	#4865
     284:	49002113 	.inst	0x49002113 ; undefined
     288:	000b2f13 	.inst	0x000b2f13 ; undefined
     28c:	012e1400 	.inst	0x012e1400 ; undefined
     290:	0803193f 	stxrb	w3, wzr, [x9]
     294:	3b01213a 	.inst	0x3b01213a ; undefined
     298:	0521390b 	.inst	0x0521390b ; undefined
     29c:	13491927 	.inst	0x13491927 ; undefined
     2a0:	07120111 	.inst	0x07120111 ; undefined
     2a4:	197c1840 	.inst	0x197c1840 ; undefined
     2a8:	00001301 	udf	#4865
     2ac:	25011115 	cmpgt	p5.b, p4/z, z8.b, #1
     2b0:	030b130e 	.inst	0x030b130e ; undefined
     2b4:	111f1b1f 	add	wsp, w24, #0x7c6
     2b8:	10071201 	adr	x1, e4f8 <bss_size+0xe497>
     2bc:	16000017 	b	fffffffff8000318 <bss_end+0xfffffffff7f77568>
     2c0:	13490026 	.inst	0x13490026 ; undefined
     2c4:	15170000 	b	45c02c4 <bss_end+0x4537514>
     2c8:	49192701 	.inst	0x49192701 ; undefined
     2cc:	00130113 	.inst	0x00130113 ; undefined
     2d0:	00241800 	.inst	0x00241800 ; NYI
     2d4:	0b3e0b0b 	add	w11, w24, w30, uxtb #2
     2d8:	00000803 	udf	#2051
     2dc:	0b000f19 	add	w25, w24, w0, lsl #3
     2e0:	1a00000b 	adc	w11, w0, w0
     2e4:	00000021 	udf	#33
     2e8:	0300341b 	.inst	0x0300341b ; undefined
     2ec:	3b0b3a0e 	.inst	0x3b0b3a0e ; undefined
     2f0:	490b390b 	.inst	0x490b390b ; undefined
     2f4:	3c193f13 	str	b19, [x24, #-109]!
     2f8:	1c000019 	ldr	s25, 2f8 <bss_size+0x297>
     2fc:	0e030113 	tbl	v19.8b, {v8.16b}, v3.8b
     300:	0b3a0b0b 	add	w11, w24, w26, uxtb #2
     304:	0b390b3b 	add	w27, w25, w25, uxtb #2
     308:	00001301 	udf	#4865
     30c:	4700341d 	.inst	0x4700341d ; undefined
     310:	3b0b3a13 	.inst	0x3b0b3a13 ; undefined
     314:	490b390b 	.inst	0x490b390b ; undefined
     318:	00180213 	.inst	0x00180213 ; undefined
     31c:	00151e00 	.inst	0x00151e00 ; undefined
     320:	00001927 	udf	#6439
     324:	4900211f 	.inst	0x4900211f ; undefined
     328:	00052f13 	.inst	0x00052f13 ; undefined
     32c:	012e2000 	.inst	0x012e2000 ; undefined
     330:	0e03193f 	uzp1	v31.8b, v9.8b, v3.8b
     334:	0b3b0b3a 	add	w26, w25, w27, uxtb #2
     338:	19270b39 	.inst	0x19270b39 ; undefined
     33c:	01111349 	.inst	0x01111349 ; undefined
     340:	18400712 	ldr	w18, 80420 <from_el2_to_el1+0x3e4>
     344:	1301197a 	sbfx	w26, w11, #1, #6
     348:	2e210000 	uaddl	v0.8h, v0.8b, v1.8b
     34c:	03193f01 	.inst	0x03193f01 ; undefined
     350:	3b0b3a0e 	.inst	0x3b0b3a0e ; undefined
     354:	270b390b 	.inst	0x270b390b ; undefined
     358:	11134919 	add	w25, w8, #0x4d2
     35c:	40071201 	.inst	0x40071201 ; undefined
     360:	00197c18 	.inst	0x00197c18 ; undefined
     364:	34010000 	cbz	w0, 2364 <bss_size+0x2303>
     368:	3a0e0300 	adcs	w0, w24, w14
     36c:	0b3b0121 	add	w1, w9, w27, uxtb
     370:	13490b39 	.inst	0x13490b39 ; undefined
     374:	00001802 	udf	#6146
     378:	03000d02 	.inst	0x03000d02 ; undefined
     37c:	03213a0e 	.inst	0x03213a0e ; undefined
     380:	21390b3b 	.inst	0x21390b3b ; undefined
     384:	3813490c 	sttrb	w12, [x8, #-204]
     388:	0300000b 	.inst	0x0300000b ; undefined
     38c:	0b0b0024 	add	w4, w1, w11
     390:	0e030b3e 	.inst	0x0e030b3e ; undefined
     394:	05040000 	.inst	0x05040000 ; undefined
     398:	00134900 	.inst	0x00134900 ; undefined
     39c:	000f0500 	.inst	0x000f0500 ; undefined
     3a0:	4908210b 	.inst	0x4908210b ; undefined
     3a4:	06000013 	.inst	0x06000013 ; undefined
     3a8:	0e030016 	tbl	v22.8b, {v0.16b}, v3.8b
     3ac:	0b3b0b3a 	add	w26, w25, w27, uxtb #2
     3b0:	13490b39 	.inst	0x13490b39 ; undefined
     3b4:	05070000 	.inst	0x05070000 ; undefined
     3b8:	3a080300 	adcs	w0, w24, w8
     3bc:	0b3b0121 	add	w1, w9, w27, uxtb
     3c0:	13490b39 	.inst	0x13490b39 ; undefined
     3c4:	00001802 	udf	#6146
     3c8:	3f012e08 	.inst	0x3f012e08 ; undefined
     3cc:	3a0e0319 	adcs	w25, w24, w14
     3d0:	0b3b0121 	add	w1, w9, w27, uxtb
     3d4:	27062139 	.inst	0x27062139 ; undefined
     3d8:	12011119 	and	w25, w8, #0x8000000f
     3dc:	7c184007 	stur	h7, [x0, #-124]
     3e0:	00130119 	.inst	0x00130119 ; undefined
     3e4:	010b0900 	.inst	0x010b0900 ; undefined
     3e8:	07120111 	.inst	0x07120111 ; undefined
     3ec:	130a0000 	sbfiz	w0, w0, #22, #1
     3f0:	3a0b0b01 	.inst	0x3a0b0b01 ; undefined
     3f4:	0b3b0321 	add	w1, w25, w27, uxtb
     3f8:	01092139 	.inst	0x01092139 ; undefined
     3fc:	0b000013 	add	w19, w0, w0
     400:	193f012e 	.inst	0x193f012e ; undefined
     404:	213a0e03 	.inst	0x213a0e03 ; undefined
     408:	390b3b04 	strb	w4, [x24, #718]
     40c:	19270521 	.inst	0x19270521 ; undefined
     410:	193c1349 	.inst	0x193c1349 ; undefined
     414:	00001301 	udf	#4865
     418:	3f012e0c 	.inst	0x3f012e0c ; undefined
     41c:	3a0e0319 	adcs	w25, w24, w14
     420:	0b3b0521 	add	w1, w9, w27, uxtb #1
     424:	27062139 	.inst	0x27062139 ; undefined
     428:	01193c19 	.inst	0x01193c19 ; undefined
     42c:	0d000013 	st1	{v19.b}[0], [x0]
     430:	08030034 	stxrb	w3, w20, [x1]
     434:	3b01213a 	.inst	0x3b01213a ; undefined
     438:	490b390b 	.inst	0x490b390b ; undefined
     43c:	00180213 	.inst	0x00180213 ; undefined
     440:	01110e00 	.inst	0x01110e00 ; undefined
     444:	0b130e25 	add	w5, w17, w19, lsl #3
     448:	1f1b1f03 	fmadd	s3, s24, s27, s7
     44c:	07120111 	.inst	0x07120111 ; undefined
     450:	00001710 	udf	#5904
     454:	0b00240f 	add	w15, w0, w0, lsl #9
     458:	030b3e0b 	.inst	0x030b3e0b ; undefined
     45c:	10000008 	adr	x8, 45c <bss_size+0x3fb>
     460:	0803000d 	stxrb	w3, w13, [x0]
     464:	0b3b0b3a 	add	w26, w25, w27, uxtb #2
     468:	13490b39 	.inst	0x13490b39 ; undefined
     46c:	00000b38 	udf	#2872
     470:	49002611 	.inst	0x49002611 ; undefined
     474:	12000013 	and	w19, w0, #0x1
     478:	0b0b000f 	add	w15, w0, w11
     47c:	26130000 	.inst	0x26130000 ; undefined
     480:	14000000 	b	480 <bss_size+0x41f>
     484:	193f002e 	.inst	0x193f002e ; undefined
     488:	0b3a0e03 	add	w3, w16, w26, uxtb #3
     48c:	0b390b3b 	add	w27, w25, w25, uxtb #2
     490:	01111349 	.inst	0x01111349 ; undefined
     494:	18400712 	ldr	w18, 80574 <from_el2_to_el1+0x538>
     498:	0000197a 	udf	#6522
     49c:	03000515 	.inst	0x03000515 ; undefined
     4a0:	3b0b3a0e 	.inst	0x3b0b3a0e ; undefined
     4a4:	490b390b 	.inst	0x490b390b ; undefined
     4a8:	00180213 	.inst	0x00180213 ; undefined
     4ac:	01151600 	.inst	0x01151600 ; undefined
     4b0:	13011927 	sbfx	w7, w9, #1, #6
     4b4:	0b170000 	add	w0, w0, w23
     4b8:	12011101 	and	w1, w8, #0x8000000f
     4bc:	00130107 	.inst	0x00130107 ; undefined
     4c0:	012e1800 	.inst	0x012e1800 ; undefined
     4c4:	0e03193f 	uzp1	v31.8b, v9.8b, v3.8b
     4c8:	0b3b0b3a 	add	w26, w25, w27, uxtb #2
     4cc:	19270b39 	.inst	0x19270b39 ; undefined
     4d0:	01111349 	.inst	0x01111349 ; undefined
     4d4:	18400712 	ldr	w18, 805b4 <from_el2_to_el1+0x578>
     4d8:	0000197a 	udf	#6522
     4dc:	00050100 	.inst	0x00050100 ; undefined
     4e0:	00001349 	udf	#4937
     4e4:	0b002402 	add	w2, w0, w0, lsl #9
     4e8:	030b3e0b 	.inst	0x030b3e0b ; undefined
     4ec:	0300000e 	.inst	0x0300000e ; undefined
     4f0:	193f012e 	.inst	0x193f012e ; undefined
     4f4:	213a0e03 	.inst	0x213a0e03 ; undefined
     4f8:	390b3b04 	strb	w4, [x24, #718]
     4fc:	4919270b 	.inst	0x4919270b ; undefined
     500:	01193c13 	.inst	0x01193c13 ; undefined
     504:	04000013 	add	z19.b, p0/m, z19.b, z0.b
     508:	210b000f 	.inst	0x210b000f ; undefined
     50c:	00134908 	.inst	0x00134908 ; undefined
     510:	012e0500 	.inst	0x012e0500 ; undefined
     514:	0e03193f 	uzp1	v31.8b, v9.8b, v3.8b
     518:	0b3b0b3a 	add	w26, w25, w27, uxtb #2
     51c:	27062139 	.inst	0x27062139 ; undefined
     520:	01193c19 	.inst	0x01193c19 ; undefined
     524:	06000013 	.inst	0x06000013 ; undefined
     528:	0e030034 	tbl	v20.8b, {v1.16b}, v3.8b
     52c:	3b01213a 	.inst	0x3b01213a ; undefined
     530:	0b390a21 	add	w1, w17, w25, uxtb #2
     534:	18021349 	ldr	w9, 479c <bss_size+0x473b>
     538:	26070000 	.inst	0x26070000 ; undefined
     53c:	00134900 	.inst	0x00134900 ; undefined
     540:	000d0800 	.inst	0x000d0800 ; undefined
     544:	213a0e03 	.inst	0x213a0e03 ; undefined
     548:	390b3b02 	strb	w2, [x24, #718]
     54c:	13491121 	.inst	0x13491121 ; undefined
     550:	00000538 	udf	#1336
     554:	03001609 	.inst	0x03001609 ; undefined
     558:	3b0b3a0e 	.inst	0x3b0b3a0e ; undefined
     55c:	490b390b 	.inst	0x490b390b ; undefined
     560:	0a000013 	and	w19, w0, w0
     564:	00000018 	udf	#24
     568:	2501110b 	cmpge	p11.b, p4/z, z8.b, #1
     56c:	030b130e 	.inst	0x030b130e ; undefined
     570:	111f1b1f 	add	wsp, w24, #0x7c6
     574:	10071201 	adr	x1, e7b4 <bss_size+0xe753>
     578:	0c000017 	st4	{v23.8b-v26.8b}, [x0]
     57c:	0b0b0024 	add	w4, w1, w11
     580:	08030b3e 	stxrb	w3, w30, [x25]
     584:	130d0000 	sbfiz	w0, w0, #19, #1
     588:	0b0e0301 	add	w1, w24, w14
     58c:	3b0b3a05 	.inst	0x3b0b3a05 ; undefined
     590:	010b390b 	.inst	0x010b390b ; undefined
     594:	0e000013 	tbl	v19.8b, {v0.16b}, v0.8b
     598:	0803000d 	stxrb	w3, w13, [x0]
     59c:	0b3b0b3a 	add	w26, w25, w27, uxtb #2
     5a0:	13490b39 	.inst	0x13490b39 ; undefined
     5a4:	00000b38 	udf	#2872
     5a8:	03000d0f 	.inst	0x03000d0f ; undefined
     5ac:	3b0b3a0e 	.inst	0x3b0b3a0e ; undefined
     5b0:	490b390b 	.inst	0x490b390b ; undefined
     5b4:	000b3813 	.inst	0x000b3813 ; undefined
     5b8:	01011000 	.inst	0x01011000 ; undefined
     5bc:	13011349 	sbfx	w9, w26, #1, #4
     5c0:	21110000 	.inst	0x21110000 ; undefined
     5c4:	2f134900 	.inst	0x2f134900 ; undefined
     5c8:	1200000b 	and	w11, w0, #0x1
     5cc:	193f012e 	.inst	0x193f012e ; undefined
     5d0:	0b3a0e03 	add	w3, w16, w26, uxtb #3
     5d4:	0b390b3b 	add	w27, w25, w25, uxtb #2
     5d8:	1301193c 	sbfx	w28, w9, #1, #6
     5dc:	2e130000 	ext	v0.8b, v0.8b, v19.8b, #0
     5e0:	03193f01 	.inst	0x03193f01 ; undefined
     5e4:	3b0b3a0e 	.inst	0x3b0b3a0e ; undefined
     5e8:	490b390b 	.inst	0x490b390b ; undefined
     5ec:	01193c13 	.inst	0x01193c13 ; undefined
     5f0:	14000013 	b	63c <bss_size+0x5db>
     5f4:	193f012e 	.inst	0x193f012e ; undefined
     5f8:	0b3a0e03 	add	w3, w16, w26, uxtb #3
     5fc:	0b390b3b 	add	w27, w25, w25, uxtb #2
     600:	13491927 	.inst	0x13491927 ; undefined
     604:	07120111 	.inst	0x07120111 ; undefined
     608:	197c1840 	.inst	0x197c1840 ; undefined
     60c:	00001301 	udf	#4865
     610:	03000515 	.inst	0x03000515 ; undefined
     614:	3b0b3a08 	.inst	0x3b0b3a08 ; undefined
     618:	490b390b 	.inst	0x490b390b ; undefined
     61c:	00180213 	.inst	0x00180213 ; undefined
     620:	012e1600 	.inst	0x012e1600 ; undefined
     624:	0e03193f 	uzp1	v31.8b, v9.8b, v3.8b
     628:	0b3b0b3a 	add	w26, w25, w27, uxtb #2
     62c:	13490b39 	.inst	0x13490b39 ; undefined
     630:	07120111 	.inst	0x07120111 ; undefined
     634:	197c1840 	.inst	0x197c1840 ; undefined
     638:	00001301 	udf	#4865
     63c:	00240100 	.inst	0x00240100 ; NYI
     640:	0b3e0b0b 	add	w11, w24, w30, uxtb #2
     644:	00000e03 	udf	#3587
     648:	03003402 	.inst	0x03003402 ; undefined
     64c:	01213a0e 	.inst	0x01213a0e ; undefined
     650:	0b390b3b 	add	w27, w25, w25, uxtb #2
     654:	18021349 	ldr	w9, 48bc <bss_size+0x485b>
     658:	34030000 	cbz	w0, 6658 <bss_size+0x65f7>
     65c:	3a0e0300 	adcs	w0, w24, w14
     660:	0b3b0221 	add	w1, w17, w27, uxtb
     664:	13490b39 	.inst	0x13490b39 ; undefined
     668:	193c193f 	.inst	0x193c193f ; undefined
     66c:	11040000 	add	w0, w0, #0x100
     670:	130e2501 	sbfiz	w1, w8, #18, #10
     674:	1b1f030b 	madd	w11, w24, wzr, w0
     678:	1201111f 	and	wsp, w8, #0x8000000f
     67c:	00171007 	.inst	0x00171007 ; undefined
     680:	00240500 	.inst	0x00240500 ; NYI
     684:	0b3e0b0b 	add	w11, w24, w30, uxtb #2
     688:	00000803 	udf	#2051
     68c:	0b000f06 	add	w6, w24, w0, lsl #3
     690:	0700000b 	.inst	0x0700000b ; undefined
     694:	13470034 	.inst	0x13470034 ; undefined
     698:	0b3b0b3a 	add	w26, w25, w27, uxtb #2
     69c:	18020b39 	ldr	w25, 4800 <bss_size+0x479f>
     6a0:	2e080000 	ext	v0.8b, v0.8b, v8.8b, #0
     6a4:	03193f01 	.inst	0x03193f01 ; undefined
     6a8:	3b0b3a0e 	.inst	0x3b0b3a0e ; undefined
     6ac:	270b390b 	.inst	0x270b390b ; undefined
     6b0:	11134919 	add	w25, w8, #0x4d2
     6b4:	40071201 	.inst	0x40071201 ; undefined
     6b8:	01197a18 	.inst	0x01197a18 ; undefined
     6bc:	09000013 	.inst	0x09000013 ; undefined
     6c0:	08030005 	stxrb	w3, w5, [x0]
     6c4:	0b3b0b3a 	add	w26, w25, w27, uxtb #2
     6c8:	13490b39 	.inst	0x13490b39 ; undefined
     6cc:	00001802 	udf	#6146
     6d0:	0b000f0a 	add	w10, w24, w0, lsl #3
     6d4:	0013490b 	.inst	0x0013490b ; undefined
     6d8:	012e0b00 	.inst	0x012e0b00 ; undefined
     6dc:	0e03193f 	uzp1	v31.8b, v9.8b, v3.8b
     6e0:	0b3b0b3a 	add	w26, w25, w27, uxtb #2
     6e4:	01110b39 	.inst	0x01110b39 ; undefined
     6e8:	18400712 	ldr	w18, 807c8 <from_el2_to_el1+0x78c>
     6ec:	1301197a 	sbfx	w26, w11, #1, #6
     6f0:	01000000 	.inst	0x01000000 ; undefined
     6f4:	0e030034 	tbl	v20.8b, {v1.16b}, v3.8b
     6f8:	3b01213a 	.inst	0x3b01213a ; undefined
     6fc:	490b390b 	.inst	0x490b390b ; undefined
     700:	00180213 	.inst	0x00180213 ; undefined
     704:	000d0200 	.inst	0x000d0200 ; undefined
     708:	213a0e03 	.inst	0x213a0e03 ; undefined
     70c:	390b3b02 	strb	w2, [x24, #718]
     710:	3813490b 	sttrb	w11, [x8, #-204]
     714:	0300000b 	.inst	0x0300000b ; undefined
     718:	13490005 	.inst	0x13490005 ; undefined
     71c:	24040000 	cmphs	p0.b, p0/z, z0.b, z4.b
     720:	3e0b0b00 	.inst	0x3e0b0b00 ; undefined
     724:	000e030b 	.inst	0x000e030b ; undefined
     728:	010b0500 	.inst	0x010b0500 ; undefined
     72c:	07120111 	.inst	0x07120111 ; undefined
     730:	2e060000 	ext	v0.8b, v0.8b, v6.8b, #0
     734:	03193f01 	.inst	0x03193f01 ; undefined
     738:	3b0b3a0e 	.inst	0x3b0b3a0e ; undefined
     73c:	270b390b 	.inst	0x270b390b ; undefined
     740:	3c134919 	.inst	0x3c134919 ; undefined
     744:	00130119 	.inst	0x00130119 ; undefined
     748:	000f0700 	.inst	0x000f0700 ; undefined
     74c:	4908210b 	.inst	0x4908210b ; undefined
     750:	08000013 	stxrb	w0, w19, [x0]
     754:	0e030005 	tbl	v5.8b, {v0.16b}, v3.8b
     758:	3b01213a 	.inst	0x3b01213a ; undefined
     75c:	490b390b 	.inst	0x490b390b ; undefined
     760:	00180213 	.inst	0x00180213 ; undefined
     764:	00340900 	.inst	0x00340900 ; NYI
     768:	213a0803 	.inst	0x213a0803 ; undefined
     76c:	390b3b01 	strb	w1, [x24, #718]
     770:	0213490b 	.inst	0x0213490b ; undefined
     774:	0a000018 	and	w24, w0, w0
     778:	13490101 	.inst	0x13490101 ; undefined
     77c:	00001301 	udf	#4865
     780:	4900210b 	.inst	0x4900210b ; undefined
     784:	000b2f13 	.inst	0x000b2f13 ; undefined
     788:	00160c00 	.inst	0x00160c00 ; undefined
     78c:	0b3a0e03 	add	w3, w16, w26, uxtb #3
     790:	0b390b3b 	add	w27, w25, w25, uxtb #2
     794:	00001349 	udf	#4937
     798:	3f002e0d 	.inst	0x3f002e0d ; undefined
     79c:	3a0e0319 	adcs	w25, w24, w14
     7a0:	0b3b0121 	add	w1, w9, w27, uxtb
     7a4:	13490b39 	.inst	0x13490b39 ; undefined
     7a8:	07120111 	.inst	0x07120111 ; undefined
     7ac:	197a1840 	.inst	0x197a1840 ; undefined
     7b0:	2e0e0000 	ext	v0.8b, v0.8b, v14.8b, #0
     7b4:	03193f01 	.inst	0x03193f01 ; undefined
     7b8:	06213a0e 	.inst	0x06213a0e ; undefined
     7bc:	21390b3b 	.inst	0x21390b3b ; undefined
     7c0:	3c192706 	str	b6, [x24], #-110
     7c4:	00130119 	.inst	0x00130119 ; undefined
     7c8:	012e0f00 	.inst	0x012e0f00 ; undefined
     7cc:	0e03193f 	uzp1	v31.8b, v9.8b, v3.8b
     7d0:	3b01213a 	.inst	0x3b01213a ; undefined
     7d4:	0621390b 	.inst	0x0621390b ; undefined
     7d8:	01111927 	.inst	0x01111927 ; undefined
     7dc:	18400712 	ldr	w18, 808bc <leftRotate+0xbc>
     7e0:	1301197c 	sbfx	w28, w11, #1, #6
     7e4:	11100000 	add	w0, w0, #0x400
     7e8:	130e2501 	sbfiz	w1, w8, #18, #10
     7ec:	1b1f030b 	madd	w11, w24, wzr, w0
     7f0:	1201111f 	and	wsp, w8, #0x8000000f
     7f4:	00171007 	.inst	0x00171007 ; undefined
     7f8:	01131100 	.inst	0x01131100 ; undefined
     7fc:	0b3a0b0b 	add	w11, w24, w26, uxtb #2
     800:	0b390b3b 	add	w27, w25, w25, uxtb #2
     804:	00001301 	udf	#4865
     808:	49002612 	.inst	0x49002612 ; undefined
     80c:	13000013 	sbfx	w19, w0, #0, #1
     810:	0b0b0024 	add	w4, w1, w11
     814:	08030b3e 	stxrb	w3, w30, [x25]
     818:	0f140000 	.inst	0x0f140000 ; undefined
     81c:	000b0b00 	.inst	0x000b0b00 ; undefined
     820:	00261500 	.inst	0x00261500 ; NYI
     824:	2e160000 	ext	v0.8b, v0.8b, v22.8b, #0
     828:	03193f01 	.inst	0x03193f01 ; undefined
     82c:	3b0b3a0e 	.inst	0x3b0b3a0e ; undefined
     830:	270b390b 	.inst	0x270b390b ; undefined
     834:	11134919 	add	w25, w8, #0x4d2
     838:	40071201 	.inst	0x40071201 ; undefined
     83c:	01197c18 	.inst	0x01197c18 ; undefined
     840:	17000013 	b	fffffffffc00088c <bss_end+0xfffffffffbf77adc>
     844:	0111010b 	.inst	0x0111010b ; undefined
     848:	13010712 	sbfx	w18, w24, #1, #1
     84c:	2e180000 	ext	v0.8b, v0.8b, v24.8b, #0
     850:	03193f01 	.inst	0x03193f01 ; undefined
     854:	3b0b3a0e 	.inst	0x3b0b3a0e ; undefined
     858:	110b390b 	add	w11, w8, #0x2ce
     85c:	40071201 	.inst	0x40071201 ; undefined
     860:	00197c18 	.inst	0x00197c18 ; undefined
     864:	24010000 	cmphs	p0.b, p0/z, z0.b, z1.b
     868:	3e0b0b00 	.inst	0x3e0b0b00 ; undefined
     86c:	000e030b 	.inst	0x000e030b ; undefined
     870:	000f0200 	.inst	0x000f0200 ; undefined
     874:	4908210b 	.inst	0x4908210b ; undefined
     878:	03000013 	.inst	0x03000013 ; undefined
     87c:	0e030034 	tbl	v20.8b, {v1.16b}, v3.8b
     880:	3b01213a 	.inst	0x3b01213a ; undefined
     884:	490b390b 	.inst	0x490b390b ; undefined
     888:	00180213 	.inst	0x00180213 ; undefined
     88c:	000d0400 	.inst	0x000d0400 ; undefined
     890:	0b3a0e03 	add	w3, w16, w26, uxtb #3
     894:	0b390b3b 	add	w27, w25, w25, uxtb #2
     898:	0b381349 	add	w9, w26, w24, uxtb #4
     89c:	34050000 	cbz	w0, a89c <bss_size+0xa83b>
     8a0:	3a0e0300 	adcs	w0, w24, w14
     8a4:	390b3b0b 	strb	w11, [x24, #718]
     8a8:	3f13490b 	.inst	0x3f13490b ; undefined
     8ac:	00193c19 	.inst	0x00193c19 ; undefined
     8b0:	00050600 	.inst	0x00050600 ; undefined
     8b4:	00001349 	udf	#4937
     8b8:	03003407 	.inst	0x03003407 ; undefined
     8bc:	01213a08 	.inst	0x01213a08 ; undefined
     8c0:	0b390b3b 	add	w27, w25, w25, uxtb #2
     8c4:	18021349 	ldr	w9, 4b2c <bss_size+0x4acb>
     8c8:	16080000 	b	fffffffff82008c8 <bss_end+0xfffffffff8177b18>
     8cc:	3a0e0300 	adcs	w0, w24, w14
     8d0:	390b3b0b 	strb	w11, [x24, #718]
     8d4:	0013490b 	.inst	0x0013490b ; undefined
     8d8:	002e0900 	.inst	0x002e0900 ; NYI
     8dc:	0e03193f 	uzp1	v31.8b, v9.8b, v3.8b
     8e0:	3b01213a 	.inst	0x3b01213a ; undefined
     8e4:	0621390b 	.inst	0x0621390b ; undefined
     8e8:	07120111 	.inst	0x07120111 ; undefined
     8ec:	197a1840 	.inst	0x197a1840 ; undefined
     8f0:	2e0a0000 	ext	v0.8b, v0.8b, v10.8b, #0
     8f4:	03193f01 	.inst	0x03193f01 ; undefined
     8f8:	3b0b3a0e 	.inst	0x3b0b3a0e ; undefined
     8fc:	0621390b 	.inst	0x0621390b ; undefined
     900:	193c1927 	.inst	0x193c1927 ; undefined
     904:	00001301 	udf	#4865
     908:	3f012e0b 	.inst	0x3f012e0b ; undefined
     90c:	3a0e0319 	adcs	w25, w24, w14
     910:	0b3b0121 	add	w1, w9, w27, uxtb
     914:	49052139 	.inst	0x49052139 ; undefined
     918:	12011113 	and	w19, w8, #0x8000000f
     91c:	7c184007 	stur	h7, [x0, #-124]
     920:	00130119 	.inst	0x00130119 ; undefined
     924:	00050c00 	.inst	0x00050c00 ; undefined
     928:	213a0e03 	.inst	0x213a0e03 ; undefined
     92c:	390b3b01 	strb	w1, [x24, #718]
     930:	0213490b 	.inst	0x0213490b ; undefined
     934:	0d000018 	st1	{v24.b}[0], [x0]
     938:	0e030113 	tbl	v19.8b, {v8.16b}, v3.8b
     93c:	0b3a0b0b 	add	w11, w24, w26, uxtb #2
     940:	21390b3b 	.inst	0x21390b3b ; undefined
     944:	00130110 	.inst	0x00130110 ; undefined
     948:	010b0e00 	.inst	0x010b0e00 ; undefined
     94c:	07120111 	.inst	0x07120111 ; undefined
     950:	2e0f0000 	ext	v0.8b, v0.8b, v15.8b, #0
     954:	03193f00 	.inst	0x03193f00 ; undefined
     958:	01213a0e 	.inst	0x01213a0e ; undefined
     95c:	21390b3b 	.inst	0x21390b3b ; undefined
     960:	12011106 	and	w6, w8, #0x8000000f
     964:	7c184007 	stur	h7, [x0, #-124]
     968:	10000019 	adr	x25, 968 <bss_size+0x907>
     96c:	0e250111 	saddl	v17.8h, v8.8b, v5.8b
     970:	1f030b13 	fmadd	s19, s24, s3, s2
     974:	01111f1b 	.inst	0x01111f1b ; undefined
     978:	17100712 	b	fffffffffc4025c0 <bss_end+0xfffffffffc379810>
     97c:	24110000 	cmphs	p0.b, p0/z, z0.b, z17.b
     980:	3e0b0b00 	.inst	0x3e0b0b00 ; undefined
     984:	0008030b 	.inst	0x0008030b ; undefined
     988:	00151200 	.inst	0x00151200 ; undefined
     98c:	13491927 	.inst	0x13491927 ; undefined
     990:	01130000 	.inst	0x01130000 ; undefined
     994:	01134901 	.inst	0x01134901 ; undefined
     998:	14000013 	b	9e4 <bss_size+0x983>
     99c:	13490021 	.inst	0x13490021 ; undefined
     9a0:	00000b2f 	udf	#2863
     9a4:	49002615 	.inst	0x49002615 ; undefined
     9a8:	16000013 	b	fffffffff80009f4 <bss_end+0xfffffffff7f77c44>
     9ac:	19270115 	.inst	0x19270115 ; undefined
     9b0:	00001301 	udf	#4865
     9b4:	0b000f17 	add	w23, w24, w0, lsl #3
     9b8:	1800000b 	ldr	w11, 9b8 <bss_size+0x957>
     9bc:	13470034 	.inst	0x13470034 ; undefined
     9c0:	0b3b0b3a 	add	w26, w25, w27, uxtb #2
     9c4:	18020b39 	ldr	w25, 4b28 <bss_size+0x4ac7>
     9c8:	34190000 	cbz	w0, 329c8 <bss_size+0x32967>
     9cc:	3a0e0300 	adcs	w0, w24, w14
     9d0:	390b3b0b 	strb	w11, [x24, #718]
     9d4:	3f13490b 	.inst	0x3f13490b ; undefined
     9d8:	00180219 	.inst	0x00180219 ; undefined
     9dc:	012e1a00 	.inst	0x012e1a00 ; undefined
     9e0:	0e03193f 	uzp1	v31.8b, v9.8b, v3.8b
     9e4:	0b3b0b3a 	add	w26, w25, w27, uxtb #2
     9e8:	13490b39 	.inst	0x13490b39 ; undefined
     9ec:	1301193c 	sbfx	w28, w9, #1, #6
     9f0:	181b0000 	ldr	w0, 369f0 <bss_size+0x3698f>
     9f4:	1c000000 	ldr	s0, 9f4 <bss_size+0x993>
     9f8:	193f012e 	.inst	0x193f012e ; undefined
     9fc:	0b3a0e03 	add	w3, w16, w26, uxtb #3
     a00:	0b390b3b 	add	w27, w25, w25, uxtb #2
     a04:	13491927 	.inst	0x13491927 ; undefined
     a08:	1301193c 	sbfx	w28, w9, #1, #6
     a0c:	2e1d0000 	ext	v0.8b, v0.8b, v29.8b, #0
     a10:	03193f00 	.inst	0x03193f00 ; undefined
     a14:	3b0b3a0e 	.inst	0x3b0b3a0e ; undefined
     a18:	490b390b 	.inst	0x490b390b ; undefined
     a1c:	12011113 	and	w19, w8, #0x8000000f
     a20:	7a184007 	.inst	0x7a184007 ; undefined
     a24:	1e000019 	.inst	0x1e000019 ; undefined
     a28:	193f012e 	.inst	0x193f012e ; undefined
     a2c:	0b3a0e03 	add	w3, w16, w26, uxtb #3
     a30:	0b390b3b 	add	w27, w25, w25, uxtb #2
     a34:	01111349 	.inst	0x01111349 ; undefined
     a38:	18400712 	ldr	w18, 80b18 <getBalance+0x78>
     a3c:	1301197a 	sbfx	w26, w11, #1, #6
     a40:	2e1f0000 	ext	v0.8b, v0.8b, v31.8b, #0
     a44:	03193f01 	.inst	0x03193f01 ; undefined
     a48:	3b0b3a0e 	.inst	0x3b0b3a0e ; undefined
     a4c:	110b390b 	add	w11, w8, #0x2ce
     a50:	40071201 	.inst	0x40071201 ; undefined
     a54:	01197a18 	.inst	0x01197a18 ; undefined
     a58:	20000013 	.inst	0x20000013 ; undefined
     a5c:	193f002e 	.inst	0x193f002e ; undefined
     a60:	0b3a0e03 	add	w3, w16, w26, uxtb #3
     a64:	0b390b3b 	add	w27, w25, w25, uxtb #2
     a68:	01111349 	.inst	0x01111349 ; undefined
     a6c:	18400712 	ldr	w18, 80b4c <minimum>
     a70:	0000197c 	udf	#6524
     a74:	3f012e21 	.inst	0x3f012e21 ; undefined
     a78:	3a0e0319 	adcs	w25, w24, w14
     a7c:	390b3b0b 	strb	w11, [x24, #718]
     a80:	4919270b 	.inst	0x4919270b ; undefined
     a84:	12011113 	and	w19, w8, #0x8000000f
     a88:	7c184007 	stur	h7, [x0, #-124]
     a8c:	00130119 	.inst	0x00130119 ; undefined
     a90:	010b2200 	.inst	0x010b2200 ; undefined
     a94:	07120111 	.inst	0x07120111 ; undefined
     a98:	00001301 	udf	#4865
     a9c:	3f012e23 	.inst	0x3f012e23 ; undefined
     aa0:	3a0e0319 	adcs	w25, w24, w14
     aa4:	390b3b0b 	strb	w11, [x24, #718]
     aa8:	4919270b 	.inst	0x4919270b ; undefined
     aac:	12011113 	and	w19, w8, #0x8000000f
     ab0:	7c184007 	stur	h7, [x0, #-124]
     ab4:	00000019 	udf	#25
     ab8:	0b002401 	add	w1, w0, w0, lsl #9
     abc:	030b3e0b 	.inst	0x030b3e0b ; undefined
     ac0:	0200000e 	.inst	0x0200000e ; undefined
     ac4:	193f012e 	.inst	0x193f012e ; undefined
     ac8:	213a0e03 	.inst	0x213a0e03 ; undefined
     acc:	390b3b02 	strb	w2, [x24, #718]
     ad0:	19270621 	.inst	0x19270621 ; undefined
     ad4:	1301193c 	sbfx	w28, w9, #1, #6
     ad8:	05030000 	orr	z0.d, z0.d, #0x100000000
     adc:	00134900 	.inst	0x00134900 ; undefined
     ae0:	00350400 	.inst	0x00350400 ; NYI
     ae4:	00001349 	udf	#4937
     ae8:	0b000f05 	add	w5, w24, w0, lsl #3
     aec:	13490821 	.inst	0x13490821 ; undefined
     af0:	2e060000 	ext	v0.8b, v0.8b, v6.8b, #0
     af4:	03193f01 	.inst	0x03193f01 ; undefined
     af8:	01213a0e 	.inst	0x01213a0e ; undefined
     afc:	21390b3b 	.inst	0x21390b3b ; undefined
     b00:	12011106 	and	w6, w8, #0x8000000f
     b04:	7c184007 	stur	h7, [x0, #-124]
     b08:	00130119 	.inst	0x00130119 ; undefined
     b0c:	00340700 	.inst	0x00340700 ; NYI
     b10:	213a0e03 	.inst	0x213a0e03 ; undefined
     b14:	390b3b01 	strb	w1, [x24, #718]
     b18:	8813490b 	stxr	w19, w11, [x8]
     b1c:	02102101 	.inst	0x02102101 ; undefined
     b20:	08000018 	stxrb	w0, w24, [x0]
     b24:	13490101 	.inst	0x13490101 ; undefined
     b28:	00001301 	udf	#4865
     b2c:	49002109 	.inst	0x49002109 ; undefined
     b30:	000b2f13 	.inst	0x000b2f13 ; undefined
     b34:	01110a00 	.inst	0x01110a00 ; undefined
     b38:	0b130e25 	add	w5, w17, w19, lsl #3
     b3c:	1f1b1f03 	fmadd	s3, s24, s27, s7
     b40:	07120111 	.inst	0x07120111 ; undefined
     b44:	00001710 	udf	#5904
     b48:	4900260b 	.inst	0x4900260b ; undefined
     b4c:	0c000013 	st4	{v19.8b-v22.8b}, [x0]
     b50:	0b0b0024 	add	w4, w1, w11
     b54:	08030b3e 	stxrb	w3, w30, [x25]
     b58:	2e0d0000 	ext	v0.8b, v0.8b, v13.8b, #0
     b5c:	03193f01 	.inst	0x03193f01 ; undefined
     b60:	3b0b3a0e 	.inst	0x3b0b3a0e ; undefined
     b64:	270b390b 	.inst	0x270b390b ; undefined
     b68:	11134919 	add	w25, w8, #0x4d2
     b6c:	40071201 	.inst	0x40071201 ; undefined
     b70:	01197a18 	.inst	0x01197a18 ; undefined
     b74:	0e000013 	tbl	v19.8b, {v0.16b}, v0.8b
     b78:	08030005 	stxrb	w3, w5, [x0]
     b7c:	0b3b0b3a 	add	w26, w25, w27, uxtb #2
     b80:	13490b39 	.inst	0x13490b39 ; undefined
     b84:	00001802 	udf	#6146
     b88:	0300050f 	.inst	0x0300050f ; undefined
     b8c:	3b0b3a0e 	.inst	0x3b0b3a0e ; undefined
     b90:	490b390b 	.inst	0x490b390b ; undefined
     b94:	00180213 	.inst	0x00180213 ; undefined
     b98:	00341000 	.inst	0x00341000 ; NYI
     b9c:	0b3a0803 	add	w3, w0, w26, uxtb #2
     ba0:	0b390b3b 	add	w27, w25, w25, uxtb #2
     ba4:	18021349 	ldr	w9, 4e0c <bss_size+0x4dab>
     ba8:	01000000 	.inst	0x01000000 ; undefined
     bac:	00000018 	udf	#24
     bb0:	0b002402 	add	w2, w0, w0, lsl #9
     bb4:	030b3e0b 	.inst	0x030b3e0b ; undefined
     bb8:	0300000e 	.inst	0x0300000e ; undefined
     bbc:	193f012e 	.inst	0x193f012e ; undefined
     bc0:	0b3a0e03 	add	w3, w16, w26, uxtb #3
     bc4:	0b390b3b 	add	w27, w25, w25, uxtb #2
     bc8:	1301193c 	sbfx	w28, w9, #1, #6
     bcc:	05040000 	.inst	0x05040000 ; undefined
     bd0:	00134900 	.inst	0x00134900 ; undefined
     bd4:	00340500 	.inst	0x00340500 ; NYI
     bd8:	0b3a0e03 	add	w3, w16, w26, uxtb #3
     bdc:	0b390b3b 	add	w27, w25, w25, uxtb #2
     be0:	193f1349 	.inst	0x193f1349 ; undefined
     be4:	0000193c 	udf	#6460
     be8:	3f012e06 	.inst	0x3f012e06 ; undefined
     bec:	3a0e0319 	adcs	w25, w24, w14
     bf0:	390b3b0b 	strb	w11, [x24, #718]
     bf4:	13490721 	.inst	0x13490721 ; undefined
     bf8:	1301193c 	sbfx	w28, w9, #1, #6
     bfc:	2e070000 	ext	v0.8b, v0.8b, v7.8b, #0
     c00:	03193f01 	.inst	0x03193f01 ; undefined
     c04:	3b0b3a0e 	.inst	0x3b0b3a0e ; undefined
     c08:	0621390b 	.inst	0x0621390b ; undefined
     c0c:	193c1927 	.inst	0x193c1927 ; undefined
     c10:	00001301 	udf	#4865
     c14:	0b000f08 	add	w8, w24, w0, lsl #3
     c18:	13490821 	.inst	0x13490821 ; undefined
     c1c:	11090000 	add	w0, w0, #0x240
     c20:	130e2501 	sbfiz	w1, w8, #18, #10
     c24:	1b1f030b 	madd	w11, w24, wzr, w0
     c28:	1201111f 	and	wsp, w8, #0x8000000f
     c2c:	00171007 	.inst	0x00171007 ; undefined
     c30:	00240a00 	.inst	0x00240a00 ; NYI
     c34:	0b3e0b0b 	add	w11, w24, w30, uxtb #2
     c38:	00000803 	udf	#2051
     c3c:	0b000f0b 	add	w11, w24, w0, lsl #3
     c40:	0c00000b 	st4	{v11.8b-v14.8b}, [x0]
     c44:	19270115 	.inst	0x19270115 ; undefined
     c48:	00001301 	udf	#4865
     c4c:	3f012e0d 	.inst	0x3f012e0d ; undefined
     c50:	3a0e0319 	adcs	w25, w24, w14
     c54:	390b3b0b 	strb	w11, [x24, #718]
     c58:	1119270b 	add	w11, w24, #0x649
     c5c:	40071201 	.inst	0x40071201 ; undefined
     c60:	00197c18 	.inst	0x00197c18 ; undefined
     c64:	00050e00 	.inst	0x00050e00 ; undefined
     c68:	0b3a0e03 	add	w3, w16, w26, uxtb #3
     c6c:	0b390b3b 	add	w27, w25, w25, uxtb #2
     c70:	18021349 	ldr	w9, 4ed8 <bss_size+0x4e77>
     c74:	01000000 	.inst	0x01000000 ; undefined
     c78:	0e030034 	tbl	v20.8b, {v1.16b}, v3.8b
     c7c:	3b01213a 	.inst	0x3b01213a ; undefined
     c80:	490b390b 	.inst	0x490b390b ; undefined
     c84:	00180213 	.inst	0x00180213 ; undefined
     c88:	00050200 	.inst	0x00050200 ; undefined
     c8c:	213a0e03 	.inst	0x213a0e03 ; undefined
     c90:	390b3b01 	strb	w1, [x24, #718]
     c94:	0213490b 	.inst	0x0213490b ; undefined
     c98:	03000018 	.inst	0x03000018 ; undefined
     c9c:	0111010b 	.inst	0x0111010b ; undefined
     ca0:	00000712 	udf	#1810
     ca4:	03000504 	.inst	0x03000504 ; undefined
     ca8:	01213a0e 	.inst	0x01213a0e ; undefined
     cac:	0b39053b 	add	w27, w9, w25, uxtb #1
     cb0:	18021349 	ldr	w9, 4f18 <bss_size+0x4eb7>
     cb4:	0d050000 	.inst	0x0d050000 ; undefined
     cb8:	3a0e0300 	adcs	w0, w24, w14
     cbc:	0b3b0221 	add	w1, w17, w27, uxtb
     cc0:	13490b39 	.inst	0x13490b39 ; undefined
     cc4:	00000b38 	udf	#2872
     cc8:	03003406 	.inst	0x03003406 ; undefined
     ccc:	01213a0e 	.inst	0x01213a0e ; undefined
     cd0:	0b39053b 	add	w27, w9, w25, uxtb #1
     cd4:	18021349 	ldr	w9, 4f3c <bss_size+0x4edb>
     cd8:	34070000 	cbz	w0, ecd8 <bss_size+0xec77>
     cdc:	3a080300 	adcs	w0, w24, w8
     ce0:	053b0121 	ext	z1.b, z1.b, z9.b, #216
     ce4:	13490b39 	.inst	0x13490b39 ; undefined
     ce8:	00001802 	udf	#6146
     cec:	03003408 	.inst	0x03003408 ; undefined
     cf0:	01213a08 	.inst	0x01213a08 ; undefined
     cf4:	0b390b3b 	add	w27, w25, w25, uxtb #2
     cf8:	18021349 	ldr	w9, 4f60 <bss_size+0x4eff>
     cfc:	0f090000 	.inst	0x0f090000 ; undefined
     d00:	08210b00 	.inst	0x08210b00 ; undefined
     d04:	00001349 	udf	#4937
     d08:	0b00240a 	add	w10, w0, w0, lsl #9
     d0c:	030b3e0b 	.inst	0x030b3e0b ; undefined
     d10:	0b00000e 	add	w14, w0, w0
     d14:	193f012e 	.inst	0x193f012e ; undefined
     d18:	213a0e03 	.inst	0x213a0e03 ; undefined
     d1c:	39053b01 	strb	w1, [x24, #334]
     d20:	4919270b 	.inst	0x4919270b ; undefined
     d24:	12011113 	and	w19, w8, #0x8000000f
     d28:	7c184007 	stur	h7, [x0, #-124]
     d2c:	00130119 	.inst	0x00130119 ; undefined
     d30:	012e0c00 	.inst	0x012e0c00 ; undefined
     d34:	0e03193f 	uzp1	v31.8b, v9.8b, v3.8b
     d38:	3b01213a 	.inst	0x3b01213a ; undefined
     d3c:	0621390b 	.inst	0x0621390b ; undefined
     d40:	01111927 	.inst	0x01111927 ; undefined
     d44:	18400712 	ldr	w18, 80e24 <insert+0x298>
     d48:	1301197c 	sbfx	w28, w11, #1, #6
     d4c:	130d0000 	sbfiz	w0, w0, #19, #1
     d50:	0b0e0301 	add	w1, w24, w14
     d54:	02213a0b 	.inst	0x02213a0b ; undefined
     d58:	21390b3b 	.inst	0x21390b3b ; undefined
     d5c:	00130110 	.inst	0x00130110 ; undefined
     d60:	00160e00 	.inst	0x00160e00 ; undefined
     d64:	213a0e03 	.inst	0x213a0e03 ; undefined
     d68:	390b3b02 	strb	w2, [x24, #718]
     d6c:	0013490b 	.inst	0x0013490b ; undefined
     d70:	00050f00 	.inst	0x00050f00 ; undefined
     d74:	00001349 	udf	#4937
     d78:	11010b10 	add	w16, w24, #0x42
     d7c:	01071201 	.inst	0x01071201 ; undefined
     d80:	11000013 	add	w19, w0, #0x0
     d84:	193f012e 	.inst	0x193f012e ; undefined
     d88:	213a0e03 	.inst	0x213a0e03 ; undefined
     d8c:	390b3b01 	strb	w1, [x24, #718]
     d90:	4919270b 	.inst	0x4919270b ; undefined
     d94:	12011113 	and	w19, w8, #0x8000000f
     d98:	7c184007 	stur	h7, [x0, #-124]
     d9c:	00130119 	.inst	0x00130119 ; undefined
     da0:	01011200 	.inst	0x01011200 ; undefined
     da4:	13011349 	sbfx	w9, w26, #1, #4
     da8:	21130000 	.inst	0x21130000 ; undefined
     dac:	2f134900 	.inst	0x2f134900 ; undefined
     db0:	1400000b 	b	ddc <bss_size+0xd7b>
     db4:	193f012e 	.inst	0x193f012e ; undefined
     db8:	213a0e03 	.inst	0x213a0e03 ; undefined
     dbc:	390b3b03 	strb	w3, [x24, #718]
     dc0:	19270621 	.inst	0x19270621 ; undefined
     dc4:	1301193c 	sbfx	w28, w9, #1, #6
     dc8:	2e150000 	ext	v0.8b, v0.8b, v21.8b, #0
     dcc:	03193f01 	.inst	0x03193f01 ; undefined
     dd0:	01213a0e 	.inst	0x01213a0e ; undefined
     dd4:	2139053b 	.inst	0x2139053b ; undefined
     dd8:	11192706 	add	w6, w24, #0x649
     ddc:	40071201 	.inst	0x40071201 ; undefined
     de0:	01197c18 	.inst	0x01197c18 ; undefined
     de4:	16000013 	b	fffffffff8000e30 <bss_end+0xfffffffff7f78080>
     de8:	193f012e 	.inst	0x193f012e ; undefined
     dec:	213a0e03 	.inst	0x213a0e03 ; undefined
     df0:	39053b01 	strb	w1, [x24, #334]
     df4:	4919270b 	.inst	0x4919270b ; undefined
     df8:	12011113 	and	w19, w8, #0x8000000f
     dfc:	7a184007 	.inst	0x7a184007 ; undefined
     e00:	00130119 	.inst	0x00130119 ; undefined
     e04:	012e1700 	.inst	0x012e1700 ; undefined
     e08:	0e03193f 	uzp1	v31.8b, v9.8b, v3.8b
     e0c:	3b01213a 	.inst	0x3b01213a ; undefined
     e10:	0621390b 	.inst	0x0621390b ; undefined
     e14:	01111927 	.inst	0x01111927 ; undefined
     e18:	18400712 	ldr	w18, 80ef8 <insert+0x36c>
     e1c:	1301197a 	sbfx	w26, w11, #1, #6
     e20:	11180000 	add	w0, w0, #0x600
     e24:	130e2501 	sbfiz	w1, w8, #18, #10
     e28:	1b1f030b 	madd	w11, w24, wzr, w0
     e2c:	1201111f 	and	wsp, w8, #0x8000000f
     e30:	00171007 	.inst	0x00171007 ; undefined
     e34:	00261900 	.inst	0x00261900 ; NYI
     e38:	00001349 	udf	#4937
     e3c:	0b00241a 	add	w26, w0, w0, lsl #9
     e40:	030b3e0b 	.inst	0x030b3e0b ; undefined
     e44:	1b000008 	madd	w8, w0, w0, w0
     e48:	0b0b000f 	add	w15, w0, w11
     e4c:	2e1c0000 	ext	v0.8b, v0.8b, v28.8b, #0
     e50:	03193f01 	.inst	0x03193f01 ; undefined
     e54:	3b0b3a0e 	.inst	0x3b0b3a0e ; undefined
     e58:	270b390b 	.inst	0x270b390b ; undefined
     e5c:	3c134919 	.inst	0x3c134919 ; undefined
     e60:	00130119 	.inst	0x00130119 ; undefined
     e64:	012e1d00 	.inst	0x012e1d00 ; undefined
     e68:	0e03193f 	uzp1	v31.8b, v9.8b, v3.8b
     e6c:	053b0b3a 	ext	z26.b, z26.b, z25.b, #218
     e70:	01110b39 	.inst	0x01110b39 ; undefined
     e74:	18400712 	ldr	w18, 80f54 <delete+0x48>
     e78:	1301197c 	sbfx	w28, w11, #1, #6
     e7c:	2e1e0000 	ext	v0.8b, v0.8b, v30.8b, #0
     e80:	03193f01 	.inst	0x03193f01 ; undefined
     e84:	3b0b3a0e 	.inst	0x3b0b3a0e ; undefined
     e88:	270b3905 	.inst	0x270b3905 ; undefined
     e8c:	12011119 	and	w25, w8, #0x8000000f
     e90:	7a184007 	.inst	0x7a184007 ; undefined
     e94:	00130119 	.inst	0x00130119 ; undefined
     e98:	00051f00 	.inst	0x00051f00 ; undefined
     e9c:	0b3a0803 	add	w3, w0, w26, uxtb #2
     ea0:	0b39053b 	add	w27, w9, w25, uxtb #1
     ea4:	18021349 	ldr	w9, 510c <bss_size+0x50ab>
     ea8:	05200000 	ext	z0.b, z0.b, z0.b, #0
     eac:	3a080300 	adcs	w0, w24, w8
     eb0:	390b3b0b 	strb	w11, [x24, #718]
     eb4:	0213490b 	.inst	0x0213490b ; undefined
     eb8:	21000018 	.inst	0x21000018 ; undefined
     ebc:	193f012e 	.inst	0x193f012e ; undefined
     ec0:	0b3a0e03 	add	w3, w16, w26, uxtb #3
     ec4:	0b390b3b 	add	w27, w25, w25, uxtb #2
     ec8:	07120111 	.inst	0x07120111 ; undefined
     ecc:	197c1840 	.inst	0x197c1840 ; undefined
     ed0:	00001301 	udf	#4865
     ed4:	3f012e22 	.inst	0x3f012e22 ; undefined
     ed8:	3a0e0319 	adcs	w25, w24, w14
     edc:	390b3b0b 	strb	w11, [x24, #718]
     ee0:	1119270b 	add	w11, w24, #0x649
     ee4:	40071201 	.inst	0x40071201 ; undefined
     ee8:	00197a18 	.inst	0x00197a18 ; undefined
     eec:	34010000 	cbz	w0, 2eec <bss_size+0x2e8b>
     ef0:	3a080300 	adcs	w0, w24, w8
     ef4:	0b3b0121 	add	w1, w9, w27, uxtb
     ef8:	13490b39 	.inst	0x13490b39 ; undefined
     efc:	00001802 	udf	#6146
     f00:	03000502 	.inst	0x03000502 ; undefined
     f04:	01213a08 	.inst	0x01213a08 ; undefined
     f08:	0b390b3b 	add	w27, w25, w25, uxtb #2
     f0c:	18021349 	ldr	w9, 5174 <bss_size+0x5113>
     f10:	24030000 	cmphs	p0.b, p0/z, z0.b, z3.b
     f14:	3e0b0b00 	.inst	0x3e0b0b00 ; undefined
     f18:	000e030b 	.inst	0x000e030b ; undefined
     f1c:	00340400 	.inst	0x00340400 ; NYI
     f20:	213a0e03 	.inst	0x213a0e03 ; undefined
     f24:	390b3b02 	strb	w2, [x24, #718]
     f28:	3f13490b 	.inst	0x3f13490b ; undefined
     f2c:	00193c19 	.inst	0x00193c19 ; undefined
     f30:	00340500 	.inst	0x00340500 ; NYI
     f34:	213a1347 	.inst	0x213a1347 ; undefined
     f38:	390b3b01 	strb	w1, [x24, #718]
     f3c:	0018020b 	.inst	0x0018020b ; undefined
     f40:	012e0600 	.inst	0x012e0600 ; undefined
     f44:	0e03193f 	uzp1	v31.8b, v9.8b, v3.8b
     f48:	3b01213a 	.inst	0x3b01213a ; undefined
     f4c:	0621390b 	.inst	0x0621390b ; undefined
     f50:	01111927 	.inst	0x01111927 ; undefined
     f54:	18400712 	ldr	w18, 81034 <delete+0x128>
     f58:	1301197c 	sbfx	w28, w11, #1, #6
     f5c:	34070000 	cbz	w0, ef5c <bss_size+0xeefb>
     f60:	3a0e0300 	adcs	w0, w24, w14
     f64:	0b3b0121 	add	w1, w9, w27, uxtb
     f68:	13490b39 	.inst	0x13490b39 ; undefined
     f6c:	00001802 	udf	#6146
     f70:	3f012e08 	.inst	0x3f012e08 ; undefined
     f74:	3a0e0319 	adcs	w25, w24, w14
     f78:	0b3b0421 	add	w1, w1, w27, uxtb #1
     f7c:	27052139 	.inst	0x27052139 ; undefined
     f80:	3c134919 	.inst	0x3c134919 ; undefined
     f84:	00130119 	.inst	0x00130119 ; undefined
     f88:	00050900 	.inst	0x00050900 ; undefined
     f8c:	00001349 	udf	#4937
     f90:	3f012e0a 	.inst	0x3f012e0a ; undefined
     f94:	3a0e0319 	adcs	w25, w24, w14
     f98:	0b3b0121 	add	w1, w9, w27, uxtb
     f9c:	27062139 	.inst	0x27062139 ; undefined
     fa0:	12011119 	and	w25, w8, #0x8000000f
     fa4:	7a184007 	.inst	0x7a184007 ; undefined
     fa8:	00130119 	.inst	0x00130119 ; undefined
     fac:	01010b00 	.inst	0x01010b00 ; undefined
     fb0:	13011349 	sbfx	w9, w26, #1, #4
     fb4:	210c0000 	.inst	0x210c0000 ; undefined
     fb8:	2f134900 	.inst	0x2f134900 ; undefined
     fbc:	0d00000b 	st1	{v11.b}[0], [x0]
     fc0:	193f012e 	.inst	0x193f012e ; undefined
     fc4:	213a0e03 	.inst	0x213a0e03 ; undefined
     fc8:	390b3b03 	strb	w3, [x24, #718]
     fcc:	193c0621 	.inst	0x193c0621 ; undefined
     fd0:	00001301 	udf	#4865
     fd4:	0000180e 	udf	#6158
     fd8:	000f0f00 	.inst	0x000f0f00 ; undefined
     fdc:	4908210b 	.inst	0x4908210b ; undefined
     fe0:	10000013 	adr	x19, fe0 <bss_size+0xf7f>
     fe4:	193f012e 	.inst	0x193f012e ; undefined
     fe8:	213a0e03 	.inst	0x213a0e03 ; undefined
     fec:	390b3b01 	strb	w1, [x24, #718]
     ff0:	01110621 	.inst	0x01110621 ; undefined
     ff4:	18400712 	ldr	w18, 810d4 <delete+0x1c8>
     ff8:	1301197c 	sbfx	w28, w11, #1, #6
     ffc:	0b110000 	add	w0, w0, w17
    1000:	12011101 	and	w1, w8, #0x8000000f
    1004:	12000007 	and	w7, w0, #0x1
    1008:	193f012e 	.inst	0x193f012e ; undefined
    100c:	213a0e03 	.inst	0x213a0e03 ; undefined
    1010:	390b3b01 	strb	w1, [x24, #718]
    1014:	13490621 	.inst	0x13490621 ; undefined
    1018:	07120111 	.inst	0x07120111 ; undefined
    101c:	197a1840 	.inst	0x197a1840 ; undefined
    1020:	00001301 	udf	#4865
    1024:	25011113 	cmpgt	p3.b, p4/z, z8.b, #1
    1028:	030b130e 	.inst	0x030b130e ; undefined
    102c:	111f1b1f 	add	wsp, w24, #0x7c6
    1030:	10071201 	adr	x1, f270 <bss_size+0xf20f>
    1034:	14000017 	b	1090 <bss_size+0x102f>
    1038:	13490026 	.inst	0x13490026 ; undefined
    103c:	24150000 	cmphs	p0.b, p0/z, z0.b, z21.b
    1040:	3e0b0b00 	.inst	0x3e0b0b00 ; undefined
    1044:	0008030b 	.inst	0x0008030b ; undefined
    1048:	012e1600 	.inst	0x012e1600 ; undefined
    104c:	0e03193f 	uzp1	v31.8b, v9.8b, v3.8b
    1050:	0b3b0b3a 	add	w26, w25, w27, uxtb #2
    1054:	19270b39 	.inst	0x19270b39 ; undefined
    1058:	07120111 	.inst	0x07120111 ; undefined
    105c:	197a1840 	.inst	0x197a1840 ; undefined
    1060:	05170000 	mov	z0.b, p7/z, #0
    1064:	3a0e0300 	adcs	w0, w24, w14
    1068:	390b3b0b 	strb	w11, [x24, #718]
    106c:	0213490b 	.inst	0x0213490b ; undefined
    1070:	00000018 	udf	#24
    1074:	0b002401 	add	w1, w0, w0, lsl #9
    1078:	030b3e0b 	.inst	0x030b3e0b ; undefined
    107c:	0200000e 	.inst	0x0200000e ; undefined
    1080:	13490005 	.inst	0x13490005 ; undefined
    1084:	0f030000 	.inst	0x0f030000 ; undefined
    1088:	08210b00 	.inst	0x08210b00 ; undefined
    108c:	00001349 	udf	#4937
    1090:	03003404 	.inst	0x03003404 ; undefined
    1094:	01213a0e 	.inst	0x01213a0e ; undefined
    1098:	0b390b3b 	add	w27, w25, w25, uxtb #2
    109c:	18021349 	ldr	w9, 5304 <bss_size+0x52a3>
    10a0:	0d050000 	.inst	0x0d050000 ; undefined
    10a4:	3a0e0300 	adcs	w0, w24, w14
    10a8:	0b3b0221 	add	w1, w17, w27, uxtb
    10ac:	13490b39 	.inst	0x13490b39 ; undefined
    10b0:	00000b38 	udf	#2872
    10b4:	3f012e06 	.inst	0x3f012e06 ; undefined
    10b8:	3a0e0319 	adcs	w25, w24, w14
    10bc:	0b3b0321 	add	w1, w25, w27, uxtb
    10c0:	19270b39 	.inst	0x19270b39 ; undefined
    10c4:	193c1349 	.inst	0x193c1349 ; undefined
    10c8:	00001301 	udf	#4865
    10cc:	49010107 	.inst	0x49010107 ; undefined
    10d0:	00130113 	.inst	0x00130113 ; undefined
    10d4:	00210800 	.inst	0x00210800 ; NYI
    10d8:	0b2f1349 	add	w9, w26, w15, uxtb #4
    10dc:	2e090000 	ext	v0.8b, v0.8b, v9.8b, #0
    10e0:	03193f01 	.inst	0x03193f01 ; undefined
    10e4:	3b0b3a0e 	.inst	0x3b0b3a0e ; undefined
    10e8:	0621390b 	.inst	0x0621390b ; undefined
    10ec:	193c1927 	.inst	0x193c1927 ; undefined
    10f0:	00001301 	udf	#4865
    10f4:	0300050a 	.inst	0x0300050a ; undefined
    10f8:	01213a0e 	.inst	0x01213a0e ; undefined
    10fc:	3920213b 	strb	w27, [x9, #2056]
    1100:	0213490b 	.inst	0x0213490b ; undefined
    1104:	0b000018 	add	w24, w0, w0
    1108:	0111010b 	.inst	0x0111010b ; undefined
    110c:	00000712 	udf	#1810
    1110:	2501110c 	cmpge	p12.b, p4/z, z8.b, #1
    1114:	030b130e 	.inst	0x030b130e ; undefined
    1118:	111f1b1f 	add	wsp, w24, #0x7c6
    111c:	10071201 	adr	x1, f35c <bss_size+0xf2fb>
    1120:	0d000017 	st1	{v23.b}[0], [x0]
    1124:	13490026 	.inst	0x13490026 ; undefined
    1128:	240e0000 	cmphs	p0.b, p0/z, z0.b, z14.b
    112c:	3e0b0b00 	.inst	0x3e0b0b00 ; undefined
    1130:	0008030b 	.inst	0x0008030b ; undefined
    1134:	01130f00 	.inst	0x01130f00 ; undefined
    1138:	0b3a0b0b 	add	w11, w24, w26, uxtb #2
    113c:	0b390b3b 	add	w27, w25, w25, uxtb #2
    1140:	00001301 	udf	#4865
    1144:	27011510 	.inst	0x27011510 ; undefined
    1148:	01134919 	.inst	0x01134919 ; undefined
    114c:	11000013 	add	w19, w0, #0x0
    1150:	0b0b000f 	add	w15, w0, w11
    1154:	16120000 	b	fffffffff8481154 <bss_end+0xfffffffff83f83a4>
    1158:	3a0e0300 	adcs	w0, w24, w14
    115c:	390b3b0b 	strb	w11, [x24, #718]
    1160:	0013490b 	.inst	0x0013490b ; undefined
    1164:	00211300 	.inst	0x00211300 ; NYI
    1168:	34140000 	cbz	w0, 29168 <bss_size+0x29107>
    116c:	3a0e0300 	adcs	w0, w24, w14
    1170:	390b3b0b 	strb	w11, [x24, #718]
    1174:	3f13490b 	.inst	0x3f13490b ; undefined
    1178:	00193c19 	.inst	0x00193c19 ; undefined
    117c:	012e1500 	.inst	0x012e1500 ; undefined
    1180:	0e03193f 	uzp1	v31.8b, v9.8b, v3.8b
    1184:	0b3b0b3a 	add	w26, w25, w27, uxtb #2
    1188:	19270b39 	.inst	0x19270b39 ; undefined
    118c:	07120111 	.inst	0x07120111 ; undefined
    1190:	197c1840 	.inst	0x197c1840 ; undefined
    1194:	00001301 	udf	#4865
    1198:	03003416 	.inst	0x03003416 ; undefined
    119c:	3b0b3a08 	.inst	0x3b0b3a08 ; undefined
    11a0:	490b390b 	.inst	0x490b390b ; undefined
    11a4:	00180213 	.inst	0x00180213 ; undefined
    11a8:	012e1700 	.inst	0x012e1700 ; undefined
    11ac:	0e03193f 	uzp1	v31.8b, v9.8b, v3.8b
    11b0:	0b3b0b3a 	add	w26, w25, w27, uxtb #2
    11b4:	01110b39 	.inst	0x01110b39 ; undefined
    11b8:	18400712 	ldr	w18, 81298 <delete+0x38c>
    11bc:	1301197c 	sbfx	w28, w11, #1, #6
    11c0:	01180000 	.inst	0x01180000 ; undefined
    11c4:	00134901 	.inst	0x00134901 ; undefined
    11c8:	11010000 	add	w0, w0, #0x40
    11cc:	130e2501 	sbfiz	w1, w8, #18, #10
    11d0:	1b1f030b 	madd	w11, w24, wzr, w0
    11d4:	0017101f 	.inst	0x0017101f ; undefined
    11d8:	00240200 	.inst	0x00240200 ; NYI
    11dc:	0b3e0b0b 	add	w11, w24, w30, uxtb #2
    11e0:	00000e03 	udf	#3587
    11e4:	0b002403 	add	w3, w0, w0, lsl #9
    11e8:	030b3e0b 	.inst	0x030b3e0b ; undefined
    11ec:	00000008 	udf	#8
    11f0:	03003401 	.inst	0x03003401 ; undefined
    11f4:	01213a08 	.inst	0x01213a08 ; undefined
    11f8:	0b390b3b 	add	w27, w25, w25, uxtb #2
    11fc:	18021349 	ldr	w9, 5464 <bss_size+0x5403>
    1200:	05020000 	orr	z0.d, z0.d, #0x1
    1204:	3a080300 	adcs	w0, w24, w8
    1208:	0b3b0121 	add	w1, w9, w27, uxtb
    120c:	13490b39 	.inst	0x13490b39 ; undefined
    1210:	00001802 	udf	#6146
    1214:	0b002403 	add	w3, w0, w0, lsl #9
    1218:	030b3e0b 	.inst	0x030b3e0b ; undefined
    121c:	0400000e 	add	z14.b, p0/m, z14.b, z0.b
    1220:	193f012e 	.inst	0x193f012e ; undefined
    1224:	213a0e03 	.inst	0x213a0e03 ; undefined
    1228:	390b3b01 	strb	w1, [x24, #718]
    122c:	4919270b 	.inst	0x4919270b ; undefined
    1230:	12011113 	and	w19, w8, #0x8000000f
    1234:	7a184007 	.inst	0x7a184007 ; undefined
    1238:	00130119 	.inst	0x00130119 ; undefined
    123c:	00050500 	.inst	0x00050500 ; undefined
    1240:	213a0e03 	.inst	0x213a0e03 ; undefined
    1244:	390b3b01 	strb	w1, [x24, #718]
    1248:	0213490b 	.inst	0x0213490b ; undefined
    124c:	06000018 	.inst	0x06000018 ; undefined
    1250:	210b000f 	.inst	0x210b000f ; undefined
    1254:	00134908 	.inst	0x00134908 ; undefined
    1258:	010b0700 	.inst	0x010b0700 ; undefined
    125c:	07120111 	.inst	0x07120111 ; undefined
    1260:	34080000 	cbz	w0, 11260 <bss_size+0x111ff>
    1264:	3a0e0300 	adcs	w0, w24, w14
    1268:	0b3b0121 	add	w1, w9, w27, uxtb
    126c:	13490b39 	.inst	0x13490b39 ; undefined
    1270:	00001802 	udf	#6146
    1274:	49002609 	.inst	0x49002609 ; undefined
    1278:	0a000013 	and	w19, w0, w0
    127c:	13490005 	.inst	0x13490005 ; undefined
    1280:	2e0b0000 	ext	v0.8b, v0.8b, v11.8b, #0
    1284:	03193f01 	.inst	0x03193f01 ; undefined
    1288:	01213a0e 	.inst	0x01213a0e ; undefined
    128c:	0b390b3b 	add	w27, w25, w25, uxtb #2
    1290:	13491927 	.inst	0x13491927 ; undefined
    1294:	07120111 	.inst	0x07120111 ; undefined
    1298:	197c1840 	.inst	0x197c1840 ; undefined
    129c:	00001301 	udf	#4865
    12a0:	2501110c 	cmpge	p12.b, p4/z, z8.b, #1
    12a4:	030b130e 	.inst	0x030b130e ; undefined
    12a8:	111f1b1f 	add	wsp, w24, #0x7c6
    12ac:	10071201 	adr	x1, f4ec <bss_size+0xf48b>
    12b0:	0d000017 	st1	{v23.b}[0], [x0]
    12b4:	0b0b0024 	add	w4, w1, w11
    12b8:	08030b3e 	stxrb	w3, w30, [x25]
    12bc:	160e0000 	b	fffffffff83812bc <bss_end+0xfffffffff82f850c>
    12c0:	3a0e0300 	adcs	w0, w24, w14
    12c4:	390b3b0b 	strb	w11, [x24, #718]
    12c8:	0013490b 	.inst	0x0013490b ; undefined
    12cc:	000f0f00 	.inst	0x000f0f00 ; undefined
    12d0:	00000b0b 	udf	#2827
    12d4:	3f012e10 	.inst	0x3f012e10 ; undefined
    12d8:	3a0e0319 	adcs	w25, w24, w14
    12dc:	390b3b0b 	strb	w11, [x24, #718]
    12e0:	3c19270b 	str	b11, [x24], #-110
    12e4:	00130119 	.inst	0x00130119 ; undefined
    12e8:	012e1100 	.inst	0x012e1100 ; undefined
    12ec:	0e03193f 	uzp1	v31.8b, v9.8b, v3.8b
    12f0:	0b3b0b3a 	add	w26, w25, w27, uxtb #2
    12f4:	13490b39 	.inst	0x13490b39 ; undefined
    12f8:	1301193c 	sbfx	w28, w9, #1, #6
    12fc:	18120000 	ldr	w0, 252fc <bss_size+0x2529b>
    1300:	13000000 	sbfx	w0, w0, #0, #1
    1304:	193f012e 	.inst	0x193f012e ; undefined
    1308:	0b3a0e03 	add	w3, w16, w26, uxtb #3
    130c:	0b390b3b 	add	w27, w25, w25, uxtb #2
    1310:	13491927 	.inst	0x13491927 ; undefined
    1314:	1301193c 	sbfx	w28, w9, #1, #6
    1318:	2e140000 	ext	v0.8b, v0.8b, v20.8b, #0
    131c:	03193f01 	.inst	0x03193f01 ; undefined
    1320:	3b0b3a0e 	.inst	0x3b0b3a0e ; undefined
    1324:	270b390b 	.inst	0x270b390b ; undefined
    1328:	12011119 	and	w25, w8, #0x8000000f
    132c:	7a184007 	.inst	0x7a184007 ; undefined
    1330:	00130119 	.inst	0x00130119 ; undefined
    1334:	00261500 	.inst	0x00261500 ; NYI
    1338:	2e160000 	ext	v0.8b, v0.8b, v22.8b, #0
    133c:	03193f01 	.inst	0x03193f01 ; undefined
    1340:	3b0b3a0e 	.inst	0x3b0b3a0e ; undefined
    1344:	270b390b 	.inst	0x270b390b ; undefined
    1348:	11134919 	add	w25, w8, #0x4d2
    134c:	40071201 	.inst	0x40071201 ; undefined
    1350:	00197a18 	.inst	0x00197a18 ; undefined
    1354:	34010000 	cbz	w0, 3354 <bss_size+0x32f3>
    1358:	3a080300 	adcs	w0, w24, w8
    135c:	0b3b0121 	add	w1, w9, w27, uxtb
    1360:	13490b39 	.inst	0x13490b39 ; undefined
    1364:	00001802 	udf	#6146
    1368:	03000d02 	.inst	0x03000d02 ; undefined
    136c:	3b0b3a08 	.inst	0x3b0b3a08 ; undefined
    1370:	490b390b 	.inst	0x490b390b ; undefined
    1374:	000b3813 	.inst	0x000b3813 ; undefined
    1378:	00240300 	.inst	0x00240300 ; NYI
    137c:	0b3e0b0b 	add	w11, w24, w30, uxtb #2
    1380:	00000e03 	udf	#3587
    1384:	49000504 	.inst	0x49000504 ; undefined
    1388:	05000013 	orr	z19.s, z19.s, #0x1
    138c:	210b000f 	.inst	0x210b000f ; undefined
    1390:	00134908 	.inst	0x00134908 ; undefined
    1394:	000d0600 	.inst	0x000d0600 ; undefined
    1398:	0b3a0e03 	add	w3, w16, w26, uxtb #3
    139c:	0b390b3b 	add	w27, w25, w25, uxtb #2
    13a0:	0b381349 	add	w9, w26, w24, uxtb #4
    13a4:	34070000 	cbz	w0, f3a4 <bss_size+0xf343>
    13a8:	3a0e0300 	adcs	w0, w24, w14
    13ac:	0b3b0121 	add	w1, w9, w27, uxtb
    13b0:	13490b39 	.inst	0x13490b39 ; undefined
    13b4:	00001802 	udf	#6146
    13b8:	03000508 	.inst	0x03000508 ; undefined
    13bc:	01213a0e 	.inst	0x01213a0e ; undefined
    13c0:	0b390b3b 	add	w27, w25, w25, uxtb #2
    13c4:	18021349 	ldr	w9, 562c <bss_size+0x55cb>
    13c8:	18090000 	ldr	w0, 133c8 <bss_size+0x13367>
    13cc:	0a000000 	and	w0, w0, w0
    13d0:	08030005 	stxrb	w3, w5, [x0]
    13d4:	3b01213a 	.inst	0x3b01213a ; undefined
    13d8:	490b390b 	.inst	0x490b390b ; undefined
    13dc:	00180213 	.inst	0x00180213 ; undefined
    13e0:	012e0b00 	.inst	0x012e0b00 ; undefined
    13e4:	0e03193f 	uzp1	v31.8b, v9.8b, v3.8b
    13e8:	0b3b0b3a 	add	w26, w25, w27, uxtb #2
    13ec:	19270b39 	.inst	0x19270b39 ; undefined
    13f0:	193c1349 	.inst	0x193c1349 ; undefined
    13f4:	00001301 	udf	#4865
    13f8:	3f012e0c 	.inst	0x3f012e0c ; undefined
    13fc:	3a0e0319 	adcs	w25, w24, w14
    1400:	0b3b0121 	add	w1, w9, w27, uxtb
    1404:	19270b39 	.inst	0x19270b39 ; undefined
    1408:	01111349 	.inst	0x01111349 ; undefined
    140c:	18400712 	ldr	w18, 814ec <reboot+0xc>
    1410:	1301197c 	sbfx	w28, w11, #1, #6
    1414:	160d0000 	b	fffffffff8341414 <bss_end+0xfffffffff82b8664>
    1418:	3a0e0300 	adcs	w0, w24, w14
    141c:	390b3b0b 	strb	w11, [x24, #718]
    1420:	0013490b 	.inst	0x0013490b ; undefined
    1424:	012e0e00 	.inst	0x012e0e00 ; undefined
    1428:	0e03193f 	uzp1	v31.8b, v9.8b, v3.8b
    142c:	3b05213a 	.inst	0x3b05213a ; undefined
    1430:	0621390b 	.inst	0x0621390b ; undefined
    1434:	193c1927 	.inst	0x193c1927 ; undefined
    1438:	00001301 	udf	#4865
    143c:	11010b0f 	add	w15, w24, #0x42
    1440:	00071201 	.inst	0x00071201 ; undefined
    1444:	012e1000 	.inst	0x012e1000 ; undefined
    1448:	0e03193f 	uzp1	v31.8b, v9.8b, v3.8b
    144c:	0b3b0b3a 	add	w26, w25, w27, uxtb #2
    1450:	3c062139 	stur	b25, [x9, #98]
    1454:	00130119 	.inst	0x00130119 ; undefined
    1458:	012e1100 	.inst	0x012e1100 ; undefined
    145c:	0e03193f 	uzp1	v31.8b, v9.8b, v3.8b
    1460:	0b3b0b3a 	add	w26, w25, w27, uxtb #2
    1464:	13490b39 	.inst	0x13490b39 ; undefined
    1468:	1301193c 	sbfx	w28, w9, #1, #6
    146c:	2e120000 	ext	v0.8b, v0.8b, v18.8b, #0
    1470:	03193f01 	.inst	0x03193f01 ; undefined
    1474:	01213a0e 	.inst	0x01213a0e ; undefined
    1478:	21390b3b 	.inst	0x21390b3b ; undefined
    147c:	12011106 	and	w6, w8, #0x8000000f
    1480:	7c184007 	stur	h7, [x0, #-124]
    1484:	00130119 	.inst	0x00130119 ; undefined
    1488:	010b1300 	.inst	0x010b1300 ; undefined
    148c:	07120111 	.inst	0x07120111 ; undefined
    1490:	00001301 	udf	#4865
    1494:	03000d14 	.inst	0x03000d14 ; undefined
    1498:	02213a0e 	.inst	0x02213a0e ; undefined
    149c:	21390b3b 	.inst	0x21390b3b ; undefined
    14a0:	38134911 	sttrb	w17, [x8, #-204]
    14a4:	15000005 	b	40014b8 <bss_end+0x3f78708>
    14a8:	13490026 	.inst	0x13490026 ; undefined
    14ac:	2e160000 	ext	v0.8b, v0.8b, v22.8b, #0
    14b0:	03193f01 	.inst	0x03193f01 ; undefined
    14b4:	01213a0e 	.inst	0x01213a0e ; undefined
    14b8:	21390b3b 	.inst	0x21390b3b ; undefined
    14bc:	11192706 	add	w6, w24, #0x649
    14c0:	40071201 	.inst	0x40071201 ; undefined
    14c4:	01197a18 	.inst	0x01197a18 ; undefined
    14c8:	17000013 	b	fffffffffc001514 <bss_end+0xfffffffffbf78764>
    14cc:	193f012e 	.inst	0x193f012e ; undefined
    14d0:	213a0e03 	.inst	0x213a0e03 ; undefined
    14d4:	390b3b01 	strb	w1, [x24, #718]
    14d8:	13490521 	.inst	0x13490521 ; undefined
    14dc:	07120111 	.inst	0x07120111 ; undefined
    14e0:	197a1840 	.inst	0x197a1840 ; undefined
    14e4:	00001301 	udf	#4865
    14e8:	3f012e18 	.inst	0x3f012e18 ; undefined
    14ec:	3a0e0319 	adcs	w25, w24, w14
    14f0:	0b3b0121 	add	w1, w9, w27, uxtb
    14f4:	27062139 	.inst	0x27062139 ; undefined
    14f8:	12011119 	and	w25, w8, #0x8000000f
    14fc:	7c184007 	stur	h7, [x0, #-124]
    1500:	00130119 	.inst	0x00130119 ; undefined
    1504:	01111900 	.inst	0x01111900 ; undefined
    1508:	0b130e25 	add	w5, w17, w19, lsl #3
    150c:	1f1b1f03 	fmadd	s3, s24, s27, s7
    1510:	07120111 	.inst	0x07120111 ; undefined
    1514:	00001710 	udf	#5904
    1518:	0301131a 	.inst	0x0301131a ; undefined
    151c:	3a050b0e 	.inst	0x3a050b0e ; undefined
    1520:	390b3b0b 	strb	w11, [x24, #718]
    1524:	0013010b 	.inst	0x0013010b ; undefined
    1528:	01011b00 	.inst	0x01011b00 ; undefined
    152c:	13011349 	sbfx	w9, w26, #1, #4
    1530:	211c0000 	.inst	0x211c0000 ; undefined
    1534:	2f134900 	.inst	0x2f134900 ; undefined
    1538:	1d00000b 	.inst	0x1d00000b ; undefined
    153c:	0b0b0024 	add	w4, w1, w11
    1540:	08030b3e 	stxrb	w3, w30, [x25]
    1544:	351e0000 	cbnz	w0, 3d544 <bss_size+0x3d4e3>
    1548:	00134900 	.inst	0x00134900 ; undefined
    154c:	000f1f00 	.inst	0x000f1f00 ; undefined
    1550:	00000b0b 	udf	#2827
    1554:	0b011320 	add	w0, w25, w1, lsl #4
    1558:	3b0b3a0b 	.inst	0x3b0b3a0b ; undefined
    155c:	010b390b 	.inst	0x010b390b ; undefined
    1560:	21000013 	.inst	0x21000013 ; undefined
    1564:	0e030113 	tbl	v19.8b, {v8.16b}, v3.8b
    1568:	0b3a0b0b 	add	w11, w24, w26, uxtb #2
    156c:	0b390b3b 	add	w27, w25, w25, uxtb #2
    1570:	00001301 	udf	#4865
    1574:	27001522 	.inst	0x27001522 ; undefined
    1578:	23000019 	.inst	0x23000019 ; undefined
    157c:	193f012e 	.inst	0x193f012e ; undefined
    1580:	0b3a0e03 	add	w3, w16, w26, uxtb #3
    1584:	0b390b3b 	add	w27, w25, w25, uxtb #2
    1588:	01111349 	.inst	0x01111349 ; undefined
    158c:	18400712 	ldr	w18, 8166c <exec+0xec>
    1590:	0000197c 	udf	#6524
    1594:	000d0100 	.inst	0x000d0100 ; undefined
    1598:	213a0803 	.inst	0x213a0803 ; undefined
    159c:	390b3b02 	strb	w2, [x24, #718]
    15a0:	3813490b 	sttrb	w11, [x8, #-204]
    15a4:	0200000b 	.inst	0x0200000b ; undefined
    15a8:	13490005 	.inst	0x13490005 ; undefined
    15ac:	24030000 	cmphs	p0.b, p0/z, z0.b, z3.b
    15b0:	3e0b0b00 	.inst	0x3e0b0b00 ; undefined
    15b4:	000e030b 	.inst	0x000e030b ; undefined
    15b8:	00340400 	.inst	0x00340400 ; NYI
    15bc:	213a0803 	.inst	0x213a0803 ; undefined
    15c0:	390b3b01 	strb	w1, [x24, #718]
    15c4:	0213490b 	.inst	0x0213490b ; undefined
    15c8:	05000018 	orr	z24.s, z24.s, #0x1
    15cc:	0e03000d 	tbl	v13.8b, {v0.16b}, v3.8b
    15d0:	3b02213a 	.inst	0x3b02213a ; undefined
    15d4:	490b390b 	.inst	0x490b390b ; undefined
    15d8:	000b3813 	.inst	0x000b3813 ; undefined
    15dc:	000f0600 	.inst	0x000f0600 ; undefined
    15e0:	4908210b 	.inst	0x4908210b ; undefined
    15e4:	07000013 	.inst	0x07000013 ; undefined
    15e8:	0e030034 	tbl	v20.8b, {v1.16b}, v3.8b
    15ec:	3b01213a 	.inst	0x3b01213a ; undefined
    15f0:	490b390b 	.inst	0x490b390b ; undefined
    15f4:	00180213 	.inst	0x00180213 ; undefined
    15f8:	012e0800 	.inst	0x012e0800 ; undefined
    15fc:	0e03193f 	uzp1	v31.8b, v9.8b, v3.8b
    1600:	3b01213a 	.inst	0x3b01213a ; undefined
    1604:	0621390b 	.inst	0x0621390b ; undefined
    1608:	07120111 	.inst	0x07120111 ; undefined
    160c:	197c1840 	.inst	0x197c1840 ; undefined
    1610:	00001301 	udf	#4865
    1614:	11010b09 	add	w9, w24, #0x42
    1618:	00071201 	.inst	0x00071201 ; undefined
    161c:	00050a00 	.inst	0x00050a00 ; undefined
    1620:	213a0803 	.inst	0x213a0803 ; undefined
    1624:	390b3b01 	strb	w1, [x24, #718]
    1628:	0213490b 	.inst	0x0213490b ; undefined
    162c:	0b000018 	add	w24, w0, w0
    1630:	193f012e 	.inst	0x193f012e ; undefined
    1634:	0b3a0e03 	add	w3, w16, w26, uxtb #3
    1638:	0b390b3b 	add	w27, w25, w25, uxtb #2
    163c:	193c1927 	.inst	0x193c1927 ; undefined
    1640:	00001301 	udf	#4865
    1644:	0300050c 	.inst	0x0300050c ; undefined
    1648:	01213a0e 	.inst	0x01213a0e ; undefined
    164c:	0b390b3b 	add	w27, w25, w25, uxtb #2
    1650:	18021349 	ldr	w9, 58b8 <bss_size+0x5857>
    1654:	160d0000 	b	fffffffff8341654 <bss_end+0xfffffffff82b88a4>
    1658:	3a0e0300 	adcs	w0, w24, w14
    165c:	390b3b0b 	strb	w11, [x24, #718]
    1660:	0013490b 	.inst	0x0013490b ; undefined
    1664:	00340e00 	.inst	0x00340e00 ; NYI
    1668:	213a0e03 	.inst	0x213a0e03 ; undefined
    166c:	390b3b01 	strb	w1, [x24, #718]
    1670:	13490921 	.inst	0x13490921 ; undefined
    1674:	1802193f 	ldr	wzr, 5998 <bss_size+0x5937>
    1678:	2e0f0000 	ext	v0.8b, v0.8b, v15.8b, #0
    167c:	03193f00 	.inst	0x03193f00 ; undefined
    1680:	01213a0e 	.inst	0x01213a0e ; undefined
    1684:	21390b3b 	.inst	0x21390b3b ; undefined
    1688:	12011106 	and	w6, w8, #0x8000000f
    168c:	7c184007 	stur	h7, [x0, #-124]
    1690:	10000019 	adr	x25, 1690 <bss_size+0x162f>
    1694:	193f012e 	.inst	0x193f012e ; undefined
    1698:	0b3a0e03 	add	w3, w16, w26, uxtb #3
    169c:	0b390b3b 	add	w27, w25, w25, uxtb #2
    16a0:	13491927 	.inst	0x13491927 ; undefined
    16a4:	1301193c 	sbfx	w28, w9, #1, #6
    16a8:	2e110000 	ext	v0.8b, v0.8b, v17.8b, #0
    16ac:	03193f01 	.inst	0x03193f01 ; undefined
    16b0:	3b0b3a0e 	.inst	0x3b0b3a0e ; undefined
    16b4:	490b390b 	.inst	0x490b390b ; undefined
    16b8:	01193c13 	.inst	0x01193c13 ; undefined
    16bc:	12000013 	and	w19, w0, #0x1
    16c0:	00000018 	udf	#24
    16c4:	3f012e13 	.inst	0x3f012e13 ; undefined
    16c8:	3a0e0319 	adcs	w25, w24, w14
    16cc:	0b3b0121 	add	w1, w9, w27, uxtb
    16d0:	19270b39 	.inst	0x19270b39 ; undefined
    16d4:	01111349 	.inst	0x01111349 ; undefined
    16d8:	18400712 	ldr	w18, 817b8 <swap32+0x18>
    16dc:	1301197c 	sbfx	w28, w11, #1, #6
    16e0:	2e140000 	ext	v0.8b, v0.8b, v20.8b, #0
    16e4:	03193f01 	.inst	0x03193f01 ; undefined
    16e8:	01213a0e 	.inst	0x01213a0e ; undefined
    16ec:	21390b3b 	.inst	0x21390b3b ; undefined
    16f0:	49192709 	.inst	0x49192709 ; undefined
    16f4:	12011113 	and	w19, w8, #0x8000000f
    16f8:	7a184007 	.inst	0x7a184007 ; undefined
    16fc:	00130119 	.inst	0x00130119 ; undefined
    1700:	01111500 	.inst	0x01111500 ; undefined
    1704:	0b130e25 	add	w5, w17, w19, lsl #3
    1708:	1f1b1f03 	fmadd	s3, s24, s27, s7
    170c:	07120111 	.inst	0x07120111 ; undefined
    1710:	00001710 	udf	#5904
    1714:	0b011316 	add	w22, w24, w1, lsl #4
    1718:	3b0b3a0b 	.inst	0x3b0b3a0b ; undefined
    171c:	010b390b 	.inst	0x010b390b ; undefined
    1720:	17000013 	b	fffffffffc00176c <bss_end+0xfffffffffbf789bc>
    1724:	0e030113 	tbl	v19.8b, {v8.16b}, v3.8b
    1728:	0b3a0b0b 	add	w11, w24, w26, uxtb #2
    172c:	0b390b3b 	add	w27, w25, w25, uxtb #2
    1730:	00001301 	udf	#4865
    1734:	0b002418 	add	w24, w0, w0, lsl #9
    1738:	030b3e0b 	.inst	0x030b3e0b ; undefined
    173c:	19000008 	stlurb	w8, [x0]
    1740:	0b0b000f 	add	w15, w0, w11
    1744:	261a0000 	.inst	0x261a0000 ; undefined
    1748:	00134900 	.inst	0x00134900 ; undefined
    174c:	01151b00 	.inst	0x01151b00 ; undefined
    1750:	13011927 	sbfx	w7, w9, #1, #6
    1754:	2e1c0000 	ext	v0.8b, v0.8b, v28.8b, #0
    1758:	03193f01 	.inst	0x03193f01 ; undefined
    175c:	3b0b3a08 	.inst	0x3b0b3a08 ; undefined
    1760:	110b390b 	add	w11, w8, #0x2ce
    1764:	40071201 	.inst	0x40071201 ; undefined
    1768:	01197c18 	.inst	0x01197c18 ; undefined
    176c:	1d000013 	.inst	0x1d000013 ; undefined
    1770:	19270015 	.inst	0x19270015 ; undefined
    1774:	2e1e0000 	ext	v0.8b, v0.8b, v30.8b, #0
    1778:	03193f01 	.inst	0x03193f01 ; undefined
    177c:	3b0b3a0e 	.inst	0x3b0b3a0e ; undefined
    1780:	270b390b 	.inst	0x270b390b ; undefined
    1784:	12011119 	and	w25, w8, #0x8000000f
    1788:	7c184007 	stur	h7, [x0, #-124]
    178c:	00130119 	.inst	0x00130119 ; undefined
    1790:	012e1f00 	.inst	0x012e1f00 ; undefined
    1794:	0e03193f 	uzp1	v31.8b, v9.8b, v3.8b
    1798:	0b3b0b3a 	add	w26, w25, w27, uxtb #2
    179c:	19270b39 	.inst	0x19270b39 ; undefined
    17a0:	07120111 	.inst	0x07120111 ; undefined
    17a4:	197a1840 	.inst	0x197a1840 ; undefined
    17a8:	00001301 	udf	#4865
    17ac:	3f012e20 	.inst	0x3f012e20 ; undefined
    17b0:	3a0e0319 	adcs	w25, w24, w14
    17b4:	390b3b0b 	strb	w11, [x24, #718]
    17b8:	1119270b 	add	w11, w24, #0x649
    17bc:	40071201 	.inst	0x40071201 ; undefined
    17c0:	00197a18 	.inst	0x00197a18 ; undefined
    17c4:	24010000 	cmphs	p0.b, p0/z, z0.b, z1.b
    17c8:	3e0b0b00 	.inst	0x3e0b0b00 ; undefined
    17cc:	000e030b 	.inst	0x000e030b ; undefined
    17d0:	00340200 	.inst	0x00340200 ; NYI
    17d4:	213a0e03 	.inst	0x213a0e03 ; undefined
    17d8:	390b3b01 	strb	w1, [x24, #718]
    17dc:	0213490b 	.inst	0x0213490b ; undefined
    17e0:	03000018 	.inst	0x03000018 ; undefined
    17e4:	210b000f 	.inst	0x210b000f ; undefined
    17e8:	00134908 	.inst	0x00134908 ; undefined
    17ec:	000d0400 	.inst	0x000d0400 ; undefined
    17f0:	213a0e03 	.inst	0x213a0e03 ; undefined
    17f4:	390b3b02 	strb	w2, [x24, #718]
    17f8:	3813490b 	sttrb	w11, [x8, #-204]
    17fc:	0500000b 	orr	z11.s, z11.s, #0x1
    1800:	13490005 	.inst	0x13490005 ; undefined
    1804:	05060000 	.inst	0x05060000 ; undefined
    1808:	3a0e0300 	adcs	w0, w24, w14
    180c:	0b3b0121 	add	w1, w9, w27, uxtb
    1810:	13490b39 	.inst	0x13490b39 ; undefined
    1814:	00001802 	udf	#6146
    1818:	03001607 	.inst	0x03001607 ; undefined
    181c:	3b0b3a0e 	.inst	0x3b0b3a0e ; undefined
    1820:	490b390b 	.inst	0x490b390b ; undefined
    1824:	08000013 	stxrb	w0, w19, [x0]
    1828:	193f012e 	.inst	0x193f012e ; undefined
    182c:	0b3a0e03 	add	w3, w16, w26, uxtb #3
    1830:	21390b3b 	.inst	0x21390b3b ; undefined
    1834:	49192707 	.inst	0x49192707 ; undefined
    1838:	01193c13 	.inst	0x01193c13 ; undefined
    183c:	09000013 	.inst	0x09000013 ; undefined
    1840:	193f012e 	.inst	0x193f012e ; undefined
    1844:	213a0e03 	.inst	0x213a0e03 ; undefined
    1848:	390b3b01 	strb	w1, [x24, #718]
    184c:	19270621 	.inst	0x19270621 ; undefined
    1850:	07120111 	.inst	0x07120111 ; undefined
    1854:	197c1840 	.inst	0x197c1840 ; undefined
    1858:	00001301 	udf	#4865
    185c:	0300050a 	.inst	0x0300050a ; undefined
    1860:	01213a08 	.inst	0x01213a08 ; undefined
    1864:	0b390b3b 	add	w27, w25, w25, uxtb #2
    1868:	18021349 	ldr	w9, 5ad0 <bss_size+0x5a6f>
    186c:	2e0b0000 	ext	v0.8b, v0.8b, v11.8b, #0
    1870:	03193f01 	.inst	0x03193f01 ; undefined
    1874:	01213a0e 	.inst	0x01213a0e ; undefined
    1878:	21390b3b 	.inst	0x21390b3b ; undefined
    187c:	1113490a 	add	w10, w8, #0x4d2
    1880:	40071201 	.inst	0x40071201 ; undefined
    1884:	01197a18 	.inst	0x01197a18 ; undefined
    1888:	0c000013 	st4	{v19.8b-v22.8b}, [x0]
    188c:	0e250111 	saddl	v17.8h, v8.8b, v5.8b
    1890:	1f030b13 	fmadd	s19, s24, s3, s2
    1894:	01111f1b 	.inst	0x01111f1b ; undefined
    1898:	17100712 	b	fffffffffc4034e0 <bss_end+0xfffffffffc37a730>
    189c:	240d0000 	cmphs	p0.b, p0/z, z0.b, z13.b
    18a0:	3e0b0b00 	.inst	0x3e0b0b00 ; undefined
    18a4:	0008030b 	.inst	0x0008030b ; undefined
    18a8:	01130e00 	.inst	0x01130e00 ; undefined
    18ac:	0b0b0e03 	add	w3, w16, w11, lsl #3
    18b0:	0b3b0b3a 	add	w26, w25, w27, uxtb #2
    18b4:	13010b39 	sbfx	w25, w25, #1, #2
    18b8:	150f0000 	b	43c18b8 <bss_end+0x4338b08>
    18bc:	01192701 	.inst	0x01192701 ; undefined
    18c0:	10000013 	adr	x19, 18c0 <bss_size+0x185f>
    18c4:	0b0b000f 	add	w15, w0, w11
    18c8:	34110000 	cbz	w0, 238c8 <bss_size+0x23867>
    18cc:	3a0e0300 	adcs	w0, w24, w14
    18d0:	390b3b0b 	strb	w11, [x24, #718]
    18d4:	3f13490b 	.inst	0x3f13490b ; undefined
    18d8:	00193c19 	.inst	0x00193c19 ; undefined
    18dc:	00261200 	.inst	0x00261200 ; NYI
    18e0:	00001349 	udf	#4937
    18e4:	47003413 	.inst	0x47003413 ; undefined
    18e8:	3b0b3a13 	.inst	0x3b0b3a13 ; undefined
    18ec:	020b390b 	.inst	0x020b390b ; undefined
    18f0:	14000018 	b	1950 <bss_size+0x18ef>
    18f4:	193f012e 	.inst	0x193f012e ; undefined
    18f8:	0b3a0e03 	add	w3, w16, w26, uxtb #3
    18fc:	0b390b3b 	add	w27, w25, w25, uxtb #2
    1900:	1301193c 	sbfx	w28, w9, #1, #6
    1904:	18150000 	ldr	w0, 2b904 <bss_size+0x2b8a3>
    1908:	16000000 	b	fffffffff8001908 <bss_end+0xfffffffff7f78b58>
    190c:	193f012e 	.inst	0x193f012e ; undefined
    1910:	0b3a0e03 	add	w3, w16, w26, uxtb #3
    1914:	0b390b3b 	add	w27, w25, w25, uxtb #2
    1918:	193c1927 	.inst	0x193c1927 ; undefined
    191c:	00001301 	udf	#4865
    1920:	3f012e17 	.inst	0x3f012e17 ; undefined
    1924:	3a0e0319 	adcs	w25, w24, w14
    1928:	390b3b0b 	strb	w11, [x24, #718]
    192c:	4919270b 	.inst	0x4919270b ; undefined
    1930:	12011113 	and	w19, w8, #0x8000000f
    1934:	7c184007 	stur	h7, [x0, #-124]
    1938:	00130119 	.inst	0x00130119 ; undefined
    193c:	00341800 	.inst	0x00341800 ; NYI
    1940:	0b3a0803 	add	w3, w0, w26, uxtb #2
    1944:	0b390b3b 	add	w27, w25, w25, uxtb #2
    1948:	18021349 	ldr	w9, 5bb0 <bss_size+0x5b4f>
    194c:	2e190000 	ext	v0.8b, v0.8b, v25.8b, #0
    1950:	03193f00 	.inst	0x03193f00 ; undefined
    1954:	3b0b3a0e 	.inst	0x3b0b3a0e ; undefined
    1958:	490b390b 	.inst	0x490b390b ; undefined
    195c:	12011113 	and	w19, w8, #0x8000000f
    1960:	7c184007 	stur	h7, [x0, #-124]
    1964:	00000019 	udf	#25
    1968:	10001101 	adr	x1, 1b88 <bss_size+0x1b27>
    196c:	12011117 	and	w23, w8, #0x8000000f
    1970:	1b0e030f 	madd	w15, w24, w14, w0
    1974:	130e250e 	sbfiz	w14, w8, #18, #10
    1978:	00000005 	udf	#5
    197c:	10001101 	adr	x1, 1b9c <bss_size+0x1b3b>
    1980:	12011117 	and	w23, w8, #0x8000000f
    1984:	1b0e030f 	madd	w15, w24, w14, w0
    1988:	130e250e 	sbfiz	w14, w8, #18, #10
    198c:	00000005 	udf	#5
    1990:	10001101 	adr	x1, 1bb0 <bss_size+0x1b4f>
    1994:	12011117 	and	w23, w8, #0x8000000f
    1998:	1b0e030f 	madd	w15, w24, w14, w0
    199c:	130e250e 	sbfiz	w14, w8, #18, #10
    19a0:	00000005 	udf	#5

Disassembly of section .debug_aranges:

0000000000000000 <.debug_aranges>:
   0:	0000002c 	udf	#44
   4:	00000002 	udf	#2
   8:	00080000 	.inst	0x00080000 ; undefined
   c:	00000000 	udf	#0
  10:	00080800 	.inst	0x00080800 ; undefined
  14:	00000000 	udf	#0
  18:	00000c00 	udf	#3072
	...
  30:	0000002c 	udf	#44
  34:	03a90002 	.inst	0x03a90002 ; undefined
  38:	00080000 	.inst	0x00080000 ; undefined
  3c:	00000000 	udf	#0
  40:	00081400 	.inst	0x00081400 ; undefined
  44:	00000000 	udf	#0
  48:	000003a0 	udf	#928
	...
  60:	0000002c 	udf	#44
  64:	09c90002 	.inst	0x09c90002 ; undefined
  68:	00080000 	.inst	0x00080000 ; undefined
  6c:	00000000 	udf	#0
  70:	000817a0 	.inst	0x000817a0 ; undefined
  74:	00000000 	udf	#0
  78:	000006e8 	udf	#1768
	...
  90:	0000002c 	udf	#44
  94:	0dd70002 	ld1	{v2.b}[0], [x0], x23
  98:	00080000 	.inst	0x00080000 ; undefined
  9c:	00000000 	udf	#0
  a0:	00081e88 	.inst	0x00081e88 ; undefined
  a4:	00000000 	udf	#0
  a8:	0000023c 	udf	#572
	...
  c0:	0000002c 	udf	#44
  c4:	10400002 	adr	x2, 800c4 <from_el2_to_el1+0x88>
  c8:	00080000 	.inst	0x00080000 ; undefined
  cc:	00000000 	udf	#0
  d0:	000820c4 	.inst	0x000820c4 ; undefined
  d4:	00000000 	udf	#0
  d8:	000000f0 	udf	#240
	...
  f0:	0000002c 	udf	#44
  f4:	11570002 	add	w2, w0, #0x5c0, lsl #12
  f8:	00080000 	.inst	0x00080000 ; undefined
  fc:	00000000 	udf	#0
 100:	000821b4 	.inst	0x000821b4 ; undefined
 104:	00000000 	udf	#0
 108:	00000504 	udf	#1284
	...
 120:	0000002c 	udf	#44
 124:	166c0002 	b	fffffffff9b0012c <bss_end+0xfffffffff9a7737c>
 128:	00080000 	.inst	0x00080000 ; undefined
 12c:	00000000 	udf	#0
 130:	000826b8 	.inst	0x000826b8 ; undefined
 134:	00000000 	udf	#0
 138:	000007dc 	udf	#2012
	...
 150:	0000002c 	udf	#44
 154:	1b880002 	.inst	0x1b880002 ; undefined
 158:	00080000 	.inst	0x00080000 ; undefined
 15c:	00000000 	udf	#0
 160:	00082ea0 	.inst	0x00082ea0 ; undefined
 164:	00000000 	udf	#0
 168:	000001a4 	udf	#420
	...
 180:	0000002c 	udf	#44
 184:	1ced0002 	ldr	s2, fffffffffffda184 <bss_end+0xfffffffffff513d4>
 188:	00080000 	.inst	0x00080000 ; undefined
 18c:	00000000 	udf	#0
 190:	00083044 	.inst	0x00083044 ; undefined
 194:	00000000 	udf	#0
 198:	000000dc 	udf	#220
	...
 1b0:	0000002c 	udf	#44
 1b4:	1ed20002 	.inst	0x1ed20002 ; undefined
 1b8:	00080000 	.inst	0x00080000 ; undefined
 1bc:	00000000 	udf	#0
 1c0:	00083120 	.inst	0x00083120 ; undefined
 1c4:	00000000 	udf	#0
 1c8:	00001030 	udf	#4144
	...
 1e0:	0000002c 	udf	#44
 1e4:	28cc0002 	ldp	w2, w0, [x0], #96
 1e8:	00080000 	.inst	0x00080000 ; undefined
 1ec:	00000000 	udf	#0
 1f0:	00084150 	.inst	0x00084150 ; undefined
 1f4:	00000000 	udf	#0
 1f8:	00000974 	udf	#2420
	...
 210:	0000002c 	udf	#44
 214:	2d930002 	stp	s2, s0, [x0, #152]!
 218:	00080000 	.inst	0x00080000 ; undefined
 21c:	00000000 	udf	#0
 220:	00084ac4 	.inst	0x00084ac4 ; undefined
 224:	00000000 	udf	#0
 228:	000001c0 	udf	#448
	...
 240:	0000001c 	udf	#28
 244:	2fe30002 	.inst	0x2fe30002 ; undefined
 248:	00080000 	.inst	0x00080000 ; undefined
	...
 260:	0000002c 	udf	#44
 264:	30100002 	adr	x2, 20265 <bss_size+0x20204>
 268:	00080000 	.inst	0x00080000 ; undefined
 26c:	00000000 	udf	#0
 270:	00084c84 	.inst	0x00084c84 ; undefined
 274:	00000000 	udf	#0
 278:	00000620 	udf	#1568
	...
 290:	0000002c 	udf	#44
 294:	34520002 	cbz	w2, a4294 <bss_end+0x1b4e4>
 298:	00080000 	.inst	0x00080000 ; undefined
 29c:	00000000 	udf	#0
 2a0:	000852a4 	.inst	0x000852a4 ; undefined
 2a4:	00000000 	udf	#0
 2a8:	00000730 	udf	#1840
	...
 2c0:	0000002c 	udf	#44
 2c4:	3c270002 	.inst	0x3c270002 ; undefined
 2c8:	00080000 	.inst	0x00080000 ; undefined
 2cc:	00000000 	udf	#0
 2d0:	000859d4 	.inst	0x000859d4 ; undefined
 2d4:	00000000 	udf	#0
 2d8:	00000638 	udf	#1592
	...
 2f0:	0000002c 	udf	#44
 2f4:	42380002 	.inst	0x42380002 ; undefined
 2f8:	00080000 	.inst	0x00080000 ; undefined
 2fc:	00000000 	udf	#0
 300:	0008600c 	.inst	0x0008600c ; undefined
 304:	00000000 	udf	#0
 308:	00000208 	udf	#520
	...
 320:	0000002c 	udf	#44
 324:	45110002 	.inst	0x45110002 ; undefined
 328:	00080000 	.inst	0x00080000 ; undefined
 32c:	00000000 	udf	#0
 330:	00080000 	.inst	0x00080000 ; undefined
 334:	00000000 	udf	#0
 338:	00000068 	udf	#104
	...
 350:	0000002c 	udf	#44
 354:	45390002 	sqshrunb	z2.h, z0.s, #7
 358:	00080000 	.inst	0x00080000 ; undefined
 35c:	00000000 	udf	#0
 360:	00086800 	.inst	0x00086800 ; undefined
 364:	00000000 	udf	#0
 368:	00000ad0 	udf	#2768
	...
 380:	0000002c 	udf	#44
 384:	45620002 	sqshrunb	z2.s, z0.d, #30
 388:	00080000 	.inst	0x00080000 ; undefined
 38c:	00000000 	udf	#0
 390:	000872d0 	.inst	0x000872d0 ; undefined
 394:	00000000 	udf	#0
 398:	00000050 	udf	#80
	...

Disassembly of section .debug_rnglists:

0000000000000000 <.debug_rnglists>:
   0:	00000013 	udf	#19
   4:	00080005 	.inst	0x00080005 ; undefined
   8:	00000000 	udf	#0
   c:	b40fe004 	cbz	x4, 1fc0c <bss_size+0x1fbab>
  10:	10b80410 	adr	x16, fffffffffff70090 <bss_end+0xffffffffffee72e0>
  14:	Address 0x0000000000000014 is out of bounds.


Disassembly of section .debug_line:

0000000000000000 <.debug_line>:
       0:	000005c4 	udf	#1476
       4:	00080005 	.inst	0x00080005 ; undefined
       8:	0000002e 	udf	#46
       c:	fb010104 	.inst	0xfb010104 ; undefined
      10:	01000d0e 	.inst	0x01000d0e ; undefined
      14:	00010101 	.inst	0x00010101 ; undefined
      18:	00010000 	.inst	0x00010000 ; undefined
      1c:	01010100 	.inst	0x01010100 ; undefined
      20:	000e021f 	.inst	0x000e021f ; undefined
      24:	002e0000 	.inst	0x002e0000 ; NYI
      28:	01020000 	.inst	0x01020000 ; undefined
      2c:	020f021f 	.inst	0x020f021f ; undefined
      30:	00000004 	udf	#4
      34:	00000401 	udf	#1025
      38:	23050100 	.inst	0x23050100 ; undefined
      3c:	00020900 	.inst	0x00020900 ; undefined
      40:	00000808 	udf	#2056
      44:	03000000 	.inst	0x03000000 ; undefined
      48:	0c05010b 	.inst	0x0c05010b ; undefined
      4c:	0f053d2f 	.inst	0x0f053d2f ; undefined
      50:	0b053d3e 	add	w30, w9, w5, lsl #15
      54:	2e05053e 	.inst	0x2e05053e ; undefined
      58:	02001a05 	.inst	0x02001a05 ; undefined
      5c:	052e0104 	ext	z4.b, z4.b, z8.b, #112
      60:	04020012 	.inst	0x04020012 ; undefined
      64:	052f2e01 	tbx	z1.b, z16.b, z15.b
      68:	0a054b10 	and	w16, w24, w5, lsl #18
      6c:	2f1c052e 	ushr	v14.4h, v9.4h, #4
      70:	052e2305 	mov	z5.h, z24.h[3]
      74:	12052016 	and	w22, w0, #0xf800000f
      78:	3d100520 	str	b0, [x9, #1025]
      7c:	052e0a05 	ext	z5.b, z5.b, z16.b, #114
      80:	22052f1c 	.inst	0x22052f1c ; undefined
      84:	2016052e 	.inst	0x2016052e ; undefined
      88:	05201205 	ext	z5.b, z5.b, z16.b, #4
      8c:	39053e32 	strb	w18, [x17, #335]
      90:	201d052e 	.inst	0x201d052e ; undefined
      94:	052e2305 	mov	z5.h, z24.h[3]
      98:	16052057 	b	fffffffff81481f4 <bss_end+0xfffffffff80bf444>
      9c:	2012052e 	.inst	0x2012052e ; undefined
      a0:	05300c05 	ext	z5.b, z5.b, z0.b, #131
      a4:	1e052e05 	.inst	0x1e052e05 ; undefined
      a8:	2e24052f 	uhadd	v15.8b, v9.8b, v4.8b
      ac:	05201705 	ext	z5.b, z5.b, z24.b, #5
      b0:	35052013 	cbnz	w19, a4b0 <bss_size+0xa44f>
      b4:	2e3c053e 	uhadd	v30.8b, v9.8b, v28.8b
      b8:	05201f05 	ext	z5.b, z5.b, z24.b, #7
      bc:	5b052e25 	.inst	0x5b052e25 ; undefined
      c0:	2e170520 	.inst	0x2e170520 ; undefined
      c4:	05201305 	ext	z5.b, z5.b, z24.b, #4
      c8:	0105300a 	.inst	0x0105300a ; undefined
      cc:	30240521 	adr	x1, 48171 <bss_size+0x48110>
      d0:	3d2f0c05 	str	b5, [x0, #3011]
      d4:	053e0f05 	ext	z5.b, z5.b, z24.b, #243
      d8:	0b053d0e 	add	w14, w8, w5, lsl #15
      dc:	2e05053e 	.inst	0x2e05053e ; undefined
      e0:	02001b05 	.inst	0x02001b05 ; undefined
      e4:	052e0104 	ext	z4.b, z4.b, z8.b, #112
      e8:	04020013 	.inst	0x04020013 ; undefined
      ec:	12052e01 	and	w1, w16, #0xf800007f
      f0:	4b10052f 	sub	w15, w9, w16, lsl #1
      f4:	052e0a05 	ext	z5.b, z5.b, z16.b, #114
      f8:	22052f1c 	.inst	0x22052f1c ; undefined
      fc:	2016052e 	.inst	0x2016052e ; undefined
     100:	05201205 	ext	z5.b, z5.b, z16.b, #4
     104:	0a053d10 	and	w16, w8, w5, lsl #15
     108:	2f1c052e 	ushr	v14.4h, v9.4h, #4
     10c:	052e2305 	mov	z5.h, z24.h[3]
     110:	12052016 	and	w22, w0, #0xf800000f
     114:	3e320520 	.inst	0x3e320520 ; undefined
     118:	052e3905 	.inst	0x052e3905 ; undefined
     11c:	2305201d 	.inst	0x2305201d ; undefined
     120:	2057052e 	.inst	0x2057052e ; undefined
     124:	052e1605 	ext	z5.b, z5.b, z16.b, #117
     128:	0b052012 	add	w18, w0, w5, lsl #8
     12c:	2e050530 	.inst	0x2e050530 ; undefined
     130:	052f1c05 	ext	z5.b, z5.b, z0.b, #127
     134:	16052e23 	b	fffffffff814b9c0 <bss_end+0xfffffffff80c2c10>
     138:	20120520 	.inst	0x20120520 ; undefined
     13c:	053d3505 	.inst	0x053d3505 ; undefined
     140:	20052e3c 	.inst	0x20052e3c ; undefined
     144:	2e260520 	uhadd	v0.8b, v9.8b, v6.8b
     148:	05205a05 	.inst	0x05205a05 ; undefined
     14c:	15052e19 	b	414b9b0 <bss_end+0x40c2c00>
     150:	300a0520 	adr	x0, 141f5 <bss_size+0x14194>
     154:	05210105 	ext	z5.b, z5.b, z8.b, #8
     158:	0505301e 	.inst	0x0505301e ; undefined
     15c:	3d0c052f 	str	b15, [x9, #769]
     160:	052f0b05 	ext	z5.b, z5.b, z24.b, #122
     164:	1a052e05 	.inst	0x1a052e05 ; undefined
     168:	01040200 	.inst	0x01040200 ; undefined
     16c:	0012052e 	.inst	0x0012052e ; undefined
     170:	2e010402 	.inst	0x2e010402 ; undefined
     174:	052f0c05 	ext	z5.b, z5.b, z0.b, #123
     178:	05052f0b 	.inst	0x05052f0b ; undefined
     17c:	2f11052e 	ushr	v14.4h, v9.4h, #15
     180:	052e1805 	ext	z5.b, z5.b, z0.b, #118
     184:	0b05200c 	add	w12, w0, w5, lsl #8
     188:	2e05052f 	.inst	0x2e05052f ; undefined
     18c:	052f1005 	ext	z5.b, z5.b, z0.b, #124
     190:	0e052e16 	smov	w22, v16.b[2]
     194:	2e14052f 	.inst	0x2e14052f ; undefined
     198:	05202305 	.inst	0x05202305 ; undefined
     19c:	1d052e2a 	.inst	0x1d052e2a ; undefined
     1a0:	21010520 	.inst	0x21010520 ; undefined
     1a4:	05301b05 	ext	z5.b, z5.b, z24.b, #134
     1a8:	08052f0c 	stxrb	w5, w12, [x24]
     1ac:	2109052f 	.inst	0x2109052f ; undefined
     1b0:	053b0c05 	ext	z5.b, z5.b, z0.b, #219
     1b4:	0d052e13 	.inst	0x0d052e13 ; undefined
     1b8:	2f010530 	mvni	v16.2s, #0x29
     1bc:	05302705 	.inst	0x05302705 ; undefined
     1c0:	05055908 	.inst	0x05055908 ; undefined
     1c4:	2f20052e 	ushr	v14.2s, v9.2s, #32
     1c8:	053c0e05 	ext	z5.b, z5.b, z16.b, #227
     1cc:	3d3d2107 	str	b7, [x8, #3912]
     1d0:	05220f05 	ext	z5.b, z5.b, z24.b, #19
     1d4:	11053d10 	add	w16, w8, #0x14f
     1d8:	2f12052f 	ushr	v15.4h, v9.4h, #14
     1dc:	053d0b05 	ext	z5.b, z5.b, z24.b, #234
     1e0:	17054d11 	b	fffffffffc153624 <bss_end+0xfffffffffc0ca874>
     1e4:	2007052e 	.inst	0x2007052e ; undefined
     1e8:	053d1105 	ext	z5.b, z5.b, z8.b, #236
     1ec:	07052e0e 	.inst	0x07052e0e ; undefined
     1f0:	3d160520 	str	b0, [x9, #1409]
     1f4:	052e1c05 	ext	z5.b, z5.b, z0.b, #119
     1f8:	1105200c 	add	w12, w0, #0x148
     1fc:	2e0e053d 	.inst	0x2e0e053d ; undefined
     200:	05200705 	ext	z5.b, z5.b, z24.b, #1
     204:	0a053109 	and	w9, w8, w5, lsl #12
     208:	2e100522 	.inst	0x2e100522 ; undefined
     20c:	05200705 	ext	z5.b, z5.b, z24.b, #1
     210:	0402001c 	.inst	0x0402001c ; undefined
     214:	22052e01 	.inst	0x22052e01 ; undefined
     218:	01040200 	.inst	0x01040200 ; undefined
     21c:	0017052e 	.inst	0x0017052e ; undefined
     220:	20010402 	.inst	0x20010402 ; undefined
     224:	052f0805 	ext	z5.b, z5.b, z0.b, #122
     228:	0f052e17 	.inst	0x0f052e17 ; undefined
     22c:	2e15053d 	.inst	0x2e15053d ; undefined
     230:	05200c05 	ext	z5.b, z5.b, z0.b, #3
     234:	24052f1e 	cmpne	p14.b, p3/z, z24.b, z5.d
     238:	202b052e 	.inst	0x202b052e ; undefined
     23c:	05200805 	ext	z5.b, z5.b, z0.b, #2
     240:	17052e1b 	b	fffffffffc14baac <bss_end+0xfffffffffc0c2cfc>
     244:	21130520 	.inst	0x21130520 ; undefined
     248:	052e1905 	ext	z5.b, z5.b, z8.b, #118
     24c:	0f052020 	.inst	0x0f052020 ; undefined
     250:	15053e20 	b	414fad0 <bss_end+0x40c6d20>
     254:	200c052e 	.inst	0x200c052e ; undefined
     258:	052f1e05 	ext	z5.b, z5.b, z16.b, #127
     25c:	2a052e24 	orr	w4, w17, w5, lsl #11
     260:	20080520 	.inst	0x20080520 ; undefined
     264:	052e1b05 	ext	z5.b, z5.b, z24.b, #118
     268:	12052017 	and	w23, w0, #0xf800000f
     26c:	2e180521 	.inst	0x2e180521 ; undefined
     270:	05200f05 	ext	z5.b, z5.b, z24.b, #3
     274:	3d053f37 	str	b23, [x25, #335]
     278:	2044052e 	.inst	0x2044052e ; undefined
     27c:	05201f05 	ext	z5.b, z5.b, z24.b, #7
     280:	2b052e25 	adds	w5, w17, w5, lsl #11
     284:	20650520 	.inst	0x20650520 ; undefined
     288:	052e0805 	ext	z5.b, z5.b, z0.b, #114
     28c:	17052e1b 	b	fffffffffc14baf8 <bss_end+0xfffffffffc0c2d48>
     290:	21120520 	.inst	0x21120520 ; undefined
     294:	052e1805 	ext	z5.b, z5.b, z0.b, #118
     298:	2a05201e 	orr	w30, w0, w5, lsl #8
     29c:	2e300520 	uhadd	v0.8b, v9.8b, v16.8b
     2a0:	05203705 	.inst	0x05203705 ; undefined
     2a4:	0705200f 	.inst	0x0705200f ; undefined
     2a8:	00200532 	.inst	0x00200532 ; NYI
     2ac:	3c010402 	str	b2, [x0], #16
     2b0:	02002605 	.inst	0x02002605 ; undefined
     2b4:	052e0104 	ext	z4.b, z4.b, z8.b, #112
     2b8:	0402002c 	.inst	0x0402002c ; undefined
     2bc:	14052001 	b	1482c0 <bss_end+0xbf510>
     2c0:	01040200 	.inst	0x01040200 ; undefined
     2c4:	3d110520 	str	b0, [x9, #1089]
     2c8:	054a0f05 	.inst	0x054a0f05 ; undefined
     2cc:	25053f0c 	cmplt	p12.b, p7/z, z24.b, #5
     2d0:	01040200 	.inst	0x01040200 ; undefined
     2d4:	002b053c 	.inst	0x002b053c ; NYI
     2d8:	2e010402 	.inst	0x2e010402 ; undefined
     2dc:	02003105 	.inst	0x02003105 ; undefined
     2e0:	05200104 	ext	z4.b, z4.b, z8.b, #0
     2e4:	04020019 	.inst	0x04020019 ; undefined
     2e8:	23052001 	.inst	0x23052001 ; undefined
     2ec:	2e29053d 	uhadd	v29.8b, v9.8b, v9.8b
     2f0:	05200805 	ext	z5.b, z5.b, z0.b, #2
     2f4:	15052e17 	b	414bb50 <bss_end+0x40c2da0>
     2f8:	2111052e 	.inst	0x2111052e ; undefined
     2fc:	054a0f05 	.inst	0x054a0f05 ; undefined
     300:	26053f0c 	.inst	0x26053f0c ; undefined
     304:	01040200 	.inst	0x01040200 ; undefined
     308:	002c053c 	.inst	0x002c053c ; NYI
     30c:	2e010402 	.inst	0x2e010402 ; undefined
     310:	02003305 	.inst	0x02003305 ; undefined
     314:	05200104 	ext	z4.b, z4.b, z8.b, #0
     318:	0402001a 	.inst	0x0402001a ; undefined
     31c:	11052001 	add	w1, w0, #0x148
     320:	4a0f053d 	eor	w29, w9, w15, lsl #1
     324:	053f0c05 	ext	z5.b, z5.b, z0.b, #251
     328:	04020026 	.inst	0x04020026 ; undefined
     32c:	2c053c01 	stnp	s1, s15, [x0, #40]
     330:	01040200 	.inst	0x01040200 ; undefined
     334:	0033052e 	.inst	0x0033052e ; NYI
     338:	20010402 	.inst	0x20010402 ; undefined
     33c:	02001a05 	.inst	0x02001a05 ; undefined
     340:	05200104 	ext	z4.b, z4.b, z8.b, #0
     344:	2b053d25 	adds	w5, w9, w5, lsl #15
     348:	2008052e 	.inst	0x2008052e ; undefined
     34c:	052e1805 	ext	z5.b, z5.b, z0.b, #118
     350:	11052e16 	add	w22, w16, #0x14b
     354:	4a0f0521 	eor	w1, w9, w15, lsl #1
     358:	5d030a05 	.inst	0x5d030a05 ; undefined
     35c:	0301053c 	.inst	0x0301053c ; undefined
     360:	2b052027 	adds	w7, w1, w5, lsl #8
     364:	5908053e 	.inst	0x5908053e ; undefined
     368:	052e0505 	ext	z5.b, z5.b, z8.b, #113
     36c:	0f052f0c 	.inst	0x0f052f0c ; undefined
     370:	2e150530 	.inst	0x2e150530 ; undefined
     374:	05200505 	ext	z5.b, z5.b, z8.b, #1
     378:	1c053d1f 	ldr	s31, ab18 <bss_size+0xaab7>
     37c:	2006052e 	.inst	0x2006052e ; undefined
     380:	052e1505 	ext	z5.b, z5.b, z8.b, #117
     384:	14053c13 	b	14f3d0 <bss_end+0xc6620>
     388:	2e1a052f 	.inst	0x2e1a052f ; undefined
     38c:	05200a05 	ext	z5.b, z5.b, z16.b, #2
     390:	1d053d20 	.inst	0x1d053d20 ; undefined
     394:	2006052e 	.inst	0x2006052e ; undefined
     398:	052e1605 	ext	z5.b, z5.b, z16.b, #117
     39c:	0a053c14 	and	w20, w0, w5, lsl #15
     3a0:	2e100530 	.inst	0x2e100530 ; undefined
     3a4:	05200705 	ext	z5.b, z5.b, z24.b, #1
     3a8:	0402001c 	.inst	0x0402001c ; undefined
     3ac:	22052e01 	.inst	0x22052e01 ; undefined
     3b0:	01040200 	.inst	0x01040200 ; undefined
     3b4:	0017052e 	.inst	0x0017052e ; undefined
     3b8:	20010402 	.inst	0x20010402 ; undefined
     3bc:	052f1805 	ext	z5.b, z5.b, z0.b, #126
     3c0:	10052e1e 	adr	x30, a980 <bss_size+0xa91f>
     3c4:	00280520 	.inst	0x00280520 ; NYI
     3c8:	2e010402 	.inst	0x2e010402 ; undefined
     3cc:	02001005 	.inst	0x02001005 ; undefined
     3d0:	052e0104 	ext	z4.b, z4.b, z8.b, #112
     3d4:	04020038 	.inst	0x04020038 ; undefined
     3d8:	10052e02 	adr	x2, a998 <bss_size+0xa937>
     3dc:	02040200 	.inst	0x02040200 ; undefined
     3e0:	0402002e 	.inst	0x0402002e ; undefined
     3e4:	05200604 	ext	z4.b, z4.b, z16.b, #1
     3e8:	04020009 	.inst	0x04020009 ; undefined
     3ec:	05210604 	ext	z4.b, z4.b, z16.b, #9
     3f0:	0f053d0e 	.inst	0x0f053d0e ; undefined
     3f4:	2a2a053d 	orn	w29, w9, w10, lsl #1
     3f8:	05270f05 	ext	z5.b, z5.b, z24.b, #59
     3fc:	3c79032a 	.inst	0x3c79032a ; undefined
     400:	0b031805 	add	w5, w0, w3, lsl #6
     404:	2e100520 	.inst	0x2e100520 ; undefined
     408:	052f0c05 	ext	z5.b, z5.b, z0.b, #123
     40c:	1105210e 	add	w14, w8, #0x148
     410:	2e18053b 	.inst	0x2e18053b ; undefined
     414:	05300805 	ext	z5.b, z5.b, z0.b, #130
     418:	14052e1a 	b	14bc80 <bss_end+0xc2ed0>
     41c:	2122052e 	.inst	0x2122052e ; undefined
     420:	052e1f05 	ext	z5.b, z5.b, z24.b, #119
     424:	08052018 	stxrb	w5, w24, [x0]
     428:	2e18052e 	.inst	0x2e18052e ; undefined
     42c:	052e1605 	ext	z5.b, z5.b, z16.b, #117
     430:	05052308 	.inst	0x05052308 ; undefined
     434:	2f0c052e 	ushr	v14.8b, v9.8b, #4
     438:	05300705 	ext	z5.b, z5.b, z24.b, #129
     43c:	0e052208 	tbl	v8.8b, {v16.16b, v17.16b}, v5.8b
     440:	2005052e 	.inst	0x2005052e ; undefined
     444:	02001a05 	.inst	0x02001a05 ; undefined
     448:	052e0104 	ext	z4.b, z4.b, z8.b, #112
     44c:	04020020 	.inst	0x04020020 ; undefined
     450:	15052e01 	b	414bc54 <bss_end+0x40c2ea4>
     454:	01040200 	.inst	0x01040200 ; undefined
     458:	2f060520 	mvni	v0.2s, #0xc9
     45c:	052e1505 	ext	z5.b, z5.b, z8.b, #117
     460:	13053d0d 	sbfx	w13, w8, #5, #11
     464:	200a052e 	.inst	0x200a052e ; undefined
     468:	052f1c05 	ext	z5.b, z5.b, z0.b, #127
     46c:	29052e22 	stp	w2, w11, [x17, #40]
     470:	20060520 	.inst	0x20060520 ; undefined
     474:	052e1905 	ext	z5.b, z5.b, z8.b, #118
     478:	11052015 	add	w21, w0, #0x148
     47c:	2e170521 	.inst	0x2e170521 ; undefined
     480:	05201e05 	ext	z5.b, z5.b, z16.b, #7
     484:	053e200d 	mov	z13.h, z0.h[7]
     488:	0a052e13 	and	w19, w16, w5, lsl #11
     48c:	2f1c0520 	ushr	v0.4h, v9.4h, #4
     490:	052e2205 	mov	z5.h, z16.h[3]
     494:	06052028 	.inst	0x06052028 ; undefined
     498:	2e190520 	.inst	0x2e190520 ; undefined
     49c:	05201505 	ext	z5.b, z5.b, z8.b, #5
     4a0:	16052110 	b	fffffffff81488e0 <bss_end+0xfffffffff80bfb30>
     4a4:	200d052e 	.inst	0x200d052e ; undefined
     4a8:	053f3505 	.inst	0x053f3505 ; undefined
     4ac:	42052e3b 	.inst	0x42052e3b ; undefined
     4b0:	201d0520 	.inst	0x201d0520 ; undefined
     4b4:	052e2305 	mov	z5.h, z24.h[3]
     4b8:	63052029 	.inst	0x63052029 ; undefined
     4bc:	2e060520 	.inst	0x2e060520 ; undefined
     4c0:	052e1905 	ext	z5.b, z5.b, z8.b, #118
     4c4:	10052015 	adr	x21, a8c4 <bss_size+0xa863>
     4c8:	2e160521 	.inst	0x2e160521 ; undefined
     4cc:	05201c05 	ext	z5.b, z5.b, z0.b, #7
     4d0:	2e052028 	ext	v8.8b, v1.8b, v5.8b, #4
     4d4:	2035052e 	.inst	0x2035052e ; undefined
     4d8:	05200d05 	ext	z5.b, z5.b, z8.b, #3
     4dc:	21053205 	.inst	0x21053205 ; undefined
     4e0:	01040200 	.inst	0x01040200 ; undefined
     4e4:	0027053c 	.inst	0x0027053c ; NYI
     4e8:	2e010402 	.inst	0x2e010402 ; undefined
     4ec:	02001505 	.inst	0x02001505 ; undefined
     4f0:	05200104 	ext	z4.b, z4.b, z8.b, #0
     4f4:	04020012 	.inst	0x04020012 ; undefined
     4f8:	0f052001 	.inst	0x0f052001 ; undefined
     4fc:	4a0d052f 	eor	w15, w9, w13, lsl #1
     500:	053e0a05 	ext	z5.b, z5.b, z16.b, #242
     504:	04020026 	.inst	0x04020026 ; undefined
     508:	2c053c01 	stnp	s1, s15, [x0, #40]
     50c:	01040200 	.inst	0x01040200 ; undefined
     510:	001a052e 	.inst	0x001a052e ; undefined
     514:	20010402 	.inst	0x20010402 ; undefined
     518:	02001705 	.inst	0x02001705 ; undefined
     51c:	05200104 	ext	z4.b, z4.b, z8.b, #0
     520:	27052f21 	.inst	0x27052f21 ; undefined
     524:	2006052e 	.inst	0x2006052e ; undefined
     528:	052e1505 	ext	z5.b, z5.b, z8.b, #117
     52c:	0f052e13 	.inst	0x0f052e13 ; undefined
     530:	4a0d0521 	eor	w1, w9, w13, lsl #1
     534:	053f0a05 	ext	z5.b, z5.b, z16.b, #250
     538:	04020027 	.inst	0x04020027 ; undefined
     53c:	2d053c01 	stp	s1, s15, [x0, #40]
     540:	01040200 	.inst	0x01040200 ; undefined
     544:	001b052e 	.inst	0x001b052e ; undefined
     548:	20010402 	.inst	0x20010402 ; undefined
     54c:	02001805 	.inst	0x02001805 ; undefined
     550:	05200104 	ext	z4.b, z4.b, z8.b, #0
     554:	0d052f0f 	.inst	0x0d052f0f ; undefined
     558:	3e0a054a 	.inst	0x3e0a054a ; undefined
     55c:	02002705 	.inst	0x02002705 ; undefined
     560:	053c0104 	ext	z4.b, z4.b, z8.b, #224
     564:	0402002d 	.inst	0x0402002d ; undefined
     568:	1b052e01 	madd	w1, w16, w5, w11
     56c:	01040200 	.inst	0x01040200 ; undefined
     570:	00180520 	.inst	0x00180520 ; undefined
     574:	20010402 	.inst	0x20010402 ; undefined
     578:	052f2305 	mov	z5.b, z24.b[7]
     57c:	06052e29 	.inst	0x06052e29 ; undefined
     580:	2e160520 	.inst	0x2e160520 ; undefined
     584:	052e1405 	ext	z5.b, z5.b, z0.b, #117
     588:	0d05210f 	.inst	0x0d05210f ; undefined
     58c:	310a054a 	adds	w10, w10, #0x281
     590:	052f0105 	ext	z5.b, z5.b, z8.b, #120
     594:	08053e1d 	stxrb	w5, w29, [x16]
     598:	3d15053d 	str	b29, [x9, #1345]
     59c:	212e0905 	.inst	0x212e0905 ; undefined
     5a0:	3d15053d 	str	b29, [x9, #1345]
     5a4:	052e0905 	ext	z5.b, z5.b, z8.b, #114
     5a8:	1e052201 	.inst	0x1e052201 ; undefined
     5ac:	3d08053e 	str	b30, [x9, #513]
     5b0:	3d3d0705 	str	b5, [x24, #3905]
     5b4:	053d1405 	ext	z5.b, z5.b, z0.b, #237
     5b8:	14052e07 	b	14bdd4 <bss_end+0xc3024>
     5bc:	2e070521 	.inst	0x2e070521 ; undefined
     5c0:	02220105 	.inst	0x02220105 ; undefined
     5c4:	01010003 	.inst	0x01010003 ; undefined
     5c8:	000001b9 	udf	#441
     5cc:	00080005 	.inst	0x00080005 ; undefined
     5d0:	00000063 	udf	#99
     5d4:	fb010104 	.inst	0xfb010104 ; undefined
     5d8:	01000d0e 	.inst	0x01000d0e ; undefined
     5dc:	00010101 	.inst	0x00010101 ; undefined
     5e0:	00010000 	.inst	0x00010000 ; undefined
     5e4:	01010100 	.inst	0x01010100 ; undefined
     5e8:	000e041f 	.inst	0x000e041f ; undefined
     5ec:	002e0000 	.inst	0x002e0000 ; NYI
     5f0:	00680000 	.inst	0x00680000 ; undefined
     5f4:	00400000 	.inst	0x00400000 ; undefined
     5f8:	01020000 	.inst	0x01020000 ; undefined
     5fc:	0b0f021f 	add	wzr, w16, w15
     600:	00000036 	udf	#54
     604:	00003601 	udf	#13825
     608:	00700100 	.inst	0x00700100 ; undefined
     60c:	7a020000 	sbcs	w0, w0, w2
     610:	03000000 	.inst	0x03000000 ; undefined
     614:	00000087 	udf	#135
     618:	00009002 	udf	#36866
     61c:	009a0200 	.inst	0x009a0200 ; undefined
     620:	a6020000 	.inst	0xa6020000 ; undefined
     624:	02000000 	.inst	0x02000000 ; undefined
     628:	000000af 	udf	#175
     62c:	0000b702 	udf	#46850
     630:	00c00200 	.inst	0x00c00200 ; undefined
     634:	05020000 	orr	z0.d, z0.d, #0x1
     638:	02090017 	.inst	0x02090017 ; undefined
     63c:	00081400 	.inst	0x00081400 ; undefined
     640:	00000000 	udf	#0
     644:	05011703 	orr	z3.b, z3.b, #0x44
     648:	03053d0c 	.inst	0x03053d0c ; undefined
     64c:	00050520 	.inst	0x00050520 ; undefined
     650:	22030402 	.inst	0x22030402 ; undefined
     654:	03040200 	.inst	0x03040200 ; undefined
     658:	0402009f 	.inst	0x0402009f ; undefined
     65c:	02003d03 	.inst	0x02003d03 ; undefined
     660:	059f0304 	mov	z4.s, p15/z, #24
     664:	04020026 	.inst	0x04020026 ; undefined
     668:	15052903 	b	414aa74 <bss_end+0x40c1cc4>
     66c:	01040200 	.inst	0x01040200 ; undefined
     670:	430a053c 	.inst	0x430a053c ; undefined
     674:	05210105 	ext	z5.b, z5.b, z8.b, #8
     678:	03053018 	.inst	0x03053018 ; undefined
     67c:	3d0a053d 	str	b29, [x9, #641]
     680:	05210105 	ext	z5.b, z5.b, z8.b, #8
     684:	03053017 	.inst	0x03053017 ; undefined
     688:	0a05213d 	and	w29, w9, w5, lsl #8
     68c:	21010521 	.inst	0x21010521 ; undefined
     690:	05301905 	ext	z5.b, z5.b, z8.b, #134
     694:	0c052f03 	.inst	0x0c052f03 ; undefined
     698:	3d03052e 	str	b14, [x9, #193]
     69c:	052e0c05 	ext	z5.b, z5.b, z0.b, #115
     6a0:	01053d0a 	.inst	0x01053d0a ; undefined
     6a4:	30150521 	adr	x1, 2a749 <bss_size+0x2a6e8>
     6a8:	053d0305 	ext	z5.b, z5.b, z24.b, #232
     6ac:	0105210a 	.inst	0x0105210a ; undefined
     6b0:	30160521 	adr	x1, 2c755 <bss_size+0x2c6f4>
     6b4:	053d0505 	ext	z5.b, z5.b, z8.b, #233
     6b8:	18053d0c 	ldr	w12, ae58 <bss_size+0xadf7>
     6bc:	2e030531 	.inst	0x2e030531 ; undefined
     6c0:	2f0a053e 	ushr	v30.8b, v9.8b, #6
     6c4:	02000105 	.inst	0x02000105 ; undefined
     6c8:	05210104 	ext	z4.b, z4.b, z8.b, #8
     6cc:	05053017 	.inst	0x05053017 ; undefined
     6d0:	3d0c053d 	str	b29, [x9, #769]
     6d4:	05311805 	ext	z5.b, z5.b, z0.b, #142
     6d8:	15052e03 	b	414bee4 <bss_end+0x40c3134>
     6dc:	3d05053d 	str	b29, [x9, #321]
     6e0:	053d0f05 	ext	z5.b, z5.b, z24.b, #235
     6e4:	0d053c0b 	.inst	0x0d053c0b ; undefined
     6e8:	20050521 	.inst	0x20050521 ; undefined
     6ec:	02002905 	.inst	0x02002905 ; undefined
     6f0:	05210304 	ext	z4.b, z4.b, z24.b, #8
     6f4:	04020011 	.inst	0x04020011 ; undefined
     6f8:	17053c03 	b	fffffffffc14f704 <bss_end+0xfffffffffc0c6954>
     6fc:	03040200 	.inst	0x03040200 ; undefined
     700:	0015053c 	.inst	0x0015053c ; undefined
     704:	20030402 	.inst	0x20030402 ; undefined
     708:	02002a05 	.inst	0x02002a05 ; undefined
     70c:	051f0304 	mov	z4.b, p15/z, #24
     710:	04020018 	.inst	0x04020018 ; undefined
     714:	16053c01 	b	fffffffff814f718 <bss_end+0xfffffffff80c6968>
     718:	01040200 	.inst	0x01040200 ; undefined
     71c:	3f11052e 	.inst	0x3f11052e ; undefined
     720:	053e0505 	ext	z5.b, z5.b, z8.b, #241
     724:	39052827 	strb	w7, [x1, #330]
     728:	2e45052e 	fmaxnmp	v14.4h, v9.4h, v5.4h
     72c:	052e5305 	.inst	0x052e5305 ; undefined
     730:	20790305 	.inst	0x20790305 ; undefined
     734:	3d900b03 	str	q3, [x24, #16416]
     738:	3e0a052f 	.inst	0x3e0a052f ; undefined
     73c:	02000105 	.inst	0x02000105 ; undefined
     740:	05210104 	ext	z4.b, z4.b, z8.b, #8
     744:	0505301d 	.inst	0x0505301d ; undefined
     748:	3d0c054b 	str	b11, [x10, #769]
     74c:	05301a05 	ext	z5.b, z5.b, z16.b, #134
     750:	28052e03 	stnp	w3, w11, [x16, #40]
     754:	2e1f0520 	.inst	0x2e1f0520 ; undefined
     758:	052e0305 	ext	z5.b, z5.b, z24.b, #112
     75c:	01054b0a 	.inst	0x01054b0a ; undefined
     760:	3e170521 	.inst	0x3e170521 ; undefined
     764:	3d3d0305 	str	b5, [x24, #3904]
     768:	3e3d3d3d 	.inst	0x3e3d3d3d ; undefined
     76c:	052f0a05 	ext	z5.b, z5.b, z16.b, #122
     770:	07052e03 	.inst	0x07052e03 ; undefined
     774:	21222192 	.inst	0x21222192 ; undefined
     778:	0a052122 	and	w2, w9, w5, lsl #8
     77c:	21010523 	.inst	0x21010523 ; undefined
     780:	01000202 	.inst	0x01000202 ; undefined
     784:	0002ac01 	.inst	0x0002ac01 ; undefined
     788:	08000500 	stxrb	w0, w0, [x8]
     78c:	00004a00 	udf	#18944
     790:	01010400 	.inst	0x01010400 ; undefined
     794:	000d0efb 	.inst	0x000d0efb ; undefined
     798:	01010101 	.inst	0x01010101 ; undefined
     79c:	01000000 	.inst	0x01000000 ; undefined
     7a0:	01010000 	.inst	0x01010000 ; undefined
     7a4:	0e041f01 	.inst	0x0e041f01 ; undefined
     7a8:	2e000000 	ext	v0.8b, v0.8b, v0.8b, #0
     7ac:	40000000 	.inst	0x40000000 ; undefined
     7b0:	68000000 	.inst	0x68000000 ; undefined
     7b4:	02000000 	.inst	0x02000000 ; undefined
     7b8:	0f021f01 	.inst	0x0f021f01 ; undefined
     7bc:	0000ce06 	udf	#52742
     7c0:	00ce0100 	.inst	0x00ce0100 ; undefined
     7c4:	7a010000 	sbcs	w0, w0, w1
     7c8:	02000000 	.inst	0x02000000 ; undefined
     7cc:	000000db 	udf	#219
     7d0:	0000a603 	udf	#42499
     7d4:	009a0300 	.inst	0x009a0300 ; undefined
     7d8:	05030000 	orr	z0.d, z0.d, #0x100000000
     7dc:	0209001c 	.inst	0x0209001c ; undefined
     7e0:	000817a0 	.inst	0x000817a0 ; undefined
     7e4:	00000000 	udf	#0
     7e8:	2f150518 	ushr	v24.4h, v8.4h, #11
     7ec:	052e2305 	mov	z5.h, z24.h[3]
     7f0:	1d052e29 	.inst	0x1d052e29 ; undefined
     7f4:	210e0520 	.inst	0x210e0520 ; undefined
     7f8:	052e1405 	ext	z5.b, z5.b, z0.b, #117
     7fc:	2d051f33 	stp	s19, s7, [x25, #40]
     800:	2e200521 	uhadd	v1.8b, v9.8b, v0.8b
     804:	05210105 	ext	z5.b, z5.b, z8.b, #8
     808:	09053025 	.inst	0x09053025 ; undefined
     80c:	2e05053d 	.inst	0x2e05053d ; undefined
     810:	054d1005 	.inst	0x054d1005 ; undefined
     814:	14054a0e 	b	15304c <bss_end+0xca29c>
     818:	4a12052f 	eor	w15, w9, w18, lsl #1
     81c:	052f1805 	ext	z5.b, z5.b, z0.b, #126
     820:	19054a16 	.inst	0x19054a16 ; undefined
     824:	4a17052f 	eor	w15, w9, w23, lsl #1
     828:	052f1905 	ext	z5.b, z5.b, z8.b, #126
     82c:	12054a17 	and	w23, w16, #0xf8003fff
     830:	4a10052f 	eor	w15, w9, w16, lsl #1
     834:	052f1c05 	ext	z5.b, z5.b, z0.b, #127
     838:	052f4a1a 	.inst	0x052f4a1a ; undefined
     83c:	1a054a18 	.inst	0x1a054a18 ; undefined
     840:	4a18052f 	eor	w15, w9, w24, lsl #1
     844:	052f1905 	ext	z5.b, z5.b, z8.b, #126
     848:	05054a17 	.inst	0x05054a17 ; undefined
     84c:	053c7503 	trn2	z3.b, z8.b, z28.b
     850:	200c0301 	.inst	0x200c0301 ; undefined
     854:	05301a05 	ext	z5.b, z5.b, z16.b, #134
     858:	0f053d03 	.inst	0x0f053d03 ; undefined
     85c:	3003053d 	adr	x29, 6901 <bss_size+0x68a0>
     860:	05303905 	.inst	0x05303905 ; undefined
     864:	32053c21 	orr	w1, w1, #0xf80007ff
     868:	20090520 	.inst	0x20090520 ; undefined
     86c:	05213905 	.inst	0x05213905 ; undefined
     870:	32053c21 	orr	w1, w1, #0xf80007ff
     874:	20090520 	.inst	0x20090520 ; undefined
     878:	05213305 	tbl	z5.b, {z24.b}, z1.b
     87c:	2c053c1b 	stnp	s27, s15, [x0, #40]
     880:	20490520 	.inst	0x20490520 ; undefined
     884:	053c4205 	.inst	0x053c4205 ; undefined
     888:	0d052009 	.inst	0x0d052009 ; undefined
     88c:	2f070521 	mvni	v1.2s, #0xe9
     890:	05250805 	ext	z5.b, z5.b, z0.b, #42
     894:	0505210c 	.inst	0x0505210c ; undefined
     898:	ca09053c 	eor	x28, x9, x9, lsl #1
     89c:	053d1605 	ext	z5.b, z5.b, z16.b, #237
     8a0:	052f3d09 	.inst	0x052f3d09 ; undefined
     8a4:	18052f11 	ldr	w17, ae84 <bss_size+0xae23>
     8a8:	3d110521 	str	b1, [x9, #1089]
     8ac:	053e1f05 	ext	z5.b, z5.b, z24.b, #247
     8b0:	11055815 	add	w21, w0, #0x156
     8b4:	5922052e 	.inst	0x5922052e ; undefined
     8b8:	054a1605 	.inst	0x054a1605 ; undefined
     8bc:	05223d09 	.inst	0x05223d09 ; undefined
     8c0:	09053d16 	.inst	0x09053d16 ; undefined
     8c4:	2316053d 	.inst	0x2316053d ; undefined
     8c8:	053d0e05 	ext	z5.b, z5.b, z16.b, #235
     8cc:	14052f16 	b	14c524 <bss_end+0xc3774>
     8d0:	211a053c 	.inst	0x211a053c ; undefined
     8d4:	053c1805 	ext	z5.b, z5.b, z0.b, #230
     8d8:	27052109 	.inst	0x27052109 ; undefined
     8dc:	2e20053d 	uhadd	v29.8b, v9.8b, v0.8b
     8e0:	052e0905 	ext	z5.b, z5.b, z8.b, #114
     8e4:	1f052126 	fmadd	s6, s9, s5, s8
     8e8:	2e0c052e 	.inst	0x2e0c052e ; undefined
     8ec:	2f580b05 	mla	v5.4h, v24.4h, v8.h[5]
     8f0:	053d1905 	ext	z5.b, z5.b, z8.b, #238
     8f4:	3205200b 	orr	w11, w0, #0xf800000f
     8f8:	03040200 	.inst	0x03040200 ; undefined
     8fc:	00220520 	.inst	0x00220520 ; NYI
     900:	3c010402 	str	b2, [x0], #16
     904:	05680905 	ext	z5.b, {z8.b, z9.b}, #66
     908:	09053016 	.inst	0x09053016 ; undefined
     90c:	3d12053e 	str	b30, [x9, #1153]
     910:	2f200b05 	.inst	0x2f200b05 ; undefined
     914:	2211053d 	.inst	0x2211053d ; undefined
     918:	05200905 	ext	z5.b, z5.b, z8.b, #2
     91c:	04020023 	.inst	0x04020023 ; undefined
     920:	0b052103 	add	w3, w8, w5, lsl #8
     924:	03040200 	.inst	0x03040200 ; undefined
     928:	0029053c 	.inst	0x0029053c ; NYI
     92c:	2d030402 	stp	s2, s1, [x0, #24]
     930:	02002205 	.inst	0x02002205 ; undefined
     934:	053c0104 	ext	z4.b, z4.b, z8.b, #224
     938:	0402001a 	.inst	0x0402001a ; undefined
     93c:	09052001 	.inst	0x09052001 ; undefined
     940:	2f1d053e 	ushr	v30.4h, v9.4h, #3
     944:	05202505 	.inst	0x05202505 ; undefined
     948:	16052011 	b	fffffffff814898c <bss_end+0xfffffffff80bfbdc>
     94c:	4c09052f 	.inst	0x4c09052f ; undefined
     950:	05221605 	ext	z5.b, z5.b, z16.b, #21
     954:	0b053d09 	add	w9, w8, w5, lsl #15
     958:	03090522 	.inst	0x03090522 ; undefined
     95c:	18052e4e 	ldr	w14, af24 <bss_size+0xaec3>
     960:	0305053c 	.inst	0x0305053c ; undefined
     964:	054b2e34 	.inst	0x054b2e34 ; undefined
     968:	08053e01 	stxrb	w5, w1, [x16]
     96c:	3d01051f 	str	b31, [x8, #65]
     970:	053e3f05 	.inst	0x053e3f05 ; undefined
     974:	03054b0f 	.inst	0x03054b0f ; undefined
     978:	30390530 	adr	x16, 72a1d <bss_size+0x729bc>
     97c:	053c2105 	mov	z5.s, z8.s[3]
     980:	09052032 	.inst	0x09052032 ; undefined
     984:	21390520 	.inst	0x21390520 ; undefined
     988:	053c2105 	mov	z5.s, z8.s[3]
     98c:	09052032 	.inst	0x09052032 ; undefined
     990:	212e0520 	.inst	0x212e0520 ; undefined
     994:	053c1605 	ext	z5.b, z5.b, z16.b, #229
     998:	44052027 	cmla	z7.b, z1.b, z5.b, #0
     99c:	3c3d0520 	.inst	0x3c3d0520 ; undefined
     9a0:	05200d05 	ext	z5.b, z5.b, z8.b, #3
     9a4:	0d05200b 	.inst	0x0d05200b ; undefined
     9a8:	2f07053e 	mvni	v30.2s, #0xe9
     9ac:	05250805 	ext	z5.b, z5.b, z0.b, #42
     9b0:	0505210c 	.inst	0x0505210c ; undefined
     9b4:	ca16053c 	eor	x28, x9, x22, lsl #1
     9b8:	053e1805 	ext	z5.b, z5.b, z0.b, #246
     9bc:	1f053d11 	fmadd	s17, s8, s5, s15
     9c0:	5815053e 	ldr	x30, 2aa64 <bss_size+0x2aa03>
     9c4:	052e1105 	ext	z5.b, z5.b, z8.b, #116
     9c8:	16055922 	b	fffffffff8156e50 <bss_end+0xfffffffff80ce0a0>
     9cc:	3d09054a 	str	b10, [x10, #577]
     9d0:	05221605 	ext	z5.b, z5.b, z16.b, #21
     9d4:	16053d09 	b	fffffffff814fdf8 <bss_end+0xfffffffff80c7048>
     9d8:	3e0e0522 	.inst	0x3e0e0522 ; undefined
     9dc:	052f1605 	ext	z5.b, z5.b, z16.b, #125
     9e0:	1a053c14 	.inst	0x1a053c14 ; undefined
     9e4:	3c180521 	str	b1, [x9], #-128
     9e8:	05221605 	ext	z5.b, z5.b, z16.b, #21
     9ec:	09053e3c 	.inst	0x09053e3c ; undefined
     9f0:	6812052e 	.inst	0x6812052e ; undefined
     9f4:	05200b05 	ext	z5.b, z5.b, z24.b, #2
     9f8:	2505311d 	cmple	p13.b, p4/z, z8.b, #5
     9fc:	20110520 	.inst	0x20110520 ; undefined
     a00:	052f2805 	tbl	z5.b, {z0.b, z1.b}, z15.b
     a04:	16052021 	b	fffffffff8148a88 <bss_end+0xfffffffff80bfcd8>
     a08:	3e09053c 	.inst	0x3e09053c ; undefined
     a0c:	05221605 	ext	z5.b, z5.b, z16.b, #21
     a10:	0b053d09 	add	w9, w8, w5, lsl #15
     a14:	03207803 	.inst	0x03207803 ; undefined
     a18:	0905200a 	.inst	0x0905200a ; undefined
     a1c:	052e5c03 	.inst	0x052e5c03 ; undefined
     a20:	01053c18 	.inst	0x01053c18 ; undefined
     a24:	052e2603 	.inst	0x052e2603 ; undefined
     a28:	0a054c14 	and	w20, w0, w5, lsl #19
     a2c:	3d010513 	str	b19, [x8, #65]
     a30:	01000102 	.inst	0x01000102 ; undefined
     a34:	0000db01 	udf	#56065
     a38:	08000500 	stxrb	w0, w0, [x8]
     a3c:	00004a00 	udf	#18944
     a40:	01010400 	.inst	0x01010400 ; undefined
     a44:	000d0efb 	.inst	0x000d0efb ; undefined
     a48:	01010101 	.inst	0x01010101 ; undefined
     a4c:	01000000 	.inst	0x01000000 ; undefined
     a50:	01010000 	.inst	0x01010000 ; undefined
     a54:	0e041f01 	.inst	0x0e041f01 ; undefined
     a58:	2e000000 	ext	v0.8b, v0.8b, v0.8b, #0
     a5c:	68000000 	.inst	0x68000000 ; undefined
     a60:	40000000 	.inst	0x40000000 ; undefined
     a64:	02000000 	.inst	0x02000000 ; undefined
     a68:	0f021f01 	.inst	0x0f021f01 ; undefined
     a6c:	0000ec06 	udf	#60422
     a70:	00ec0100 	.inst	0x00ec0100 ; undefined
     a74:	f8010000 	stur	x0, [x0, #16]
     a78:	02000000 	.inst	0x02000000 ; undefined
     a7c:	00000104 	udf	#260
     a80:	00009003 	udf	#36867
     a84:	009a0200 	.inst	0x009a0200 ; undefined
     a88:	05020000 	orr	z0.d, z0.d, #0x1
     a8c:	02090016 	.inst	0x02090016 ; undefined
     a90:	00081e88 	.inst	0x00081e88 ; undefined
     a94:	00000000 	udf	#0
     a98:	2f030518 	mvni	v24.2s, #0x68
     a9c:	2f3d6d40 	.inst	0x2f3d6d40 ; undefined
     aa0:	2f2f3d2f 	.inst	0x2f2f3d2f ; undefined
     aa4:	0a052f3d 	and	w29, w25, w5, lsl #11
     aa8:	21010530 	.inst	0x21010530 ; undefined
     aac:	05302905 	tbl	z5.b, {z8.b, z9.b}, z16.b
     ab0:	03053f0f 	.inst	0x03053f0f ; undefined
     ab4:	0812052e 	stxrb	w18, w14, [x9]
     ab8:	2e1005f4 	.inst	0x2e1005f4 ; undefined
     abc:	052f0705 	ext	z5.b, z5.b, z24.b, #121
     ac0:	1205222b 	and	w11, w17, #0xf800000f
     ac4:	7410052e 	.inst	0x7410052e ; undefined
     ac8:	052f0705 	ext	z5.b, z5.b, z24.b, #121
     acc:	1205222c 	and	w12, w17, #0xf800000f
     ad0:	7410052e 	.inst	0x7410052e ; undefined
     ad4:	052f0705 	ext	z5.b, z5.b, z24.b, #121
     ad8:	12052227 	and	w7, w17, #0xf800000f
     adc:	2038052e 	.inst	0x2038052e ; undefined
     ae0:	052e1205 	ext	z5.b, z5.b, z16.b, #116
     ae4:	07054a10 	.inst	0x07054a10 ; undefined
     ae8:	222f222f 	.inst	0x222f222f ; undefined
     aec:	22250521 	.inst	0x22250521 ; undefined
     af0:	052e1205 	ext	z5.b, z5.b, z16.b, #116
     af4:	1205203e 	and	w30, w1, #0xf800000f
     af8:	4a10052e 	eor	w14, w9, w16, lsl #1
     afc:	052f0705 	ext	z5.b, z5.b, z24.b, #121
     b00:	07052215 	.inst	0x07052215 ; undefined
     b04:	3d27212e 	str	b14, [x9, #2504]
     b08:	280a051b 	stnp	w27, w1, [x8, #80]
     b0c:	02210105 	.inst	0x02210105 ; undefined
     b10:	01010002 	.inst	0x01010002 ; undefined
     b14:	00000089 	udf	#137
     b18:	00080005 	.inst	0x00080005 ; undefined
     b1c:	00000037 	udf	#55
     b20:	fb010104 	.inst	0xfb010104 ; undefined
     b24:	01000d0e 	.inst	0x01000d0e ; undefined
     b28:	00010101 	.inst	0x00010101 ; undefined
     b2c:	00010000 	.inst	0x00010000 ; undefined
     b30:	01010100 	.inst	0x01010100 ; undefined
     b34:	000e031f 	.inst	0x000e031f ; undefined
     b38:	002e0000 	.inst	0x002e0000 ; NYI
     b3c:	00680000 	.inst	0x00680000 ; undefined
     b40:	01020000 	.inst	0x01020000 ; undefined
     b44:	030f021f 	.inst	0x030f021f ; undefined
     b48:	00000111 	udf	#273
     b4c:	00011101 	.inst	0x00011101 ; undefined
     b50:	01180100 	.inst	0x01180100 ; undefined
     b54:	05020000 	orr	z0.d, z0.d, #0x1
     b58:	02090011 	.inst	0x02090011 ; undefined
     b5c:	000820c4 	.inst	0x000820c4 ; undefined
     b60:	00000000 	udf	#0
     b64:	21650516 	.inst	0x21650516 ; undefined
     b68:	054a6e05 	.inst	0x054a6e05 ; undefined
     b6c:	30052016 	adr	x22, af6d <bss_size+0xaf0c>
     b70:	2e0e054b 	.inst	0x2e0e054b ; undefined
     b74:	053c0c05 	ext	z5.b, z5.b, z0.b, #227
     b78:	1b053d01 	madd	w1, w8, w5, w15
     b7c:	310f053e 	adds	w30, w9, #0x3c1
     b80:	053c0505 	ext	z5.b, z5.b, z8.b, #225
     b84:	09052f0e 	.inst	0x09052f0e ; undefined
     b88:	4b0f055a 	sub	w26, w10, w15, lsl #1
     b8c:	05581505 	mov	z5.h, p8/z, #-88
     b90:	0c053c05 	.inst	0x0c053c05 ; undefined
     b94:	0a052f2f 	and	w15, w25, w5, lsl #11
     b98:	21010584 	.inst	0x21010584 ; undefined
     b9c:	01000202 	.inst	0x01000202 ; undefined
     ba0:	00022a01 	.inst	0x00022a01 ; undefined
     ba4:	08000500 	stxrb	w0, w0, [x8]
     ba8:	00004f00 	udf	#20224
     bac:	01010400 	.inst	0x01010400 ; undefined
     bb0:	000d0efb 	.inst	0x000d0efb ; undefined
     bb4:	01010101 	.inst	0x01010101 ; undefined
     bb8:	01000000 	.inst	0x01000000 ; undefined
     bbc:	01010000 	.inst	0x01010000 ; undefined
     bc0:	0e041f01 	.inst	0x0e041f01 ; undefined
     bc4:	2e000000 	ext	v0.8b, v0.8b, v0.8b, #0
     bc8:	68000000 	.inst	0x68000000 ; undefined
     bcc:	40000000 	.inst	0x40000000 ; undefined
     bd0:	02000000 	.inst	0x02000000 ; undefined
     bd4:	0f021f01 	.inst	0x0f021f01 ; undefined
     bd8:	00012307 	.inst	0x00012307 ; undefined
     bdc:	01230100 	.inst	0x01230100 ; undefined
     be0:	b7010000 	tbnz	x0, #32, 2be0 <bss_size+0x2b7f>
     be4:	02000000 	.inst	0x02000000 ; undefined
     be8:	0000007a 	udf	#122
     bec:	0000db03 	udf	#56067
     bf0:	00a60200 	.inst	0x00a60200 ; undefined
     bf4:	9a020000 	adc	x0, x0, x2
     bf8:	02000000 	.inst	0x02000000 ; undefined
     bfc:	09001305 	.inst	0x09001305 ; undefined
     c00:	0821b402 	.inst	0x0821b402 ; undefined
     c04:	00000000 	udf	#0
     c08:	01090300 	.inst	0x01090300 ; undefined
     c0c:	052f0905 	ext	z5.b, z5.b, z8.b, #122
     c10:	0a054d08 	and	w8, w8, w5, lsl #19
     c14:	2f210522 	ushr	v2.2s, v9.2s, #31
     c18:	052e1405 	ext	z5.b, z5.b, z0.b, #117
     c1c:	14053d21 	b	1500a0 <bss_end+0xc72f0>
     c20:	3e22052e 	.inst	0x3e22052e ; undefined
     c24:	054a4405 	.inst	0x054a4405 ; undefined
     c28:	0d052e09 	.inst	0x0d052e09 ; undefined
     c2c:	20050530 	.inst	0x20050530 ; undefined
     c30:	02003205 	.inst	0x02003205 ; undefined
     c34:	05210304 	ext	z4.b, z4.b, z24.b, #8
     c38:	04020015 	.inst	0x04020015 ; undefined
     c3c:	13054a03 	sbfx	w3, w16, #5, #14
     c40:	03040200 	.inst	0x03040200 ; undefined
     c44:	00230520 	.inst	0x00230520 ; NYI
     c48:	3b030402 	.inst	0x3b030402 ; undefined
     c4c:	02001605 	.inst	0x02001605 ; undefined
     c50:	053c0104 	ext	z4.b, z4.b, z8.b, #224
     c54:	05054d18 	.inst	0x05054d18 ; undefined
     c58:	19052f3d 	.inst	0x19052f3d ; undefined
     c5c:	4a360530 	eon	w16, w9, w22, lsl #1
     c60:	053c0d05 	ext	z5.b, z5.b, z8.b, #227
     c64:	3c71030a 	.inst	0x3c71030a ; undefined
     c68:	05582505 	mov	z5.h, p8/z, #10240
     c6c:	04020036 	.inst	0x04020036 ; undefined
     c70:	28052e01 	stnp	w1, w11, [x16, #40]
     c74:	01040200 	.inst	0x01040200 ; undefined
     c78:	0025052e 	.inst	0x0025052e ; NYI
     c7c:	58010402 	ldr	x2, 2cfc <bss_size+0x2c9b>
     c80:	12030105 	and	w5, w8, #0x20000000
     c84:	3e20052e 	.inst	0x3e20052e ; undefined
     c88:	053d0905 	ext	z5.b, z5.b, z8.b, #234
     c8c:	0a054d08 	and	w8, w8, w5, lsl #19
     c90:	2f210521 	ushr	v1.2s, v9.2s, #31
     c94:	052e1405 	ext	z5.b, z5.b, z0.b, #117
     c98:	14053d21 	b	15011c <bss_end+0xc736c>
     c9c:	3d3d052e 	str	b14, [x9, #3905]
     ca0:	053c0905 	ext	z5.b, z5.b, z8.b, #226
     ca4:	18052f22 	ldr	w2, b288 <bss_size+0xb227>
     ca8:	2e090558 	.inst	0x2e090558 ; undefined
     cac:	055a2105 	mov	z5.h, p10/z, #2048
     cb0:	07052e09 	.inst	0x07052e09 ; undefined
     cb4:	2f0f053c 	ushr	v28.8b, v9.8b, #1
     cb8:	05200705 	ext	z5.b, z5.b, z24.b, #1
     cbc:	0402003a 	.inst	0x0402003a ; undefined
     cc0:	44052103 	cmla	z3.b, z8.b, z5.b, #0
     cc4:	03040200 	.inst	0x03040200 ; undefined
     cc8:	0009053c 	.inst	0x0009053c ; undefined
     ccc:	58030402 	ldr	x2, 6d4c <bss_size+0x6ceb>
     cd0:	02002505 	.inst	0x02002505 ; undefined
     cd4:	052d0304 	ext	z4.b, z4.b, z24.b, #104
     cd8:	04020018 	.inst	0x04020018 ; undefined
     cdc:	07053c01 	.inst	0x07053c01 ; undefined
     ce0:	19052f4c 	.inst	0x19052f4c ; undefined
     ce4:	4a360522 	eon	w2, w9, w22, lsl #1
     ce8:	052e4005 	zip1	p5.b, p0.b, p14.b
     cec:	0a053c0d 	and	w13, w0, w5, lsl #15
     cf0:	053c7303 	trn1	z3.b, z24.b, z28.b
     cf4:	36055825 	tbz	w5, #0, ffffffffffffb7f8 <bss_end+0xfffffffffff72a48>
     cf8:	01040200 	.inst	0x01040200 ; undefined
     cfc:	0028052e 	.inst	0x0028052e ; NYI
     d00:	2e010402 	.inst	0x2e010402 ; undefined
     d04:	02002505 	.inst	0x02002505 ; undefined
     d08:	05580104 	mov	z4.h, p8/z, #8
     d0c:	2e0f0303 	ext	v3.8b, v24.8b, v15.8b, #0
     d10:	01052f3d 	.inst	0x01052f3d ; undefined
     d14:	3034053d 	adr	x29, 68db9 <bss_size+0x68d58>
     d18:	054b0705 	.inst	0x054b0705 ; undefined
     d1c:	0e054a05 	.inst	0x0e054a05 ; undefined
     d20:	3d29052f 	str	b15, [x9, #2625]
     d24:	052e1e05 	ext	z5.b, z5.b, z16.b, #119
     d28:	13052015 	sbfx	w21, w0, #5, #4
     d2c:	3e070520 	.inst	0x3e070520 ; undefined
     d30:	054a0505 	.inst	0x054a0505 ; undefined
     d34:	27052f0e 	.inst	0x27052f0e ; undefined
     d38:	2e1c053d 	.inst	0x2e1c053d ; undefined
     d3c:	05201305 	ext	z5.b, z5.b, z24.b, #4
     d40:	01052011 	.inst	0x01052011 ; undefined
     d44:	3f21053e 	.inst	0x3f21053e ; undefined
     d48:	053d0905 	ext	z5.b, z5.b, z8.b, #234
     d4c:	0a054d08 	and	w8, w8, w5, lsl #19
     d50:	2f210521 	ushr	v1.2s, v9.2s, #31
     d54:	052e1405 	ext	z5.b, z5.b, z0.b, #117
     d58:	14053d21 	b	1501dc <bss_end+0xc742c>
     d5c:	3d3d052e 	str	b14, [x9, #3905]
     d60:	053c0905 	ext	z5.b, z5.b, z8.b, #226
     d64:	18052f22 	ldr	w2, b348 <bss_size+0xb2e7>
     d68:	2e090558 	.inst	0x2e090558 ; undefined
     d6c:	055a2105 	mov	z5.h, p10/z, #2048
     d70:	07052e09 	.inst	0x07052e09 ; undefined
     d74:	3011053c 	adr	x28, 22e19 <bss_size+0x22db8>
     d78:	054b3b05 	.inst	0x054b3b05 ; undefined
     d7c:	19054a0e 	.inst	0x19054a0e ; undefined
     d80:	4a36053e 	eon	w30, w9, w22, lsl #1
     d84:	052e4005 	zip1	p5.b, p0.b, p14.b
     d88:	0a053c0d 	and	w13, w0, w5, lsl #15
     d8c:	053c7403 	trn2	z3.b, z0.b, z28.b
     d90:	36055825 	tbz	w5, #0, ffffffffffffb894 <bss_end+0xfffffffffff72ae4>
     d94:	01040200 	.inst	0x01040200 ; undefined
     d98:	0028052e 	.inst	0x0028052e ; NYI
     d9c:	2e010402 	.inst	0x2e010402 ; undefined
     da0:	02002505 	.inst	0x02002505 ; undefined
     da4:	05580104 	mov	z4.h, p8/z, #8
     da8:	2e0e030a 	ext	v10.8b, v24.8b, v14.8b, #0
     dac:	05210105 	ext	z5.b, z5.b, z8.b, #8
     db0:	0a053019 	and	w25, w0, w5, lsl #12
     db4:	3d010513 	str	b19, [x8, #65]
     db8:	05221705 	ext	z5.b, z5.b, z24.b, #21
     dbc:	0105130a 	.inst	0x0105130a ; undefined
     dc0:	2214053d 	.inst	0x2214053d ; undefined
     dc4:	05130a05 	mov	z5.b, p3/z, #80
     dc8:	01023d01 	.inst	0x01023d01 ; undefined
     dcc:	cb010100 	sub	x0, x8, x1
     dd0:	05000002 	orr	z2.s, z2.s, #0x1
     dd4:	4f000800 	.inst	0x4f000800 ; undefined
     dd8:	04000000 	add	z0.b, p0/m, z0.b, z0.b
     ddc:	0efb0101 	.inst	0x0efb0101 ; undefined
     de0:	0101000d 	.inst	0x0101000d ; undefined
     de4:	00000101 	udf	#257
     de8:	00000100 	udf	#256
     dec:	1f010101 	fmadd	s1, s8, s1, s0
     df0:	00000e04 	udf	#3588
     df4:	00002e00 	udf	#11776
     df8:	00004000 	udf	#16384
     dfc:	00006800 	udf	#26624
     e00:	1f010200 	fmadd	s0, s16, s1, s0
     e04:	30070f02 	adr	x2, efe5 <bss_size+0xef84>
     e08:	01000001 	.inst	0x01000001 ; undefined
     e0c:	00000130 	udf	#304
     e10:	00007a01 	udf	#31233
     e14:	013c0200 	.inst	0x013c0200 ; undefined
     e18:	9a030000 	adc	x0, x0, x3
     e1c:	03000000 	.inst	0x03000000 ; undefined
     e20:	000000af 	udf	#175
     e24:	00014803 	.inst	0x00014803 ; undefined
     e28:	3b050300 	.inst	0x3b050300 ; undefined
     e2c:	b8020900 	sttr	w0, [x8, #32]
     e30:	00000826 	udf	#2086
     e34:	03000000 	.inst	0x03000000 ; undefined
     e38:	2705010e 	.inst	0x2705010e ; undefined
     e3c:	3d05054c 	str	b12, [x10, #321]
     e40:	3d0c053d 	str	b29, [x9, #769]
     e44:	4b311605 	.inst	0x4b311605 ; undefined
     e48:	053d1205 	ext	z5.b, z5.b, z16.b, #236
     e4c:	054b300f 	.inst	0x054b300f ; undefined
     e50:	0a052208 	and	w8, w16, w5, lsl #8
     e54:	2f0d0521 	ushr	v1.8b, v9.8b, #3
     e58:	053a1805 	ext	z5.b, z5.b, z0.b, #214
     e5c:	04020023 	.inst	0x04020023 ; undefined
     e60:	38053c01 	strb	w1, [x0, #83]!
     e64:	01040200 	.inst	0x01040200 ; undefined
     e68:	0018052e 	.inst	0x0018052e ; undefined
     e6c:	2e010402 	.inst	0x2e010402 ; undefined
     e70:	05330505 	ext	z5.b, z5.b, z8.b, #153
     e74:	13053d14 	sbfx	w20, w8, #5, #11
     e78:	5b100559 	.inst	0x5b100559 ; undefined
     e7c:	053d1405 	ext	z5.b, z5.b, z0.b, #237
     e80:	01053f0a 	.inst	0x01053f0a ; undefined
     e84:	36100521 	tbz	w1, #2, f28 <bss_size+0xec7>
     e88:	052f0b05 	ext	z5.b, z5.b, z24.b, #122
     e8c:	052f3c05 	.inst	0x052f3c05 ; undefined
     e90:	03054b09 	.inst	0x03054b09 ; undefined
     e94:	2f010576 	mvni	v22.2s, #0x2b
     e98:	0a031c05 	and	w5, w0, w3, lsl #7
     e9c:	3d07052e 	str	b14, [x9, #449]
     ea0:	054b0605 	.inst	0x054b0605 ; undefined
     ea4:	11053c05 	add	w5, w0, #0x14f
     ea8:	3c07052f 	str	b15, [x9], #112
     eac:	2113053d 	.inst	0x2113053d ; undefined
     eb0:	054b1905 	.inst	0x054b1905 ; undefined
     eb4:	24053c13 	cmpne	p3.b, p7/z, z0.b, z5.d
     eb8:	4a15053d 	eor	w29, w9, w21, lsl #1
     ebc:	053d0705 	ext	z5.b, z5.b, z24.b, #233
     ec0:	0705210b 	.inst	0x0705210b ; undefined
     ec4:	2113052e 	.inst	0x2113052e ; undefined
     ec8:	054c0c05 	.inst	0x054c0c05 ; undefined
     ecc:	13053207 	sbfx	w7, w16, #5, #8
     ed0:	4b190521 	sub	w1, w9, w25, lsl #1
     ed4:	053c1305 	ext	z5.b, z5.b, z24.b, #228
     ed8:	15053d24 	b	4150368 <bss_end+0x40c75b8>
     edc:	3d07054a 	str	b10, [x10, #449]
     ee0:	05220b05 	ext	z5.b, z5.b, z24.b, #18
     ee4:	05222e07 	tbx	z7.b, z16.b, z2.b
     ee8:	2e77030b 	uaddl	v11.4s, v24.4h, v23.4h
     eec:	0b031105 	add	w5, w8, w3, lsl #4
     ef0:	3e0a0558 	.inst	0x3e0a0558 ; undefined
     ef4:	05210105 	ext	z5.b, z5.b, z8.b, #8
     ef8:	03053010 	.inst	0x03053010 ; undefined
     efc:	2107052f 	.inst	0x2107052f ; undefined
     f00:	05210605 	ext	z5.b, z5.b, z16.b, #9
     f04:	05053c15 	.inst	0x05053c15 ; undefined
     f08:	2f100520 	ushr	v0.4h, v9.4h, #16
     f0c:	053e0b05 	ext	z5.b, z5.b, z24.b, #242
     f10:	0a053c1d 	and	w29, w0, w5, lsl #15
     f14:	2f050520 	mvni	v0.2s, #0xa9
     f18:	05210e05 	ext	z5.b, z5.b, z16.b, #11
     f1c:	05592f05 	mov	z5.h, p9/z, #30720
     f20:	05212203 	mov	z3.b, b16
     f24:	0105300a 	.inst	0x0105300a ; undefined
     f28:	30160521 	adr	x1, 2cfcd <bss_size+0x2cf6c>
     f2c:	052f0305 	ext	z5.b, z5.b, z24.b, #120
     f30:	15052106 	b	4149348 <bss_end+0x40c0598>
     f34:	2005053c 	.inst	0x2005053c ; undefined
     f38:	052f0805 	ext	z5.b, z5.b, z0.b, #122
     f3c:	07053c18 	.inst	0x07053c18 ; undefined
     f40:	30170520 	adr	x0, 2efe5 <bss_size+0x2ef84>
     f44:	05750705 	ext	z5.b, {z24.b, z25.b}, #169
     f48:	1d05300d 	.inst	0x1d05300d ; undefined
     f4c:	200c053c 	.inst	0x200c053c ; undefined
     f50:	05301705 	ext	z5.b, z5.b, z24.b, #133
     f54:	0b057507 	add	w7, w8, w5, lsl #29
     f58:	3c1d0531 	str	b17, [x9], #-48
     f5c:	05200a05 	ext	z5.b, z5.b, z16.b, #2
     f60:	213d3005 	.inst	0x213d3005 ; undefined
     f64:	23030521 	.inst	0x23030521 ; undefined
     f68:	05210a05 	ext	z5.b, z5.b, z16.b, #10
     f6c:	12052101 	and	w1, w8, #0xf800000f
     f70:	2f030530 	mvni	v16.2s, #0x69
     f74:	21010521 	.inst	0x21010521 ; undefined
     f78:	053e1305 	ext	z5.b, z5.b, z24.b, #244
     f7c:	01051303 	.inst	0x01051303 ; undefined
     f80:	33190521 	bfi	w1, w9, #7, #2
     f84:	05220305 	ext	z5.b, z5.b, z24.b, #16
     f88:	03052f07 	.inst	0x03052f07 ; undefined
     f8c:	01052f3d 	.inst	0x01052f3d ; undefined
     f90:	05740903 	ext	z3.b, {z8.b, z9.b}, #162
     f94:	03053e1a 	.inst	0x03053e1a ; undefined
     f98:	2f010513 	mvni	v19.2s, #0x28
     f9c:	05301805 	ext	z5.b, z5.b, z0.b, #134
     fa0:	08052f1b 	stxrb	w5, w27, [x24]
     fa4:	210e0530 	.inst	0x210e0530 ; undefined
     fa8:	054b1505 	.inst	0x054b1505 ; undefined
     fac:	08052e10 	stxrb	w5, w16, [x16]
     fb0:	2e05053d 	.inst	0x2e05053d ; undefined
     fb4:	2a14053d 	orr	w29, w9, w20, lsl #1
     fb8:	053c1c05 	ext	z5.b, z5.b, z0.b, #231
     fbc:	04020029 	.inst	0x04020029 ; undefined
     fc0:	1c052e01 	ldr	s1, b580 <bss_size+0xb51f>
     fc4:	01040200 	.inst	0x01040200 ; undefined
     fc8:	4306054a 	.inst	0x4306054a ; undefined
     fcc:	053c0505 	ext	z5.b, z5.b, z8.b, #225
     fd0:	0505323d 	.inst	0x0505323d ; undefined
     fd4:	0a05324a 	and	w10, w18, w5, lsl #12
     fd8:	21010534 	.inst	0x21010534 ; undefined
     fdc:	05341c05 	ext	z5.b, z5.b, z0.b, #167
     fe0:	06053007 	.inst	0x06053007 ; undefined
     fe4:	3c160521 	str	b1, [x9], #-160
     fe8:	05200505 	ext	z5.b, z5.b, z8.b, #1
     fec:	07053015 	.inst	0x07053015 ; undefined
     ff0:	2f050576 	mvni	v22.2s, #0xab
     ff4:	05680b05 	ext	z5.b, {z24.b, z25.b}, #66
     ff8:	0a053c1b 	and	w27, w0, w5, lsl #15
     ffc:	30150520 	adr	x0, 2b0a1 <bss_size+0x2b040>
    1000:	05760705 	ext	z5.b, {z24.b, z25.b}, #177
    1004:	0a052f05 	and	w5, w24, w5, lsl #11
    1008:	2101055a 	.inst	0x2101055a ; undefined
    100c:	05301c05 	ext	z5.b, z5.b, z0.b, #135
    1010:	0105140a 	.inst	0x0105140a ; undefined
    1014:	301d0575 	adr	x21, 3b0c1 <bss_size+0x3b060>
    1018:	05131305 	mov	z5.b, p3/z, #-104
    101c:	01057512 	.inst	0x01057512 ; undefined
    1020:	30160575 	adr	x21, 2d0cd <bss_size+0x2d06c>
    1024:	05211305 	ext	z5.b, z5.b, z24.b, #12
    1028:	08057512 	stxrb	w5, w18, [x8]
    102c:	211f053c 	.inst	0x211f053c ; undefined
    1030:	01040200 	.inst	0x01040200 ; undefined
    1034:	02003c06 	.inst	0x02003c06 ; undefined
    1038:	052e0204 	ext	z4.b, z4.b, z16.b, #112
    103c:	04020011 	.inst	0x04020011 ; undefined
    1040:	05200604 	ext	z4.b, z4.b, z16.b, #1
    1044:	0402001f 	.inst	0x0402001f ; undefined
    1048:	1e053c04 	.inst	0x1e053c04 ; undefined
    104c:	04040200 	.inst	0x04040200 ; undefined
    1050:	0022054b 	.inst	0x0022054b ; NYI
    1054:	4a040402 	eor	w2, w0, w4, lsl #1
    1058:	02000f05 	.inst	0x02000f05 ; undefined
    105c:	054a0404 	.inst	0x054a0404 ; undefined
    1060:	04020013 	.inst	0x04020013 ; undefined
    1064:	0a053d04 	and	w4, w8, w5, lsl #15
    1068:	04040200 	.inst	0x04040200 ; undefined
    106c:	00010575 	.inst	0x00010575 ; undefined
    1070:	21040402 	.inst	0x21040402 ; undefined
    1074:	05301605 	ext	z5.b, z5.b, z16.b, #133
    1078:	05051a14 	.inst	0x05051a14 ; undefined
    107c:	2f240566 	ushr	v6.2s, v11.2s, #28
    1080:	05740505 	ext	z5.b, {z8.b, z9.b}, #161
    1084:	24052e14 	cmpne	p4.b, p3/z, z16.b, z5.d
    1088:	4a290521 	eon	w1, w9, w9, lsl #1
    108c:	054a1305 	.inst	0x054a1305 ; undefined
    1090:	05853d15 	.inst	0x05853d15 ; undefined
    1094:	0105770a 	.inst	0x0105770a ; undefined
    1098:	00040221 	.inst	0x00040221 ; undefined
    109c:	00d80101 	.inst	0x00d80101 ; undefined
    10a0:	00050000 	.inst	0x00050000 ; undefined
    10a4:	00370008 	.inst	0x00370008 ; NYI
    10a8:	01040000 	.inst	0x01040000 ; undefined
    10ac:	0d0efb01 	.inst	0x0d0efb01 ; undefined
    10b0:	01010100 	.inst	0x01010100 ; undefined
    10b4:	00000001 	udf	#1
    10b8:	01000001 	.inst	0x01000001 ; undefined
    10bc:	031f0101 	.inst	0x031f0101 ; undefined
    10c0:	0000000e 	udf	#14
    10c4:	0000002e 	udf	#46
    10c8:	00000068 	udf	#104
    10cc:	021f0102 	.inst	0x021f0102 ; undefined
    10d0:	0155030f 	.inst	0x0155030f ; undefined
    10d4:	55010000 	.inst	0x55010000 ; undefined
    10d8:	01000001 	.inst	0x01000001 ; undefined
    10dc:	0000009a 	udf	#154
    10e0:	00430502 	.inst	0x00430502 ; undefined
    10e4:	2ea00209 	uaddl	v9.2d, v16.2s, v0.2s
    10e8:	00000008 	udf	#8
    10ec:	05150000 	mov	z0.b, p5/z, #0
    10f0:	4b053e3d 	sub	w29, w17, w5, lsl #15
    10f4:	2e10052e 	.inst	0x2e10052e ; undefined
    10f8:	05300805 	ext	z5.b, z5.b, z0.b, #130
    10fc:	04020009 	.inst	0x04020009 ; undefined
    1100:	03052001 	.inst	0x03052001 ; undefined
    1104:	2e12055a 	.inst	0x2e12055a ; undefined
    1108:	02000a05 	.inst	0x02000a05 ; undefined
    110c:	05310104 	ext	z4.b, z4.b, z8.b, #136
    1110:	0402000b 	.inst	0x0402000b ; undefined
    1114:	1b052001 	madd	w1, w0, w5, w8
    1118:	01040200 	.inst	0x01040200 ; undefined
    111c:	000b053c 	.inst	0x000b053c ; undefined
    1120:	20010402 	.inst	0x20010402 ; undefined
    1124:	05301005 	ext	z5.b, z5.b, z0.b, #132
    1128:	15053c07 	b	4150144 <bss_end+0x40c7394>
    112c:	3c19053d 	str	b29, [x9], #-112
    1130:	054d0105 	.inst	0x054d0105 ; undefined
    1134:	0e05301a 	tbx	v26.8b, {v0.16b, v1.16b}, v5.8b
    1138:	3d222f30 	str	b16, [x25, #2187]
    113c:	0522212f 	mov	z15.h, h9
    1140:	05052206 	.inst	0x05052206 ; undefined
    1144:	17052f4a 	b	fffffffffc14ce6c <bss_end+0xfffffffffc0c40bc>
    1148:	2005053d 	.inst	0x2005053d ; undefined
    114c:	30010521 	adr	x1, 31f1 <bss_size+0x3190>
    1150:	053e1605 	ext	z5.b, z5.b, z16.b, #245
    1154:	212f300e 	.inst	0x212f300e ; undefined
    1158:	21212f3d 	.inst	0x21212f3d ; undefined
    115c:	21060521 	.inst	0x21060521 ; undefined
    1160:	2f4a0505 	.inst	0x2f4a0505 ; undefined
    1164:	053d1705 	ext	z5.b, z5.b, z24.b, #237
    1168:	05212005 	mov	z5.b, b0
    116c:	05053d17 	.inst	0x05053d17 ; undefined
    1170:	01052120 	.inst	0x01052120 ; undefined
    1174:	00030230 	.inst	0x00030230 ; undefined
    1178:	008c0101 	.inst	0x008c0101 ; undefined
    117c:	00050000 	.inst	0x00050000 ; undefined
    1180:	005a0008 	.inst	0x005a0008 ; undefined
    1184:	01040000 	.inst	0x01040000 ; undefined
    1188:	0d0efb01 	.inst	0x0d0efb01 ; undefined
    118c:	01010100 	.inst	0x01010100 ; undefined
    1190:	00000001 	udf	#1
    1194:	01000001 	.inst	0x01000001 ; undefined
    1198:	031f0101 	.inst	0x031f0101 ; undefined
    119c:	0000000e 	udf	#14
    11a0:	0000002e 	udf	#46
    11a4:	00000068 	udf	#104
    11a8:	021f0102 	.inst	0x021f0102 ; undefined
    11ac:	01630a0f 	.inst	0x01630a0f ; undefined
    11b0:	63010000 	.inst	0x63010000 ; undefined
    11b4:	01000001 	.inst	0x01000001 ; undefined
    11b8:	00000118 	udf	#280
    11bc:	00016a02 	.inst	0x00016a02 ; undefined
    11c0:	013c0200 	.inst	0x013c0200 ; undefined
    11c4:	87020000 	.inst	0x87020000 ; undefined
    11c8:	02000000 	.inst	0x02000000 ; undefined
    11cc:	00000148 	udf	#328
    11d0:	0000db02 	udf	#56066
    11d4:	00b70200 	.inst	0x00b70200 ; undefined
    11d8:	9a020000 	adc	x0, x0, x2
    11dc:	02000000 	.inst	0x02000000 ; undefined
    11e0:	09001905 	.inst	0x09001905 ; undefined
    11e4:	08304402 	.inst	0x08304402 ; undefined
    11e8:	00000000 	udf	#0
    11ec:	01110300 	.inst	0x01110300 ; undefined
    11f0:	214b0505 	.inst	0x214b0505 ; undefined
    11f4:	22214b21 	.inst	0x22214b21 ; undefined
    11f8:	59913d22 	.inst	0x59913d22 ; undefined
    11fc:	21764b67 	.inst	0x21764b67 ; undefined
    1200:	01052521 	.inst	0x01052521 ; undefined
    1204:	00040221 	.inst	0x00040221 ; undefined
    1208:	055b0101 	mov	z1.h, p11/z, #8
    120c:	00050000 	.inst	0x00050000 ; undefined
    1210:	00410008 	.inst	0x00410008 ; undefined
    1214:	01040000 	.inst	0x01040000 ; undefined
    1218:	0d0efb01 	.inst	0x0d0efb01 ; undefined
    121c:	01010100 	.inst	0x01010100 ; undefined
    1220:	00000001 	udf	#1
    1224:	01000001 	.inst	0x01000001 ; undefined
    1228:	031f0101 	.inst	0x031f0101 ; undefined
    122c:	0000000e 	udf	#14
    1230:	0000002e 	udf	#46
    1234:	00000068 	udf	#104
    1238:	021f0102 	.inst	0x021f0102 ; undefined
    123c:	0176050f 	.inst	0x0176050f ; undefined
    1240:	76010000 	.inst	0x76010000 ; undefined
    1244:	01000001 	.inst	0x01000001 ; undefined
    1248:	00000148 	udf	#328
    124c:	00009a02 	udf	#39426
    1250:	01180200 	.inst	0x01180200 ; undefined
    1254:	05020000 	orr	z0.d, z0.d, #0x1
    1258:	02090024 	.inst	0x02090024 ; undefined
    125c:	00083120 	.inst	0x00083120 ; undefined
    1260:	00000000 	udf	#0
    1264:	05010c03 	orr	z3.h, z3.h, #0x8000
    1268:	20053d14 	.inst	0x20053d14 ; undefined
    126c:	580c053c 	ldr	x28, 19310 <bss_size+0x192af>
    1270:	052f0f05 	ext	z5.b, z5.b, z24.b, #123
    1274:	16054a05 	b	fffffffff8153a88 <bss_end+0xfffffffff80cacd8>
    1278:	5911052f 	.inst	0x5911052f ; undefined
    127c:	4401053d 	.inst	0x4401053d ; undefined
    1280:	7a031e05 	.inst	0x7a031e05 ; undefined
    1284:	4a0e0520 	eor	w0, w9, w14, lsl #1
    1288:	4a1c052f 	eor	w15, w9, w28, lsl #1
    128c:	4a11052f 	eor	w15, w9, w17, lsl #1
    1290:	3d10052f 	str	b15, [x9, #1025]
    1294:	053e0105 	ext	z5.b, z5.b, z8.b, #240
    1298:	14053e24 	b	150b28 <bss_end+0xc7d78>
    129c:	3c20053d 	.inst	0x3c20053d ; undefined
    12a0:	05580c05 	mov	z5.h, p8/z, #96
    12a4:	05052f0b 	.inst	0x05052f0b ; undefined
    12a8:	3d16052e 	str	b14, [x9, #1409]
    12ac:	05510105 	mov	z5.h, p1/z, #8
    12b0:	1e051b0a 	.inst	0x1e051b0a ; undefined
    12b4:	2e17052e 	.inst	0x2e17052e ; undefined
    12b8:	05210a05 	ext	z5.b, z5.b, z16.b, #10
    12bc:	17052e1e 	b	fffffffffc14cb34 <bss_end+0xfffffffffc0c3d84>
    12c0:	2111052e 	.inst	0x2111052e ; undefined
    12c4:	054a0705 	.inst	0x054a0705 ; undefined
    12c8:	18053d1f 	ldr	wzr, ba68 <bss_size+0xba07>
    12cc:	4c01052e 	.inst	0x4c01052e ; undefined
    12d0:	053e1805 	ext	z5.b, z5.b, z0.b, #246
    12d4:	05053d0f 	.inst	0x05053d0f ; undefined
    12d8:	2f0c054a 	ushr	v10.8b, v10.8b, #4
    12dc:	05301805 	ext	z5.b, z5.b, z0.b, #134
    12e0:	07054a20 	.inst	0x07054a20 ; undefined
    12e4:	21030582 	.inst	0x21030582 ; undefined
    12e8:	053d0a05 	ext	z5.b, z5.b, z16.b, #234
    12ec:	1e052101 	.inst	0x1e052101 ; undefined
    12f0:	3d0c0530 	str	b16, [x9, #769]
    12f4:	3d2f0505 	str	b5, [x8, #3009]
    12f8:	0015053d 	.inst	0x0015053d ; undefined
    12fc:	23010402 	.inst	0x23010402 ; undefined
    1300:	02000905 	.inst	0x02000905 ; undefined
    1304:	05900104 	mov	z4.s, p0/z, #8
    1308:	04020005 	.inst	0x04020005 ; undefined
    130c:	02002101 	.inst	0x02002101 ; undefined
    1310:	052f0104 	ext	z4.b, z4.b, z8.b, #120
    1314:	04020009 	.inst	0x04020009 ; undefined
    1318:	0e053d01 	umov	w1, v8.b[2]
    131c:	01040200 	.inst	0x01040200 ; undefined
    1320:	4b03053d 	sub	w29, w9, w3, lsl #1
    1324:	053d0105 	ext	z5.b, z5.b, z8.b, #232
    1328:	05053129 	.inst	0x05053129 ; undefined
    132c:	001f054b 	.inst	0x001f054b ; undefined
    1330:	3c010402 	str	b2, [x0], #16
    1334:	02002605 	.inst	0x02002605 ; undefined
    1338:	05900104 	mov	z4.s, p0/z, #8
    133c:	04020011 	.inst	0x04020011 ; undefined
    1340:	4b052001 	sub	w1, w0, w5, lsl #8
    1344:	02040200 	.inst	0x02040200 ; undefined
    1348:	0052052e 	.inst	0x0052052e ; undefined
    134c:	90020402 	adrp	x2, 4081000 <bss_end+0x3ff8250>
    1350:	02003d05 	.inst	0x02003d05 ; undefined
    1354:	052e0204 	ext	z4.b, z4.b, z16.b, #112
    1358:	03053d0c 	.inst	0x03053d0c ; undefined
    135c:	3d2a0531 	str	b17, [x9, #2689]
    1360:	052e2005 	mov	z5.h, z0.h[3]
    1364:	24052e07 	cmpeq	p7.b, p3/z, z16.b, z5.d
    1368:	2e0e053e 	.inst	0x2e0e053e ; undefined
    136c:	05902405 	mov	z5.s, p0/z, #8192
    1370:	2a052e1c 	orr	w28, w16, w5, lsl #11
    1374:	2e0e0521 	.inst	0x2e0e0521 ; undefined
    1378:	05902a05 	mov	z5.s, p0/z, #20480
    137c:	12052e22 	and	w2, w17, #0xf800007f
    1380:	2e030521 	.inst	0x2e030521 ; undefined
    1384:	052f1205 	ext	z5.b, z5.b, z16.b, #124
    1388:	0a052e03 	and	w3, w16, w5, lsl #11
    138c:	21010530 	.inst	0x21010530 ; undefined
    1390:	05302d05 	tbx	z5.b, z8.b, z16.b
    1394:	07054c20 	.inst	0x07054c20 ; undefined
    1398:	3d11053c 	str	b28, [x9, #1089]
    139c:	05901e05 	mov	z5.s, p0/z, #-16
    13a0:	43052005 	.inst	0x43052005 ; undefined
    13a4:	01040200 	.inst	0x01040200 ; undefined
    13a8:	0050052e 	.inst	0x0050052e ; undefined
    13ac:	90010402 	adrp	x2, 2081000 <bss_end+0x1ff8250>
    13b0:	02003505 	.inst	0x02003505 ; undefined
    13b4:	052e0104 	ext	z4.b, z4.b, z8.b, #112
    13b8:	1c05400e 	ldr	s14, bbb8 <bss_size+0xbb57>
    13bc:	2f0e0590 	ushr	v16.8b, v12.8b, #2
    13c0:	05902205 	mov	z5.s, p0/z, #4096
    13c4:	10053007 	adr	x7, b9c4 <bss_size+0xb963>
    13c8:	3e050567 	.inst	0x3e050567 ; undefined
    13cc:	3d3f0305 	str	b5, [x24, #4032]
    13d0:	053e0e05 	ext	z5.b, z5.b, z16.b, #243
    13d4:	03059022 	.inst	0x03059022 ; undefined
    13d8:	3c10033d 	stur	b29, [x25, #-256]
    13dc:	60030505 	.inst	0x60030505 ; undefined
    13e0:	2e0a034a 	ext	v10.8b, v26.8b, v10.8b, #0
    13e4:	17030105 	b	fffffffffc0c17f8 <bss_end+0xfffffffffc038a48>
    13e8:	30120520 	adr	x0, 2548d <bss_size+0x2542c>
    13ec:	052f1c05 	ext	z5.b, z5.b, z0.b, #127
    13f0:	12053c0f 	and	w15, w0, #0xf80007ff
    13f4:	3c05053d 	str	b29, [x9], #80
    13f8:	0b053d2f 	add	w15, w9, w5, lsl #15
    13fc:	20030522 	.inst	0x20030522 ; undefined
    1400:	02001005 	.inst	0x02001005 ; undefined
    1404:	05210304 	ext	z4.b, z4.b, z24.b, #8
    1408:	0402001b 	.inst	0x0402001b ; undefined
    140c:	10059003 	adr	x3, c60c <bss_size+0xc5ab>
    1410:	03040200 	.inst	0x03040200 ; undefined
    1414:	001a052f 	.inst	0x001a052f ; undefined
    1418:	90030402 	adrp	x2, 6081000 <bss_end+0x5ff8250>
    141c:	02001005 	.inst	0x02001005 ; undefined
    1420:	052f0304 	ext	z4.b, z4.b, z24.b, #120
    1424:	04020020 	.inst	0x04020020 ; undefined
    1428:	22059003 	.inst	0x22059003 ; undefined
    142c:	03040200 	.inst	0x03040200 ; undefined
    1430:	0014052b 	.inst	0x0014052b ; undefined
    1434:	3c010402 	str	b2, [x0], #16
    1438:	05420b05 	eor	z5.d, z5.d, #0x8000000000ffffff
    143c:	12052003 	and	w3, w0, #0xf800000f
    1440:	03040200 	.inst	0x03040200 ; undefined
    1444:	00230521 	.inst	0x00230521 ; NYI
    1448:	49030402 	.inst	0x49030402 ; undefined
    144c:	02001405 	.inst	0x02001405 ; undefined
    1450:	053c0104 	ext	z4.b, z4.b, z8.b, #224
    1454:	0b054007 	add	w7, w0, w5, lsl #16
    1458:	2003052f 	.inst	0x2003052f ; undefined
    145c:	02001005 	.inst	0x02001005 ; undefined
    1460:	05210304 	ext	z4.b, z4.b, z24.b, #8
    1464:	0402001a 	.inst	0x0402001a ; undefined
    1468:	05059003 	.inst	0x05059003 ; undefined
    146c:	03040200 	.inst	0x03040200 ; undefined
    1470:	0022052f 	.inst	0x0022052f ; NYI
    1474:	3a030402 	.inst	0x3a030402 ; undefined
    1478:	02001405 	.inst	0x02001405 ; undefined
    147c:	054a0104 	.inst	0x054a0104 ; undefined
    1480:	01054003 	.inst	0x01054003 ; undefined
    1484:	301d053d 	adr	x29, 3b529 <bss_size+0x3b4c8>
    1488:	3d3d0505 	str	b5, [x8, #3905]
    148c:	053d0c05 	ext	z5.b, z5.b, z0.b, #235
    1490:	0b053407 	add	w7, w0, w5, lsl #13
    1494:	2e030521 	.inst	0x2e030521 ; undefined
    1498:	05211105 	ext	z5.b, z5.b, z8.b, #12
    149c:	0f054a07 	.inst	0x0f054a07 ; undefined
    14a0:	3d0c0533 	str	b19, [x9, #769]
    14a4:	05211205 	ext	z5.b, z5.b, z16.b, #12
    14a8:	580f030f 	ldr	x15, 1f508 <bss_size+0x1f4a7>
    14ac:	052f0a05 	ext	z5.b, z5.b, z16.b, #122
    14b0:	3c6f030f 	.inst	0x3c6f030f ; undefined
    14b4:	13030705 	sbfiz	w5, w24, #29, #2
    14b8:	0027054a 	.inst	0x0027054a ; NYI
    14bc:	03020402 	.inst	0x03020402 ; undefined
    14c0:	18052066 	ldr	w6, b8cc <bss_size+0xb86b>
    14c4:	01040200 	.inst	0x01040200 ; undefined
    14c8:	030e053c 	.inst	0x030e053c ; undefined
    14cc:	1d053c21 	.inst	0x1d053c21 ; undefined
    14d0:	2f030590 	mvni	v16.2s, #0x6c
    14d4:	05433705 	eor	z5.d, z5.d, #0xfffffffffc07ffff
    14d8:	01052e2f 	.inst	0x01052e2f ; undefined
    14dc:	301f0521 	adr	x1, 3f581 <bss_size+0x3f520>
    14e0:	053d2705 	.inst	0x053d2705 ; undefined
    14e4:	07052037 	.inst	0x07052037 ; undefined
    14e8:	21110520 	.inst	0x21110520 ; undefined
    14ec:	05901805 	mov	z5.s, p0/z, #-64
    14f0:	3d2f2005 	str	b5, [x0, #3016]
    14f4:	05220e05 	ext	z5.b, z5.b, z16.b, #19
    14f8:	1a05901d 	.inst	0x1a05901d ; undefined
    14fc:	9021052f 	adrp	x15, 420a5000 <bss_end+0x4201c250>
    1500:	05200705 	ext	z5.b, z5.b, z24.b, #1
    1504:	01052703 	.inst	0x01052703 ; undefined
    1508:	3125054b 	adds	w11, w10, #0x941
    150c:	05512b05 	mov	z5.h, p1/z, #22528
    1510:	0705203b 	.inst	0x0705203b ; undefined
    1514:	21270520 	.inst	0x21270520 ; undefined
    1518:	05203705 	.inst	0x05203705 ; undefined
    151c:	0b052007 	add	w7, w0, w5, lsl #8
    1520:	2e030523 	.inst	0x2e030523 ; undefined
    1524:	05212c05 	tbx	z5.b, z0.b, z1.b
    1528:	0a053c27 	and	w7, w1, w5, lsl #15
    152c:	3d28054a 	str	b10, [x10, #2561]
    1530:	053c2305 	mov	z5.s, z24.s[3]
    1534:	07054a0a 	.inst	0x07054a0a ; undefined
    1538:	0f054b3d 	.inst	0x0f054b3d ; undefined
    153c:	2e07055b 	.inst	0x2e07055b ; undefined
    1540:	02000905 	.inst	0x02000905 ; undefined
    1544:	05210304 	ext	z4.b, z4.b, z24.b, #8
    1548:	0402002c 	.inst	0x0402002c ; undefined
    154c:	26054903 	.inst	0x26054903 ; undefined
    1550:	03040200 	.inst	0x03040200 ; undefined
    1554:	001b053c 	.inst	0x001b053c ; undefined
    1558:	3c010402 	str	b2, [x0], #16
    155c:	02002b05 	.inst	0x02002b05 ; undefined
    1560:	79030204 	strh	w4, [x16, #384]
    1564:	0022054a 	.inst	0x0022054a ; NYI
    1568:	3c010402 	str	b2, [x0], #16
    156c:	0c030b05 	.inst	0x0c030b05 ; undefined
    1570:	2e03053c 	.inst	0x2e03053c ; undefined
    1574:	05211305 	ext	z5.b, z5.b, z24.b, #12
    1578:	07059016 	.inst	0x07059016 ; undefined
    157c:	2d052f20 	stp	s0, s11, [x25, #40]
    1580:	02040200 	.inst	0x02040200 ; undefined
    1584:	001e053a 	.inst	0x001e053a ; undefined
    1588:	3c010402 	str	b2, [x0], #16
    158c:	05500105 	mov	z5.h, p0/z, #8
    1590:	1c054c38 	ldr	s24, bf14 <bss_size+0xbeb3>
    1594:	2e10053d 	.inst	0x2e10053d ; undefined
    1598:	054a0505 	.inst	0x054a0505 ; undefined
    159c:	1f052f1b 	fmadd	s27, s24, s5, s11
    15a0:	5911052e 	.inst	0x5911052e ; undefined
    15a4:	4401053d 	.inst	0x4401053d ; undefined
    15a8:	7a032e05 	.inst	0x7a032e05 ; undefined
    15ac:	2e220520 	uhadd	v0.8b, v9.8b, v2.8b
    15b0:	054a1105 	.inst	0x054a1105 ; undefined
    15b4:	0f052f1b 	.inst	0x0f052f1b ; undefined
    15b8:	4a25052e 	eon	w14, w9, w5, lsl #1
    15bc:	052f2905 	tbl	z5.b, {z8.b, z9.b}, z15.b
    15c0:	11052e1d 	add	w29, w16, #0x14b
    15c4:	10052f4a 	adr	x10, bbac <bss_size+0xbb4b>
    15c8:	3e01053d 	.inst	0x3e01053d ; undefined
    15cc:	05403505 	eor	z5.h, z5.h, #0xfc07
    15d0:	0d053d14 	.inst	0x0d053d14 ; undefined
    15d4:	2f18052e 	ushr	v14.4h, v9.4h, #8
    15d8:	053d0105 	ext	z5.b, z5.b, z8.b, #232
    15dc:	0b053e2b 	add	w11, w17, w5, lsl #15
    15e0:	3d1f052f 	str	b15, [x9, #1985]
    15e4:	052e2e05 	tbx	z5.b, z16.b, z14.b
    15e8:	0a052018 	and	w24, w0, w5, lsl #8
    15ec:	2101052f 	.inst	0x2101052f ; undefined
    15f0:	05302f05 	tbx	z5.b, z24.b, z16.b
    15f4:	053d3e05 	.inst	0x053d3e05 ; undefined
    15f8:	25053d0c 	cmplt	p12.b, p7/z, z8.b, #5
    15fc:	3d050531 	str	b17, [x9, #321]
    1600:	3d0c053d 	str	b29, [x9, #769]
    1604:	05311605 	ext	z5.b, z5.b, z16.b, #141
    1608:	15053d17 	b	4150a64 <bss_end+0x40c7cb4>
    160c:	2f0e053c 	ushr	v28.8b, v9.8b, #2
    1610:	053c2505 	.inst	0x053c2505 ; undefined
    1614:	0e052e40 	smov	w0, v18.b[2]
    1618:	58580520 	ldr	x0, b16bc <bss_end+0x2890c>
    161c:	052f1805 	ext	z5.b, z5.b, z0.b, #126
    1620:	07052f2b 	.inst	0x07052f2b ; undefined
    1624:	0b053d2e 	add	w14, w9, w5, lsl #15
    1628:	2003054c 	.inst	0x2003054c ; undefined
    162c:	02003205 	.inst	0x02003205 ; undefined
    1630:	05210304 	ext	z4.b, z4.b, z24.b, #8
    1634:	0402001e 	.inst	0x0402001e ; undefined
    1638:	43052e03 	.inst	0x43052e03 ; undefined
    163c:	03040200 	.inst	0x03040200 ; undefined
    1640:	003f0520 	.inst	0x003f0520 ; NYI
    1644:	4a030402 	eor	w2, w0, w3, lsl #1
    1648:	02000d05 	.inst	0x02000d05 ; undefined
    164c:	05200304 	ext	z4.b, z4.b, z24.b, #0
    1650:	04020005 	.inst	0x04020005 ; undefined
    1654:	1c052103 	ldr	s3, ba74 <bss_size+0xba13>
    1658:	03040200 	.inst	0x03040200 ; undefined
    165c:	0014053a 	.inst	0x0014053a ; undefined
    1660:	3c010402 	str	b2, [x0], #16
    1664:	054e0305 	.inst	0x054e0305 ; undefined
    1668:	01053e0a 	.inst	0x01053e0a ; undefined
    166c:	30170521 	adr	x1, 2f711 <bss_size+0x2f6b0>
    1670:	052f0b05 	ext	z5.b, z5.b, z24.b, #122
    1674:	13052003 	sbfx	w3, w0, #5, #4
    1678:	03040200 	.inst	0x03040200 ; undefined
    167c:	00050521 	.inst	0x00050521 ; undefined
    1680:	4b030402 	sub	w2, w0, w3, lsl #1
    1684:	02002705 	.inst	0x02002705 ; undefined
    1688:	053a0304 	ext	z4.b, z4.b, z24.b, #208
    168c:	04020014 	.inst	0x04020014 ; undefined
    1690:	01053c01 	.inst	0x01053c01 ; undefined
    1694:	4c260540 	.inst	0x4c260540 ; undefined
    1698:	053d2105 	mov	z5.b, z8.b[14]
    169c:	05302e07 	tbx	z7.b, z16.b, z16.b
    16a0:	0a052108 	and	w8, w8, w5, lsl #8
    16a4:	3b100521 	.inst	0x3b100521 ; undefined
    16a8:	053c0b05 	ext	z5.b, z5.b, z24.b, #226
    16ac:	053d3f05 	.inst	0x053d3f05 ; undefined
    16b0:	0f053d0c 	.inst	0x0f053d0c ; undefined
    16b4:	59080530 	.inst	0x59080530 ; undefined
    16b8:	05210905 	ext	z5.b, z5.b, z8.b, #10
    16bc:	07053d19 	.inst	0x07053d19 ; undefined
    16c0:	3e0d054a 	.inst	0x3e0d054a ; undefined
    16c4:	053d0705 	ext	z5.b, z5.b, z24.b, #233
    16c8:	09051b0d 	.inst	0x09051b0d ; undefined
    16cc:	030a052e 	.inst	0x030a052e ; undefined
    16d0:	01052e0f 	.inst	0x01052e0f ; undefined
    16d4:	30370521 	adr	x1, 6f779 <bss_size+0x6f718>
    16d8:	053d1a05 	ext	z5.b, z5.b, z16.b, #238
    16dc:	1a052011 	.inst	0x1a052011 ; undefined
    16e0:	9007052f 	adrp	x15, e0a5000 <bss_end+0xe01c250>
    16e4:	05302505 	.inst	0x05302505 ; undefined
    16e8:	33052e0f 	bfxil	w15, w16, #5, #7
    16ec:	2e13055a 	.inst	0x2e13055a ; undefined
    16f0:	052f0705 	ext	z5.b, z5.b, z24.b, #121
    16f4:	0905510e 	.inst	0x0905510e ; undefined
    16f8:	3d1b0530 	str	b16, [x9, #1729]
    16fc:	054a0e05 	.inst	0x054a0e05 ; undefined
    1700:	01053e0a 	.inst	0x01053e0a ; undefined
    1704:	30340521 	adr	x1, 697a9 <bss_size+0x69748>
    1708:	054b1105 	.inst	0x054b1105 ; undefined
    170c:	3c09030a 	stur	b10, [x24, #144]
    1710:	05210105 	ext	z5.b, z5.b, z8.b, #8
    1714:	03053037 	.inst	0x03053037 ; undefined
    1718:	4301054b 	.inst	0x4301054b ; undefined
    171c:	053e1805 	ext	z5.b, z5.b, z0.b, #246
    1720:	09053d05 	.inst	0x09053d05 ; undefined
    1724:	210a053d 	.inst	0x210a053d ; undefined
    1728:	05210c05 	ext	z5.b, z5.b, z0.b, #11
    172c:	24053b15 	cmpne	p5.b, p6/z, z24.b, z5.d
    1730:	420c053c 	.inst	0x420c053c ; undefined
    1734:	053e1705 	ext	z5.b, z5.b, z24.b, #245
    1738:	0a053d0f 	and	w15, w8, w5, lsl #15
    173c:	2101054b 	.inst	0x2101054b ; undefined
    1740:	05301a05 	ext	z5.b, z5.b, z16.b, #134
    1744:	37053d27 	tbnz	w7, #0, ffffffffffffbee8 <bss_end+0xfffffffffff73138>
    1748:	20070520 	.inst	0x20070520 ; undefined
    174c:	05211105 	ext	z5.b, z5.b, z8.b, #12
    1750:	05059018 	.inst	0x05059018 ; undefined
    1754:	2f190520 	ushr	v0.4h, v9.4h, #7
    1758:	054b0505 	.inst	0x054b0505 ; undefined
    175c:	05054201 	.inst	0x05054201 ; undefined
    1760:	3001051e 	adr	x30, 3801 <bss_size+0x37a0>
    1764:	01000302 	.inst	0x01000302 ; undefined
    1768:	00036c01 	.inst	0x00036c01 ; undefined
    176c:	08000500 	stxrb	w0, w0, [x8]
    1770:	00004100 	udf	#16640
    1774:	01010400 	.inst	0x01010400 ; undefined
    1778:	000d0efb 	.inst	0x000d0efb ; undefined
    177c:	01010101 	.inst	0x01010101 ; undefined
    1780:	01000000 	.inst	0x01000000 ; undefined
    1784:	01010000 	.inst	0x01010000 ; undefined
    1788:	0e031f01 	.inst	0x0e031f01 ; undefined
    178c:	2e000000 	ext	v0.8b, v0.8b, v0.8b, #0
    1790:	68000000 	.inst	0x68000000 ; undefined
    1794:	02000000 	.inst	0x02000000 ; undefined
    1798:	0f021f01 	.inst	0x0f021f01 ; undefined
    179c:	00018305 	.inst	0x00018305 ; undefined
    17a0:	01830100 	.inst	0x01830100 ; undefined
    17a4:	9a010000 	adc	x0, x0, x1
    17a8:	02000000 	.inst	0x02000000 ; undefined
    17ac:	0000013c 	udf	#316
    17b0:	0000a602 	udf	#42498
    17b4:	01050200 	.inst	0x01050200 ; undefined
    17b8:	50020900 	adr	x0, 58da <bss_size+0x5879>
    17bc:	00000841 	udf	#2113
    17c0:	03000000 	.inst	0x03000000 ; undefined
    17c4:	0905010e 	.inst	0x0905010e ; undefined
    17c8:	2205052f 	.inst	0x2205052f ; undefined
    17cc:	051e1005 	mov	z5.b, p14/z, #-128
    17d0:	01053c0a 	.inst	0x01053c0a ; undefined
    17d4:	0e054d32 	.inst	0x0e054d32 ; undefined
    17d8:	2e0c0531 	.inst	0x2e0c0531 ; undefined
    17dc:	3d3d3d2f 	str	b15, [x9, #3919]
    17e0:	053d0305 	ext	z5.b, z5.b, z24.b, #232
    17e4:	03052e0c 	.inst	0x03052e0c ; undefined
    17e8:	2e0a0530 	.inst	0x2e0a0530 ; undefined
    17ec:	05210305 	ext	z5.b, z5.b, z24.b, #8
    17f0:	03052f0e 	.inst	0x03052f0e ; undefined
    17f4:	0a052f75 	and	w21, w27, w5, lsl #11
    17f8:	2103052e 	.inst	0x2103052e ; undefined
    17fc:	052e0e05 	ext	z5.b, z5.b, z16.b, #115
    1800:	10052203 	adr	x3, bc40 <bss_size+0xbbdf>
    1804:	2f03052e 	mvni	v14.2s, #0x69
    1808:	052e1405 	ext	z5.b, z5.b, z0.b, #117
    180c:	13052103 	sbfx	w3, w8, #5, #4
    1810:	2103052e 	.inst	0x2103052e ; undefined
    1814:	052e1305 	ext	z5.b, z5.b, z24.b, #116
    1818:	13052f03 	sbfx	w3, w24, #5, #7
    181c:	2103052e 	.inst	0x2103052e ; undefined
    1820:	052e1405 	ext	z5.b, z5.b, z0.b, #117
    1824:	13053003 	sbfx	w3, w0, #5, #8
    1828:	2f03052e 	mvni	v14.2s, #0x69
    182c:	052e1405 	ext	z5.b, z5.b, z0.b, #117
    1830:	053f2f01 	tbx	z1.b, z24.b, z31.b
    1834:	1b05240a 	madd	w10, w0, w5, w9
    1838:	2008053c 	.inst	0x2008053c ; undefined
    183c:	053d0705 	ext	z5.b, z5.b, z24.b, #233
    1840:	0505220d 	.inst	0x0505220d ; undefined
    1844:	221b053c 	.inst	0x221b053c ; undefined
    1848:	01040200 	.inst	0x01040200 ; undefined
    184c:	02003c06 	.inst	0x02003c06 ; undefined
    1850:	052e0204 	ext	z4.b, z4.b, z16.b, #112
    1854:	04020001 	.inst	0x04020001 ; undefined
    1858:	31210604 	adds	w4, w16, #0x841
    185c:	05310a05 	ext	z5.b, z5.b, z16.b, #138
    1860:	08053c1b 	stxrb	w5, w27, [x0]
    1864:	3d070520 	str	b0, [x9, #449]
    1868:	05230305 	ext	z5.b, z5.b, z24.b, #24
    186c:	01052e12 	.inst	0x01052e12 ; undefined
    1870:	09053f2f 	.inst	0x09053f2f ; undefined
    1874:	0805223d 	stxrb	w5, w29, [x17]
    1878:	3007052e 	adr	x14, f91d <bss_size+0xf8bc>
    187c:	05301105 	ext	z5.b, z5.b, z8.b, #132
    1880:	05053c0f 	.inst	0x05053c0f ; undefined
    1884:	030a0520 	.inst	0x030a0520 ; undefined
    1888:	0105207a 	.inst	0x0105207a ; undefined
    188c:	06054d52 	.inst	0x06054d52 ; undefined
    1890:	3e05053d 	.inst	0x3e05053d ; undefined
    1894:	05300305 	ext	z5.b, z5.b, z24.b, #128
    1898:	21052f01 	.inst	0x21052f01 ; undefined
    189c:	3f0a053e 	.inst	0x3f0a053e ; undefined
    18a0:	052e0305 	ext	z5.b, z5.b, z24.b, #112
    18a4:	0705210c 	.inst	0x0705210c ; undefined
    18a8:	2f17053c 	ushr	v28.4h, v9.4h, #9
    18ac:	01040200 	.inst	0x01040200 ; undefined
    18b0:	02003c06 	.inst	0x02003c06 ; undefined
    18b4:	052e0204 	ext	z4.b, z4.b, z16.b, #112
    18b8:	04020007 	.inst	0x04020007 ; undefined
    18bc:	05200604 	ext	z4.b, z4.b, z16.b, #1
    18c0:	04020005 	.inst	0x04020005 ; undefined
    18c4:	1a053d04 	.inst	0x1a053d04 ; undefined
    18c8:	04040200 	.inst	0x04040200 ; undefined
    18cc:	0012052b 	.inst	0x0012052b ; undefined
    18d0:	3c020402 	str	b2, [x0], #32
    18d4:	05410305 	eor	z5.s, z5.s, #0x1ffffff
    18d8:	26052101 	.inst	0x26052101 ; undefined
    18dc:	3f0a0530 	.inst	0x3f0a0530 ; undefined
    18e0:	052e0305 	ext	z5.b, z5.b, z24.b, #112
    18e4:	0705210c 	.inst	0x0705210c ; undefined
    18e8:	2f17053c 	ushr	v28.4h, v9.4h, #9
    18ec:	01040200 	.inst	0x01040200 ; undefined
    18f0:	02003c06 	.inst	0x02003c06 ; undefined
    18f4:	052e0204 	ext	z4.b, z4.b, z16.b, #112
    18f8:	04020007 	.inst	0x04020007 ; undefined
    18fc:	05200604 	ext	z4.b, z4.b, z16.b, #1
    1900:	04020005 	.inst	0x04020005 ; undefined
    1904:	1a053d04 	.inst	0x1a053d04 ; undefined
    1908:	04040200 	.inst	0x04040200 ; undefined
    190c:	0012052b 	.inst	0x0012052b ; undefined
    1910:	3c020402 	str	b2, [x0], #32
    1914:	05410305 	eor	z5.s, z5.s, #0x1ffffff
    1918:	1a052101 	.inst	0x1a052101 ; undefined
    191c:	3e090530 	.inst	0x3e090530 ; undefined
    1920:	23080521 	.inst	0x23080521 ; undefined
    1924:	053d1405 	ext	z5.b, z5.b, z0.b, #237
    1928:	1b052f0d 	madd	w13, w24, w5, w11
    192c:	01040200 	.inst	0x01040200 ; undefined
    1930:	00200540 	.inst	0x00200540 ; NYI
    1934:	c8010402 	stxr	w1, x2, [x0]
    1938:	02001105 	.inst	0x02001105 ; undefined
    193c:	05200104 	ext	z4.b, z4.b, z8.b, #0
    1940:	04020020 	.inst	0x04020020 ; undefined
    1944:	15053c01 	b	4150948 <bss_end+0x40c7b98>
    1948:	01040200 	.inst	0x01040200 ; undefined
    194c:	000d052e 	.inst	0x000d052e ; undefined
    1950:	3d010402 	str	b2, [x0, #65]
    1954:	02000e05 	.inst	0x02000e05 ; undefined
    1958:	05910104 	mov	z4.s, p1/z, #8
    195c:	11053e08 	add	w8, w16, #0x14f
    1960:	3c15053d 	str	b29, [x9], #-176
    1964:	054c0f05 	.inst	0x054c0f05 ; undefined
    1968:	0c053e09 	.inst	0x0c053e09 ; undefined
    196c:	20050522 	.inst	0x20050522 ; undefined
    1970:	02000e05 	.inst	0x02000e05 ; undefined
    1974:	05210304 	ext	z4.b, z4.b, z24.b, #8
    1978:	0402001e 	.inst	0x0402001e ; undefined
    197c:	22054b03 	.inst	0x22054b03 ; undefined
    1980:	03040200 	.inst	0x03040200 ; undefined
    1984:	001b053c 	.inst	0x001b053c ; undefined
    1988:	20030402 	.inst	0x20030402 ; undefined
    198c:	02001305 	.inst	0x02001305 ; undefined
    1990:	053c0304 	ext	z4.b, z4.b, z24.b, #224
    1994:	04020012 	.inst	0x04020012 ; undefined
    1998:	16053d03 	b	fffffffff8150da4 <bss_end+0xfffffffff80c7ff4>
    199c:	03040200 	.inst	0x03040200 ; undefined
    19a0:	001b053c 	.inst	0x001b053c ; undefined
    19a4:	20030402 	.inst	0x20030402 ; undefined
    19a8:	02001d05 	.inst	0x02001d05 ; undefined
    19ac:	05470304 	.inst	0x05470304 ; undefined
    19b0:	04020017 	.inst	0x04020017 ; undefined
    19b4:	13053c01 	sbfx	w1, w0, #5, #11
    19b8:	01040200 	.inst	0x01040200 ; undefined
    19bc:	42050558 	.inst	0x42050558 ; undefined
    19c0:	052f0105 	ext	z5.b, z5.b, z8.b, #120
    19c4:	13053e17 	sbfx	w23, w16, #5, #11
    19c8:	05057921 	.inst	0x05057921 ; undefined
    19cc:	2f170566 	ushr	v6.4h, v11.4h, #9
    19d0:	053c0705 	ext	z5.b, z5.b, z24.b, #225
    19d4:	26055923 	.inst	0x26055923 ; undefined
    19d8:	4a13054a 	eor	w10, w10, w19, lsl #1
    19dc:	053f0a05 	ext	z5.b, z5.b, z16.b, #250
    19e0:	01052d11 	.inst	0x01052d11 ; undefined
    19e4:	30270522 	adr	x2, 4fa89 <bss_size+0x4fa28>
    19e8:	053d1305 	ext	z5.b, z5.b, z24.b, #236
    19ec:	08057507 	stxrb	w5, w7, [x8]
    19f0:	211a0521 	.inst	0x211a0521 ; undefined
    19f4:	053c0605 	ext	z5.b, z5.b, z16.b, #225
    19f8:	0a053c1a 	and	w26, w0, w5, lsl #15
    19fc:	2123054a 	.inst	0x2123054a ; undefined
    1a00:	054a2605 	.inst	0x054a2605 ; undefined
    1a04:	06054a13 	.inst	0x06054a13 ; undefined
    1a08:	3916053d 	strb	w29, [x9, #1409]
    1a0c:	0a030405 	and	w5, w0, w3, lsl #1
    1a10:	3c080582 	str	b2, [x12], #128
    1a14:	05220105 	ext	z5.b, z5.b, z8.b, #16
    1a18:	05053e23 	.inst	0x05053e23 ; undefined
    1a1c:	3d13052f 	str	b15, [x9, #1217]
    1a20:	053c2105 	mov	z5.s, z8.s[3]
    1a24:	24055920 	cmpge	p0.b, p6/z, z9.b, z5.d
    1a28:	4a11054a 	eor	w10, w10, w17, lsl #1
    1a2c:	3c1f053e 	str	b30, [x9], #-16
    1a30:	05591e05 	mov	z5.h, p9/z, #-16
    1a34:	0f054a22 	.inst	0x0f054a22 ; undefined
    1a38:	3e13054a 	.inst	0x3e13054a ; undefined
    1a3c:	05750105 	ext	z5.b, {z8.b, z9.b}, #168
    1a40:	0d053e25 	.inst	0x0d053e25 ; undefined
    1a44:	3e0b053e 	.inst	0x3e0b053e ; undefined
    1a48:	05200305 	ext	z5.b, z5.b, z24.b, #0
    1a4c:	07052109 	.inst	0x07052109 ; undefined
    1a50:	2f15054a 	ushr	v10.4h, v10.4h, #11
    1a54:	053c2305 	mov	z5.s, z24.s[3]
    1a58:	26055922 	.inst	0x26055922 ; undefined
    1a5c:	4a13054a 	eor	w10, w10, w19, lsl #1
    1a60:	02002405 	.inst	0x02002405 ; undefined
    1a64:	053e0204 	ext	z4.b, z4.b, z16.b, #240
    1a68:	04020013 	.inst	0x04020013 ; undefined
    1a6c:	24053c02 	cmpeq	p2.b, p7/z, z0.b, z5.d
    1a70:	02040200 	.inst	0x02040200 ; undefined
    1a74:	0021053c 	.inst	0x0021053c ; NYI
    1a78:	20020402 	.inst	0x20020402 ; undefined
    1a7c:	02002005 	.inst	0x02002005 ; undefined
    1a80:	054b0204 	.inst	0x054b0204 ; undefined
    1a84:	04020024 	.inst	0x04020024 ; undefined
    1a88:	11054a02 	add	w2, w16, #0x152
    1a8c:	02040200 	.inst	0x02040200 ; undefined
    1a90:	001c054a 	.inst	0x001c054a ; undefined
    1a94:	03020402 	.inst	0x03020402 ; undefined
    1a98:	14053c7a 	b	150c80 <bss_end+0xc7ed0>
    1a9c:	01040200 	.inst	0x01040200 ; undefined
    1aa0:	0313053c 	.inst	0x0313053c ; undefined
    1aa4:	01054a09 	.inst	0x01054a09 ; undefined
    1aa8:	3e170575 	.inst	0x3e170575 ; undefined
    1aac:	3d3e0305 	str	b5, [x24, #3968]
    1ab0:	052f0a05 	ext	z5.b, z5.b, z16.b, #122
    1ab4:	07052e03 	.inst	0x07052e03 ; undefined
    1ab8:	17053d5a 	b	fffffffffc151020 <bss_end+0xfffffffffc0c8270>
    1abc:	77070521 	.inst	0x77070521 ; undefined
    1ac0:	3d3c0b03 	str	b3, [x24, #3842]
    1ac4:	3e2f2f3d 	.inst	0x3e2f2f3d ; undefined
    1ac8:	213d2321 	.inst	0x213d2321 ; undefined
    1acc:	22213d3d 	.inst	0x22213d3d ; undefined
    1ad0:	2201053d 	.inst	0x2201053d ; undefined
    1ad4:	01000402 	.inst	0x01000402 ; undefined
    1ad8:	0000ca01 	udf	#51713
    1adc:	08000500 	stxrb	w0, w0, [x8]
    1ae0:	00004100 	udf	#16640
    1ae4:	01010400 	.inst	0x01010400 ; undefined
    1ae8:	000d0efb 	.inst	0x000d0efb ; undefined
    1aec:	01010101 	.inst	0x01010101 ; undefined
    1af0:	01000000 	.inst	0x01000000 ; undefined
    1af4:	01010000 	.inst	0x01010000 ; undefined
    1af8:	0e031f01 	.inst	0x0e031f01 ; undefined
    1afc:	2e000000 	ext	v0.8b, v0.8b, v0.8b, #0
    1b00:	68000000 	.inst	0x68000000 ; undefined
    1b04:	02000000 	.inst	0x02000000 ; undefined
    1b08:	0f021f01 	.inst	0x0f021f01 ; undefined
    1b0c:	00019305 	.inst	0x00019305 ; undefined
    1b10:	01930100 	.inst	0x01930100 ; undefined
    1b14:	70010000 	adr	x0, 3b17 <bss_size+0x3ab6>
    1b18:	02000000 	.inst	0x02000000 ; undefined
    1b1c:	000000a6 	udf	#166
    1b20:	00009a02 	udf	#39426
    1b24:	12050200 	and	w0, w16, #0x8000000
    1b28:	c4020900 	ld1sb	{z0.d}, p2/z, [x8, z2.d, uxtw]
    1b2c:	0000084a 	udf	#2122
    1b30:	03000000 	.inst	0x03000000 ; undefined
    1b34:	0305010a 	.inst	0x0305010a ; undefined
    1b38:	4e090530 	dup	v16.16b, v9.b[4]
    1b3c:	3d210505 	str	b5, [x8, #2113]
    1b40:	052f0905 	ext	z5.b, z5.b, z8.b, #122
    1b44:	13055807 	sbfx	w7, w0, #5, #18
    1b48:	670a0530 	.inst	0x670a0530 ; undefined
    1b4c:	05211005 	ext	z5.b, z5.b, z0.b, #12
    1b50:	0f053c14 	.inst	0x0f053c14 ; undefined
    1b54:	560b0559 	.inst	0x560b0559 ; undefined
    1b58:	05410505 	eor	z5.h, z5.h, #0x1ff
    1b5c:	58790307 	ldr	x7, f3bbc <bss_end+0x6ae0c>
    1b60:	051b0c05 	mov	z5.b, p11/z, #96
    1b64:	2010032a 	.inst	0x2010032a ; undefined
    1b68:	054b0c05 	.inst	0x054b0c05 ; undefined
    1b6c:	0a052003 	and	w3, w0, w5, lsl #8
    1b70:	d6080522 	.inst	0xd6080522 ; undefined
    1b74:	052f0905 	ext	z5.b, z5.b, z8.b, #122
    1b78:	09053d14 	.inst	0x09053d14 ; undefined
    1b7c:	30070590 	adr	x16, fc2d <bss_size+0xfbcc>
    1b80:	051f1705 	mov	z5.b, p15/z, #-72
    1b84:	0705900c 	.inst	0x0705900c ; undefined
    1b88:	0026052f 	.inst	0x0026052f ; NYI
    1b8c:	03020402 	.inst	0x03020402 ; undefined
    1b90:	1505207a 	b	4149d78 <bss_end+0x40c0fc8>
    1b94:	01040200 	.inst	0x01040200 ; undefined
    1b98:	0303053c 	.inst	0x0303053c ; undefined
    1b9c:	053d3c09 	.inst	0x053d3c09 ; undefined
    1ba0:	02023d01 	.inst	0x02023d01 ; undefined
    1ba4:	31010100 	adds	w0, w8, #0x40
    1ba8:	05000000 	orr	z0.s, z0.s, #0x1
    1bac:	29000800 	stp	w0, w2, [x0]
    1bb0:	04000000 	add	z0.b, p0/m, z0.b, z0.b
    1bb4:	0efb0101 	.inst	0x0efb0101 ; undefined
    1bb8:	0101000d 	.inst	0x0101000d ; undefined
    1bbc:	00000101 	udf	#257
    1bc0:	00000100 	udf	#256
    1bc4:	1f010101 	fmadd	s1, s8, s1, s0
    1bc8:	00000e02 	udf	#3586
    1bcc:	00002e00 	udf	#11776
    1bd0:	1f010200 	fmadd	s0, s16, s1, s0
    1bd4:	9f010f02 	.inst	0x9f010f02 ; undefined
    1bd8:	01000001 	.inst	0x01000001 ; undefined
    1bdc:	000002ba 	udf	#698
    1be0:	00080005 	.inst	0x00080005 ; undefined
    1be4:	00000045 	udf	#69
    1be8:	fb010104 	.inst	0xfb010104 ; undefined
    1bec:	01000d0e 	.inst	0x01000d0e ; undefined
    1bf0:	00010101 	.inst	0x00010101 ; undefined
    1bf4:	00010000 	.inst	0x00010000 ; undefined
    1bf8:	01010100 	.inst	0x01010100 ; undefined
    1bfc:	000e041f 	.inst	0x000e041f ; undefined
    1c00:	002e0000 	.inst	0x002e0000 ; NYI
    1c04:	00680000 	.inst	0x00680000 ; undefined
    1c08:	00400000 	.inst	0x00400000 ; undefined
    1c0c:	01020000 	.inst	0x01020000 ; undefined
    1c10:	050f021f 	.inst	0x050f021f ; undefined
    1c14:	000001ac 	udf	#428
    1c18:	0001ac01 	.inst	0x0001ac01 ; undefined
    1c1c:	009a0100 	.inst	0x009a0100 ; undefined
    1c20:	04020000 	.inst	0x04020000 ; undefined
    1c24:	03000001 	.inst	0x03000001 ; undefined
    1c28:	00000118 	udf	#280
    1c2c:	001c0502 	.inst	0x001c0502 ; undefined
    1c30:	4c840209 	st4	{v9.16b-v12.16b}, [x16], x4
    1c34:	00000008 	udf	#8
    1c38:	05170000 	mov	z0.b, p7/z, #0
    1c3c:	08052f07 	stxrb	w5, w7, [x24]
    1c40:	21060521 	.inst	0x21060521 ; undefined
    1c44:	053b0d05 	ext	z5.b, z5.b, z8.b, #219
    1c48:	0a053c09 	and	w9, w0, w5, lsl #15
    1c4c:	2101053f 	.inst	0x2101053f ; undefined
    1c50:	05302f05 	tbx	z5.b, z24.b, z16.b
    1c54:	07053f08 	.inst	0x07053f08 ; undefined
    1c58:	0019052e 	.inst	0x0019052e ; undefined
    1c5c:	2e010402 	.inst	0x2e010402 ; undefined
    1c60:	02001605 	.inst	0x02001605 ; undefined
    1c64:	052e0104 	ext	z4.b, z4.b, z8.b, #112
    1c68:	1605300d 	b	fffffffff814dc9c <bss_end+0xfffffffff80c4eec>
    1c6c:	2e0c052e 	.inst	0x2e0c052e ; undefined
    1c70:	05301205 	ext	z5.b, z5.b, z16.b, #132
    1c74:	1d053c0d 	.inst	0x1d053c0d ; undefined
    1c78:	3c180520 	str	b0, [x9], #-128
    1c7c:	05200c05 	ext	z5.b, z5.b, z0.b, #3
    1c80:	05231c07 	ext	z7.b, z7.b, z0.b, #31
    1c84:	1405240b 	b	14acb0 <bss_end+0xc1f00>
    1c88:	2e1f052e 	.inst	0x2e1f052e ; undefined
    1c8c:	053d0105 	ext	z5.b, z5.b, z8.b, #232
    1c90:	08053029 	stxrb	w5, w9, [x1]
    1c94:	2107053d 	.inst	0x2107053d ; undefined
    1c98:	053d0e05 	ext	z5.b, z5.b, z16.b, #235
    1c9c:	0f052f19 	.inst	0x0f052f19 ; undefined
    1ca0:	3c14053c 	str	b28, [x9], #-192
    1ca4:	05201205 	ext	z5.b, z5.b, z16.b, #4
    1ca8:	0f051d09 	.inst	0x0f051d09 ; undefined
    1cac:	3309052e 	bfi	w14, w9, #23, #2
    1cb0:	052f0a05 	ext	z5.b, z5.b, z16.b, #122
    1cb4:	1e052101 	.inst	0x1e052101 ; undefined
    1cb8:	3d0d0530 	str	b16, [x9, #833]
    1cbc:	05401405 	eor	z5.h, z5.h, #0x4000
    1cc0:	053d4b05 	.inst	0x053d4b05 ; undefined
    1cc4:	01053e0a 	.inst	0x01053e0a ; undefined
    1cc8:	302f0521 	adr	x1, 5fd6d <bss_size+0x5fd0c>
    1ccc:	053e0905 	ext	z5.b, z5.b, z8.b, #242
    1cd0:	0a052205 	and	w5, w16, w5, lsl #8
    1cd4:	4d08053d 	.inst	0x4d08053d ; undefined
    1cd8:	05220905 	ext	z5.b, z5.b, z8.b, #18
    1cdc:	05052215 	.inst	0x05052215 ; undefined
    1ce0:	210a052e 	.inst	0x210a052e ; undefined
    1ce4:	054a1005 	.inst	0x054a1005 ; undefined
    1ce8:	11052e09 	add	w9, w16, #0x14b
    1cec:	2f09052f 	ushr	v15.8b, v9.8b, #7
    1cf0:	02003105 	.inst	0x02003105 ; undefined
    1cf4:	051d0204 	mov	z4.b, p13/z, #16
    1cf8:	04020024 	.inst	0x04020024 ; undefined
    1cfc:	27053c01 	.inst	0x27053c01 ; undefined
    1d00:	01040200 	.inst	0x01040200 ; undefined
    1d04:	3507052e 	cbnz	w14, fda8 <bss_size+0xfd47>
    1d08:	02001105 	.inst	0x02001105 ; undefined
    1d0c:	053c0104 	ext	z4.b, z4.b, z8.b, #224
    1d10:	0c053d0d 	.inst	0x0c053d0d ; undefined
    1d14:	0015055a 	.inst	0x0015055a ; undefined
    1d18:	3c010402 	str	b2, [x0], #16
    1d1c:	053d0c05 	ext	z5.b, z5.b, z0.b, #235
    1d20:	0e05740f 	.inst	0x0e05740f ; undefined
    1d24:	30090521 	adr	x1, 13dc9 <bss_size+0x13d68>
    1d28:	05746e03 	uzp2	z3.h, z16.h, z20.h
    1d2c:	0a054a0f 	and	w15, w16, w5, lsl #18
    1d30:	052e1503 	ext	z3.b, z3.b, z8.b, #117
    1d34:	32052101 	orr	w1, w8, #0xf800000f
    1d38:	4b180530 	sub	w16, w9, w24, lsl #1
    1d3c:	052e2105 	mov	z5.h, z8.h[3]
    1d40:	03052f0b 	.inst	0x03052f0b ; undefined
    1d44:	21090520 	.inst	0x21090520 ; undefined
    1d48:	054a1005 	.inst	0x054a1005 ; undefined
    1d4c:	0e054a07 	.inst	0x0e054a07 ; undefined
    1d50:	15052f2f 	b	414da0c <bss_end+0x40c4c5c>
    1d54:	4a0c054a 	eor	w10, w10, w12, lsl #1
    1d58:	052f0e05 	ext	z5.b, z5.b, z16.b, #123
    1d5c:	0402001a 	.inst	0x0402001a ; undefined
    1d60:	14052a02 	b	14c568 <bss_end+0xc37b8>
    1d64:	01040200 	.inst	0x01040200 ; undefined
    1d68:	500a053c 	adr	x28, 15e0e <bss_size+0x15dad>
    1d6c:	05210105 	ext	z5.b, z5.b, z8.b, #8
    1d70:	1405302a 	b	14de18 <bss_end+0xc5068>
    1d74:	2f11054b 	ushr	v11.4h, v10.4h, #15
    1d78:	05200505 	ext	z5.b, z5.b, z8.b, #1
    1d7c:	0402000a 	.inst	0x0402000a ; undefined
    1d80:	10052103 	adr	x3, c1a0 <bss_size+0xc13f>
    1d84:	03040200 	.inst	0x03040200 ; undefined
    1d88:	000e053c 	.inst	0x000e053c ; undefined
    1d8c:	2e030402 	.inst	0x2e030402 ; undefined
    1d90:	02001f05 	.inst	0x02001f05 ; undefined
    1d94:	051f0304 	mov	z4.b, p15/z, #24
    1d98:	0402001a 	.inst	0x0402001a ; undefined
    1d9c:	05053c01 	.inst	0x05053c01 ; undefined
    1da0:	2101054d 	.inst	0x2101054d ; undefined
    1da4:	05302705 	.inst	0x05302705 ; undefined
    1da8:	08053d07 	stxrb	w5, w7, [x8]
    1dac:	07052121 	.inst	0x07052121 ; undefined
    1db0:	0017052e 	.inst	0x0017052e ; undefined
    1db4:	2e010402 	.inst	0x2e010402 ; undefined
    1db8:	02001405 	.inst	0x02001405 ; undefined
    1dbc:	052e0104 	ext	z4.b, z4.b, z8.b, #112
    1dc0:	1b052f0e 	madd	w14, w24, w5, w11
    1dc4:	3c17052e 	str	b14, [x9], #-144
    1dc8:	05201e05 	ext	z5.b, z5.b, z16.b, #7
    1dcc:	0d052009 	.inst	0x0d052009 ; undefined
    1dd0:	2e0c053d 	.inst	0x2e0c053d ; undefined
    1dd4:	02001c05 	.inst	0x02001c05 ; undefined
    1dd8:	052e0104 	ext	z4.b, z4.b, z8.b, #112
    1ddc:	04020019 	.inst	0x04020019 ; undefined
    1de0:	0e052e01 	smov	w1, v16.b[2]
    1de4:	2e1b052f 	.inst	0x2e1b052f ; undefined
    1de8:	053c1705 	ext	z5.b, z5.b, z24.b, #229
    1dec:	09052024 	.inst	0x09052024 ; undefined
    1df0:	3d0d0520 	str	b0, [x9, #833]
    1df4:	052e0c05 	ext	z5.b, z5.b, z0.b, #115
    1df8:	0402001c 	.inst	0x0402001c ; undefined
    1dfc:	19052e01 	.inst	0x19052e01 ; undefined
    1e00:	01040200 	.inst	0x01040200 ; undefined
    1e04:	2f0e052e 	ushr	v14.8b, v9.8b, #2
    1e08:	052e1b05 	ext	z5.b, z5.b, z24.b, #118
    1e0c:	24053c17 	cmpne	p7.b, p7/z, z0.b, z5.d
    1e10:	20090520 	.inst	0x20090520 ; undefined
    1e14:	7a030c05 	.inst	0x7a030c05 ; undefined
    1e18:	3c09052e 	str	b14, [x9], #144
    1e1c:	05360a05 	ext	z5.b, z5.b, z16.b, #178
    1e20:	14052101 	b	14a224 <bss_end+0xc1474>
    1e24:	3d090530 	str	b16, [x9, #577]
    1e28:	052f0c05 	ext	z5.b, z5.b, z0.b, #123
    1e2c:	0c052003 	.inst	0x0c052003 ; undefined
    1e30:	2e0a0522 	.inst	0x2e0a0522 ; undefined
    1e34:	052f0505 	ext	z5.b, z5.b, z8.b, #121
    1e38:	08053d09 	stxrb	w5, w9, [x8]
    1e3c:	09052f2e 	.inst	0x09052f2e ; undefined
    1e40:	3d0a053d 	str	b29, [x9, #641]
    1e44:	053d0d05 	ext	z5.b, z5.b, z8.b, #235
    1e48:	09053c10 	.inst	0x09053c10 ; undefined
    1e4c:	052f2f21 	tbx	z1.b, z25.b, z15.b
    1e50:	0d053f0e 	.inst	0x0d053f0e ; undefined
    1e54:	1d05312e 	.inst	0x1d05312e ; undefined
    1e58:	02040200 	.inst	0x02040200 ; undefined
    1e5c:	053c6f03 	uzp2	z3.b, z24.b, z28.b
    1e60:	04020015 	.inst	0x04020015 ; undefined
    1e64:	07053c01 	.inst	0x07053c01 ; undefined
    1e68:	054a0f03 	.inst	0x054a0f03 ; undefined
    1e6c:	0a052408 	and	w8, w0, w5, lsl #9
    1e70:	2101052f 	.inst	0x2101052f ; undefined
    1e74:	05301405 	ext	z5.b, z5.b, z0.b, #133
    1e78:	08052f07 	stxrb	w5, w7, [x24]
    1e7c:	210a0521 	.inst	0x210a0521 ; undefined
    1e80:	05661205 	ext	z5.b, {z16.b, z17.b}, #52
    1e84:	07052e17 	.inst	0x07052e17 ; undefined
    1e88:	2f080520 	ushr	v0.8b, v9.8b, #8
    1e8c:	053a0905 	ext	z5.b, z5.b, z8.b, #210
    1e90:	01054e0a 	.inst	0x01054e0a ; undefined
    1e94:	00020221 	.inst	0x00020221 ; undefined
    1e98:	03170101 	.inst	0x03170101 ; undefined
    1e9c:	00050000 	.inst	0x00050000 ; undefined
    1ea0:	005e0008 	.inst	0x005e0008 ; undefined
    1ea4:	01040000 	.inst	0x01040000 ; undefined
    1ea8:	0d0efb01 	.inst	0x0d0efb01 ; undefined
    1eac:	01010100 	.inst	0x01010100 ; undefined
    1eb0:	00000001 	udf	#1
    1eb4:	01000001 	.inst	0x01000001 ; undefined
    1eb8:	041f0101 	.inst	0x041f0101 ; undefined
    1ebc:	0000000e 	udf	#14
    1ec0:	0000002e 	udf	#46
    1ec4:	00000068 	udf	#104
    1ec8:	00000040 	udf	#64
    1ecc:	021f0102 	.inst	0x021f0102 ; undefined
    1ed0:	01b90a0f 	.inst	0x01b90a0f ; undefined
    1ed4:	b9010000 	str	w0, [x0, #256]
    1ed8:	01000001 	.inst	0x01000001 ; undefined
    1edc:	000000f8 	udf	#248
    1ee0:	00008702 	udf	#34562
    1ee4:	01040200 	.inst	0x01040200 ; undefined
    1ee8:	9a030000 	adc	x0, x0, x3
    1eec:	02000000 	.inst	0x02000000 ; undefined
    1ef0:	000000c0 	udf	#192
    1ef4:	00013c02 	.inst	0x00013c02 ; undefined
    1ef8:	01480200 	.inst	0x01480200 ; undefined
    1efc:	b7020000 	tbnz	x0, #32, 5efc <bss_size+0x5e9b>
    1f00:	02000000 	.inst	0x02000000 ; undefined
    1f04:	09001105 	.inst	0x09001105 ; undefined
    1f08:	0852a402 	ldaxrb	w2, [x0]
    1f0c:	00000000 	udf	#0
    1f10:	01090300 	.inst	0x01090300 ; undefined
    1f14:	052f0f05 	ext	z5.b, z5.b, z24.b, #123
    1f18:	01052f0b 	.inst	0x01052f0b ; undefined
    1f1c:	302d052f 	adr	x15, 5bfc1 <bss_size+0x5bf60>
    1f20:	05590a05 	mov	z5.h, p9/z, #80
    1f24:	05212108 	mov	z8.b, b8
    1f28:	0c053c0e 	.inst	0x0c053c0e ; undefined
    1f2c:	2106052e 	.inst	0x2106052e ; undefined
    1f30:	053a0b05 	ext	z5.b, z5.b, z24.b, #210
    1f34:	01054e0a 	.inst	0x01054e0a ; undefined
    1f38:	3e2e0521 	.inst	0x3e2e0521 ; undefined
    1f3c:	054c0905 	.inst	0x054c0905 ; undefined
    1f40:	13052003 	sbfx	w3, w0, #5, #4
    1f44:	03040200 	.inst	0x03040200 ; undefined
    1f48:	00050521 	.inst	0x00050521 ; undefined
    1f4c:	3c030402 	str	b2, [x0], #48
    1f50:	02001905 	.inst	0x02001905 ; undefined
    1f54:	052d0304 	ext	z4.b, z4.b, z24.b, #104
    1f58:	04020010 	.inst	0x04020010 ; undefined
    1f5c:	0a053c01 	and	w1, w0, w5, lsl #15
    1f60:	2101054d 	.inst	0x2101054d ; undefined
    1f64:	05303305 	tbl	z5.b, {z24.b}, z16.b
    1f68:	16054b10 	b	fffffffff8154ba8 <bss_end+0xfffffffff80cbdf8>
    1f6c:	3e0d053d 	.inst	0x3e0d053d ; undefined
    1f70:	053e0b05 	ext	z5.b, z5.b, z24.b, #242
    1f74:	22052003 	.inst	0x22052003 ; undefined
    1f78:	03040200 	.inst	0x03040200 ; undefined
    1f7c:	000f0521 	.inst	0x000f0521 ; undefined
    1f80:	3c030402 	str	b2, [x0], #48
    1f84:	02001505 	.inst	0x02001505 ; undefined
    1f88:	053c0304 	ext	z4.b, z4.b, z24.b, #224
    1f8c:	04020013 	.inst	0x04020013 ; undefined
    1f90:	25052003 	cmplt	p3.b, p0/z, z0.b, #5
    1f94:	03040200 	.inst	0x03040200 ; undefined
    1f98:	0014051f 	.inst	0x0014051f ; undefined
    1f9c:	3c010402 	str	b2, [x0], #16
    1fa0:	054e0f05 	.inst	0x054e0f05 ; undefined
    1fa4:	0e052f10 	smov	w16, v24.b[2]
    1fa8:	2f030520 	mvni	v0.2s, #0x69
    1fac:	05282505 	.inst	0x05282505 ; undefined
    1fb0:	43052e37 	.inst	0x43052e37 ; undefined
    1fb4:	2e51052e 	fmaxnmp	v14.4h, v9.4h, v17.4h
    1fb8:	79030305 	strh	w5, [x24, #384]
    1fbc:	030a0520 	.inst	0x030a0520 ; undefined
    1fc0:	01058209 	.inst	0x01058209 ; undefined
    1fc4:	301d0521 	adr	x1, 3c069 <bss_size+0x3c008>
    1fc8:	05300305 	ext	z5.b, z5.b, z24.b, #128
    1fcc:	03052f0e 	.inst	0x03052f0e ; undefined
    1fd0:	2101053d 	.inst	0x2101053d ; undefined
    1fd4:	05311c05 	ext	z5.b, z5.b, z0.b, #143
    1fd8:	13053d11 	sbfx	w17, w8, #5, #11
    1fdc:	3d07052f 	str	b15, [x9, #449]
    1fe0:	053f0b05 	ext	z5.b, z5.b, z24.b, #250
    1fe4:	2c052003 	stnp	s3, s8, [x0, #40]
    1fe8:	03040200 	.inst	0x03040200 ; undefined
    1fec:	00330521 	.inst	0x00330521 ; NYI
    1ff0:	2e030402 	.inst	0x2e030402 ; undefined
    1ff4:	02001305 	.inst	0x02001305 ; undefined
    1ff8:	052e0304 	ext	z4.b, z4.b, z24.b, #112
    1ffc:	0402001a 	.inst	0x0402001a ; undefined
    2000:	20052e03 	.inst	0x20052e03 ; undefined
    2004:	03040200 	.inst	0x03040200 ; undefined
    2008:	001e052e 	.inst	0x001e052e ; undefined
    200c:	20030402 	.inst	0x20030402 ; undefined
    2010:	02002a05 	.inst	0x02002a05 ; undefined
    2014:	051f0304 	mov	z4.b, p15/z, #24
    2018:	04020014 	.inst	0x04020014 ; undefined
    201c:	0b053c01 	add	w1, w0, w5, lsl #15
    2020:	20030540 	.inst	0x20030540 ; undefined
    2024:	02003305 	.inst	0x02003305 ; undefined
    2028:	05210304 	ext	z4.b, z4.b, z24.b, #8
    202c:	04020041 	.inst	0x04020041 ; undefined
    2030:	13052e03 	sbfx	w3, w16, #5, #7
    2034:	03040200 	.inst	0x03040200 ; undefined
    2038:	0021052e 	.inst	0x0021052e ; NYI
    203c:	2e030402 	.inst	0x2e030402 ; undefined
    2040:	02002705 	.inst	0x02002705 ; undefined
    2044:	052e0304 	ext	z4.b, z4.b, z24.b, #112
    2048:	04020025 	.inst	0x04020025 ; undefined
    204c:	2a052003 	orr	w3, w0, w5, lsl #8
    2050:	03040200 	.inst	0x03040200 ; undefined
    2054:	0014051f 	.inst	0x0014051f ; undefined
    2058:	3c010402 	str	b2, [x0], #16
    205c:	053f1705 	ext	z5.b, z5.b, z24.b, #253
    2060:	03052e12 	.inst	0x03052e12 ; undefined
    2064:	2f3a0530 	ushr	v16.2s, v9.2s, #6
    2068:	052e4e05 	.inst	0x052e4e05 ; undefined
    206c:	14052e49 	b	14d990 <bss_end+0xc4be0>
    2070:	2e12052e 	.inst	0x2e12052e ; undefined
    2074:	05302c05 	tbx	z5.b, z0.b, z16.b
    2078:	48052e54 	stxrh	w5, w20, [x18]
    207c:	2e0e052e 	.inst	0x2e0e052e ; undefined
    2080:	05301205 	ext	z5.b, z5.b, z16.b, #132
    2084:	3d052f2b 	str	b11, [x25, #331]
    2088:	2e34052e 	uhadd	v14.8b, v9.8b, v20.8b
    208c:	05204b05 	.inst	0x05204b05 ; undefined
    2090:	32052e46 	orr	w6, w18, #0xf800007f
    2094:	20160520 	.inst	0x20160520 ; undefined
    2098:	05201405 	ext	z5.b, z5.b, z0.b, #5
    209c:	06052f03 	.inst	0x06052f03 ; undefined
    20a0:	20130530 	.inst	0x20130530 ; undefined
    20a4:	3d200505 	str	b5, [x8, #2049]
    20a8:	053d0d05 	ext	z5.b, z5.b, z8.b, #235
    20ac:	22052005 	.inst	0x22052005 ; undefined
    20b0:	03040200 	.inst	0x03040200 ; undefined
    20b4:	00160520 	.inst	0x00160520 ; undefined
    20b8:	3c010402 	str	b2, [x0], #16
    20bc:	31590c05 	adds	w5, w0, #0x643, lsl #12
    20c0:	053d0f05 	ext	z5.b, z5.b, z24.b, #235
    20c4:	38052f01 	strb	w1, [x24, #82]!
    20c8:	4b0a0530 	sub	w16, w9, w10, lsl #1
    20cc:	053d0105 	ext	z5.b, z5.b, z8.b, #232
    20d0:	0305301a 	.inst	0x0305301a ; undefined
    20d4:	2101053d 	.inst	0x2101053d ; undefined
    20d8:	053e1705 	ext	z5.b, z5.b, z24.b, #245
    20dc:	01053d03 	.inst	0x01053d03 ; undefined
    20e0:	3e0d052f 	.inst	0x3e0d052f ; undefined
    20e4:	05220305 	ext	z5.b, z5.b, z24.b, #16
    20e8:	01054e0a 	.inst	0x01054e0a ; undefined
    20ec:	300b0521 	adr	x1, 18191 <bss_size+0x18130>
    20f0:	05220305 	ext	z5.b, z5.b, z24.b, #16
    20f4:	01054e0a 	.inst	0x01054e0a ; undefined
    20f8:	30160521 	adr	x1, 2e19d <bss_size+0x2e13c>
    20fc:	052f0305 	ext	z5.b, z5.b, z24.b, #120
    2100:	13053001 	sbfx	w1, w0, #5, #8
    2104:	2f0f0540 	ushr	v0.8b, v10.8b, #1
    2108:	052f0305 	ext	z5.b, z5.b, z24.b, #120
    210c:	03053d0b 	.inst	0x03053d0b ; undefined
    2110:	00200520 	.inst	0x00200520 ; NYI
    2114:	20030402 	.inst	0x20030402 ; undefined
    2118:	02001405 	.inst	0x02001405 ; undefined
    211c:	053c0104 	ext	z4.b, z4.b, z8.b, #224
    2120:	052f5a03 	.inst	0x052f5a03 ; undefined
    2124:	03053d2e 	.inst	0x03053d2e ; undefined
    2128:	2124052e 	.inst	0x2124052e ; undefined
    212c:	052e3305 	tbl	z5.b, {z24.b}, z14.b
    2130:	05212003 	mov	z3.b, b0
    2134:	11052101 	add	w1, w8, #0x148
    2138:	2f05053e 	mvni	v30.2s, #0xa9
    213c:	11052f3e 	add	w30, w25, #0x14b
    2140:	2009053d 	.inst	0x2009053d ; undefined
    2144:	02002605 	.inst	0x02002605 ; undefined
    2148:	05200304 	ext	z4.b, z4.b, z24.b, #0
    214c:	0402001a 	.inst	0x0402001a ; undefined
    2150:	09053c01 	.inst	0x09053c01 ; undefined
    2154:	10052f59 	adr	x25, c73c <bss_size+0xc6db>
    2158:	2e080521 	.inst	0x2e080521 ; undefined
    215c:	30400905 	adr	x5, 8227d <initrd_list+0xc9>
    2160:	2f3d2f3d 	.inst	0x2f3d2f3d ; undefined
    2164:	2f3d2f3d 	.inst	0x2f3d2f3d ; undefined
    2168:	3e14053d 	.inst	0x3e14053d ; undefined
    216c:	052e0c05 	ext	z5.b, z5.b, z0.b, #115
    2170:	3d303d0d 	str	b13, [x8, #3087]
    2174:	3d2f3d2f 	str	b15, [x9, #3023]
    2178:	052f3d2f 	.inst	0x052f3d2f ; undefined
    217c:	3d304e11 	str	b17, [x16, #3091]
    2180:	3d2f3d2f 	str	b15, [x9, #3023]
    2184:	3d2f3d2f 	str	b15, [x9, #3023]
    2188:	74031805 	.inst	0x74031805 ; undefined
    218c:	0309053c 	.inst	0x0309053c ; undefined
    2190:	01053c0f 	.inst	0x01053c0f ; undefined
    2194:	052e0b03 	ext	z3.b, z3.b, z24.b, #114
    2198:	20790309 	.inst	0x20790309 ; undefined
    219c:	2f3d2f3d 	.inst	0x2f3d2f3d ; undefined
    21a0:	3001053d 	adr	x29, 4245 <bss_size+0x41e4>
    21a4:	053e1505 	ext	z5.b, z5.b, z8.b, #245
    21a8:	03052f0f 	.inst	0x03052f0f ; undefined
    21ac:	2101054d 	.inst	0x2101054d ; undefined
    21b0:	01000302 	.inst	0x01000302 ; undefined
    21b4:	00028d01 	.inst	0x00028d01 ; undefined
    21b8:	08000500 	stxrb	w0, w0, [x8]
    21bc:	00004f00 	udf	#20224
    21c0:	01010400 	.inst	0x01010400 ; undefined
    21c4:	000d0efb 	.inst	0x000d0efb ; undefined
    21c8:	01010101 	.inst	0x01010101 ; undefined
    21cc:	01000000 	.inst	0x01000000 ; undefined
    21d0:	01010000 	.inst	0x01010000 ; undefined
    21d4:	0e041f01 	.inst	0x0e041f01 ; undefined
    21d8:	2e000000 	ext	v0.8b, v0.8b, v0.8b, #0
    21dc:	68000000 	.inst	0x68000000 ; undefined
    21e0:	40000000 	.inst	0x40000000 ; undefined
    21e4:	02000000 	.inst	0x02000000 ; undefined
    21e8:	0f021f01 	.inst	0x0f021f01 ; undefined
    21ec:	0001c707 	.inst	0x0001c707 ; undefined
    21f0:	01c70100 	.inst	0x01c70100 ; undefined
    21f4:	87010000 	.inst	0x87010000 ; undefined
    21f8:	02000000 	.inst	0x02000000 ; undefined
    21fc:	0000007a 	udf	#122
    2200:	0000af03 	udf	#44803
    2204:	01480200 	.inst	0x01480200 ; undefined
    2208:	9a020000 	adc	x0, x0, x2
    220c:	02000000 	.inst	0x02000000 ; undefined
    2210:	09002705 	.inst	0x09002705 ; undefined
    2214:	0859d402 	ldaxrb	w2, [x0]
    2218:	00000000 	udf	#0
    221c:	010d0300 	.inst	0x010d0300 ; undefined
    2220:	053d0805 	ext	z5.b, z5.b, z0.b, #234
    2224:	0d052e05 	.inst	0x0d052e05 ; undefined
    2228:	0b053d2f 	add	w15, w9, w5, lsl #15
    222c:	4301053d 	.inst	0x4301053d ; undefined
    2230:	051b1005 	mov	z5.b, p11/z, #-128
    2234:	0d052e16 	.inst	0x0d052e16 ; undefined
    2238:	2f0f0520 	ushr	v0.8b, v9.8b, #1
    223c:	052e0d05 	ext	z5.b, z5.b, z8.b, #115
    2240:	0c052f06 	.inst	0x0c052f06 ; undefined
    2244:	2019052e 	.inst	0x2019052e ; undefined
    2248:	052f0605 	ext	z5.b, z5.b, z16.b, #121
    224c:	01052e13 	.inst	0x01052e13 ; undefined
    2250:	3e1f0530 	.inst	0x3e1f0530 ; undefined
    2254:	052f0805 	ext	z5.b, z5.b, z0.b, #122
    2258:	17052e05 	b	fffffffffc14da6c <bss_end+0xfffffffffc0c4cbc>
    225c:	01040200 	.inst	0x01040200 ; undefined
    2260:	2f0b052e 	ushr	v14.8b, v9.8b, #5
    2264:	053d0905 	ext	z5.b, z5.b, z8.b, #234
    2268:	0b052e05 	add	w5, w16, w5, lsl #11
    226c:	3e08053d 	.inst	0x3e08053d ; undefined
    2270:	052e1a05 	ext	z5.b, z5.b, z16.b, #118
    2274:	08052e15 	stxrb	w5, w21, [x16]
    2278:	2e1a0521 	.inst	0x2e1a0521 ; undefined
    227c:	052e1505 	ext	z5.b, z5.b, z8.b, #117
    2280:	0b052110 	add	w16, w8, w5, lsl #8
    2284:	300a052e 	adr	x14, 16329 <bss_size+0x162c8>
    2288:	05210105 	ext	z5.b, z5.b, z8.b, #8
    228c:	08053029 	stxrb	w5, w9, [x1]
    2290:	2e05053d 	.inst	0x2e05053d ; undefined
    2294:	052f0705 	ext	z5.b, z5.b, z24.b, #121
    2298:	0b052e05 	add	w5, w16, w5, lsl #11
    229c:	3e06053d 	.inst	0x3e06053d ; undefined
    22a0:	052e1605 	ext	z5.b, z5.b, z16.b, #117
    22a4:	06052e13 	.inst	0x06052e13 ; undefined
    22a8:	2e160521 	.inst	0x2e160521 ; undefined
    22ac:	052e1305 	ext	z5.b, z5.b, z24.b, #116
    22b0:	01052910 	.inst	0x01052910 ; undefined
    22b4:	30190527 	adr	x7, 34359 <bss_size+0x342f8>
    22b8:	052f0505 	ext	z5.b, z5.b, z8.b, #121
    22bc:	04020011 	.inst	0x04020011 ; undefined
    22c0:	0a053c01 	and	w1, w0, w5, lsl #15
    22c4:	2101052f 	.inst	0x2101052f ; undefined
    22c8:	05301b05 	ext	z5.b, z5.b, z24.b, #134
    22cc:	05053d0b 	.inst	0x05053d0b ; undefined
    22d0:	0402002f 	.inst	0x0402002f ; undefined
    22d4:	02003e01 	.inst	0x02003e01 ; undefined
    22d8:	053d0104 	ext	z4.b, z4.b, z8.b, #232
    22dc:	04020009 	.inst	0x04020009 ; undefined
    22e0:	0e053d01 	umov	w1, v8.b[2]
    22e4:	01040200 	.inst	0x01040200 ; undefined
    22e8:	4b03053d 	sub	w29, w9, w3, lsl #1
    22ec:	7a030a05 	.inst	0x7a030a05 ; undefined
    22f0:	2701054a 	.inst	0x2701054a ; undefined
    22f4:	05301305 	ext	z5.b, z5.b, z24.b, #132
    22f8:	0f052f11 	.inst	0x0f052f11 ; undefined
    22fc:	3d03054a 	str	b10, [x10, #193]
    2300:	054d0105 	.inst	0x054d0105 ; undefined
    2304:	19053e2a 	.inst	0x19053e2a ; undefined
    2308:	3d13053d 	str	b29, [x9, #1217]
    230c:	05740a05 	ext	z5.b, {z16.b, z17.b}, #162
    2310:	0e052f0c 	smov	w12, v24.b[2]
    2314:	2f10052f 	ushr	v15.4h, v9.4h, #16
    2318:	2f200e05 	.inst	0x2f200e05 ; undefined
    231c:	053c0c05 	ext	z5.b, z5.b, z0.b, #227
    2320:	13052f15 	sbfx	w21, w24, #5, #7
    2324:	2f28053c 	ushr	v28.2s, v9.2s, #24
    2328:	052e3005 	tbl	z5.b, {z0.b}, z14.b
    232c:	0e052010 	tbl	v16.8b, {v0.16b, v1.16b}, v5.8b
    2330:	2f170520 	ushr	v0.4h, v9.4h, #9
    2334:	052e0e05 	ext	z5.b, z5.b, z16.b, #115
    2338:	0a052f03 	and	w3, w24, w5, lsl #11
    233c:	2101054b 	.inst	0x2101054b ; undefined
    2340:	05301005 	ext	z5.b, z5.b, z0.b, #132
    2344:	0d052f15 	.inst	0x0d052f15 ; undefined
    2348:	2e05052f 	.inst	0x2e05052f ; undefined
    234c:	7901052f 	strh	w15, [x9, #130]
    2350:	051d0d05 	mov	z5.b, p13/z, #104
    2354:	01053d05 	.inst	0x01053d05 ; undefined
    2358:	3f0c053e 	.inst	0x3f0c053e ; undefined
    235c:	02000505 	.inst	0x02000505 ; undefined
    2360:	00300104 	.inst	0x00300104 ; NYI
    2364:	21010402 	.inst	0x21010402 ; undefined
    2368:	01040200 	.inst	0x01040200 ; undefined
    236c:	2514051f 	cmpgt	p15.b, p1/z, z8.b, #-12
    2370:	052f0805 	ext	z5.b, z5.b, z0.b, #122
    2374:	05052111 	.inst	0x05052111 ; undefined
    2378:	053d3d4b 	.inst	0x053d3d4b ; undefined
    237c:	01052a09 	.inst	0x01052a09 ; undefined
    2380:	4c13055e 	.inst	0x4c13055e ; undefined
    2384:	052f1505 	ext	z5.b, z5.b, z8.b, #125
    2388:	1a052f12 	.inst	0x1a052f12 ; undefined
    238c:	2e11053d 	.inst	0x2e11053d ; undefined
    2390:	4b3d0305 	sub	w5, w24, w29, uxtb
    2394:	2101054b 	.inst	0x2101054b ; undefined
    2398:	053e1905 	ext	z5.b, z5.b, z8.b, #246
    239c:	08053d0b 	stxrb	w5, w11, [x8]
    23a0:	210b054b 	.inst	0x210b054b ; undefined
    23a4:	052e0705 	ext	z5.b, z5.b, z24.b, #113
    23a8:	07053d12 	.inst	0x07053d12 ; undefined
    23ac:	0e054b3d 	.inst	0x0e054b3d ; undefined
    23b0:	3009054b 	adr	x11, 14459 <bss_size+0x143f8>
    23b4:	053c7903 	.inst	0x053c7903 ; undefined
    23b8:	3c09030a 	stur	b10, [x24, #144]
    23bc:	05210105 	ext	z5.b, z5.b, z8.b, #8
    23c0:	03053014 	.inst	0x03053014 ; undefined
    23c4:	21010530 	.inst	0x21010530 ; undefined
    23c8:	053e1505 	ext	z5.b, z5.b, z8.b, #245
    23cc:	03053013 	.inst	0x03053013 ; undefined
    23d0:	0105592f 	.inst	0x0105592f ; undefined
    23d4:	3f0b0559 	.inst	0x3f0b0559 ; undefined
    23d8:	052f0d05 	ext	z5.b, z5.b, z8.b, #123
    23dc:	09052005 	.inst	0x09052005 ; undefined
    23e0:	3d140521 	str	b1, [x9, #1281]
    23e4:	2f200905 	.inst	0x2f200905 ; undefined
    23e8:	11052f3d 	add	w29, w25, #0x14b
    23ec:	2009053d 	.inst	0x2009053d ; undefined
    23f0:	02002605 	.inst	0x02002605 ; undefined
    23f4:	05200304 	ext	z4.b, z4.b, z24.b, #0
    23f8:	0402001a 	.inst	0x0402001a ; undefined
    23fc:	09053c01 	.inst	0x09053c01 ; undefined
    2400:	02040200 	.inst	0x02040200 ; undefined
    2404:	001c0559 	.inst	0x001c0559 ; undefined
    2408:	03020402 	.inst	0x03020402 ; undefined
    240c:	16052079 	b	fffffffff814a5f0 <bss_end+0xfffffffff80c1840>
    2410:	01040200 	.inst	0x01040200 ; undefined
    2414:	0305053c 	.inst	0x0305053c ; undefined
    2418:	01053c09 	.inst	0x01053c09 ; undefined
    241c:	3e130521 	.inst	0x3e130521 ; undefined
    2420:	052f0b05 	ext	z5.b, z5.b, z24.b, #122
    2424:	05052003 	.inst	0x05052003 ; undefined
    2428:	03040200 	.inst	0x03040200 ; undefined
    242c:	00190521 	.inst	0x00190521 ; undefined
    2430:	3b030402 	.inst	0x3b030402 ; undefined
    2434:	02001405 	.inst	0x02001405 ; undefined
    2438:	053c0104 	ext	z4.b, z4.b, z8.b, #224
    243c:	01053f03 	.inst	0x01053f03 ; undefined
    2440:	00030221 	.inst	0x00030221 ; undefined
    2444:	010f0101 	.inst	0x010f0101 ; undefined
    2448:	00050000 	.inst	0x00050000 ; undefined
    244c:	00540008 	.inst	0x00540008 ; undefined
    2450:	01040000 	.inst	0x01040000 ; undefined
    2454:	0d0efb01 	.inst	0x0d0efb01 ; undefined
    2458:	01010100 	.inst	0x01010100 ; undefined
    245c:	00000001 	udf	#1
    2460:	01000001 	.inst	0x01000001 ; undefined
    2464:	041f0101 	.inst	0x041f0101 ; undefined
    2468:	0000000e 	udf	#14
    246c:	0000002e 	udf	#46
    2470:	00000068 	udf	#104
    2474:	00000040 	udf	#64
    2478:	021f0102 	.inst	0x021f0102 ; undefined
    247c:	01d4080f 	.inst	0x01d4080f ; undefined
    2480:	d4010000 	.inst	0xd4010000 ; undefined
    2484:	01000001 	.inst	0x01000001 ; undefined
    2488:	000000af 	udf	#175
    248c:	00007a02 	udf	#31234
    2490:	01480300 	.inst	0x01480300 ; undefined
    2494:	a6020000 	.inst	0xa6020000 ; undefined
    2498:	02000000 	.inst	0x02000000 ; undefined
    249c:	0000013c 	udf	#316
    24a0:	00009a02 	udf	#39426
    24a4:	16050200 	b	fffffffff8142ca4 <bss_end+0xfffffffff80b9ef4>
    24a8:	0c020900 	.inst	0x0c020900 ; undefined
    24ac:	00000860 	udf	#2144
    24b0:	03000000 	.inst	0x03000000 ; undefined
    24b4:	14050109 	b	1428d8 <bss_end+0xb9b28>
    24b8:	2e1f053d 	.inst	0x2e1f053d ; undefined
    24bc:	05201e05 	ext	z5.b, z5.b, z16.b, #7
    24c0:	14052101 	b	14a8c4 <bss_end+0xc1b14>
    24c4:	2203053e 	.inst	0x2203053e ; undefined
    24c8:	05310a05 	ext	z5.b, z5.b, z16.b, #138
    24cc:	14052101 	b	14a8d0 <bss_end+0xc1b20>
    24d0:	22030530 	.inst	0x22030530 ; undefined
    24d4:	05310a05 	ext	z5.b, z5.b, z16.b, #138
    24d8:	2f052101 	.inst	0x2f052101 ; undefined
    24dc:	4b1c0530 	sub	w16, w9, w28, lsl #1
    24e0:	052e0c05 	ext	z5.b, z5.b, z0.b, #115
    24e4:	03053d29 	.inst	0x03053d29 ; undefined
    24e8:	5901052e 	.inst	0x5901052e ; undefined
    24ec:	053e4205 	.inst	0x053e4205 ; undefined
    24f0:	05055a22 	.inst	0x05055a22 ; undefined
    24f4:	0c053d3e 	.inst	0x0c053d3e ; undefined
    24f8:	3115053d 	adds	w29, w9, #0x541
    24fc:	052e1f05 	ext	z5.b, z5.b, z24.b, #119
    2500:	17052e13 	b	fffffffffc14dd4c <bss_end+0xfffffffffc0c4f9c>
    2504:	3d13052f 	str	b15, [x9, #1217]
    2508:	310c053d 	adds	w29, w9, #0x301
    250c:	2208054b 	.inst	0x2208054b ; undefined
    2510:	05210a05 	ext	z5.b, z5.b, z16.b, #10
    2514:	19052f0d 	.inst	0x19052f0d ; undefined
    2518:	0023053a 	.inst	0x0023053a ; NYI
    251c:	3c010402 	str	b2, [x0], #16
    2520:	02003505 	.inst	0x02003505 ; undefined
    2524:	052e0104 	ext	z4.b, z4.b, z8.b, #112
    2528:	04020019 	.inst	0x04020019 ; undefined
    252c:	05052e01 	.inst	0x05052e01 ; undefined
    2530:	3d150533 	str	b19, [x9, #1345]
    2534:	05591005 	mov	z5.h, p9/z, #-128
    2538:	10055b15 	adr	x21, d098 <bss_size+0xd037>
    253c:	3f03053d 	.inst	0x3f03053d ; undefined
    2540:	05220a05 	ext	z5.b, z5.b, z16.b, #18
    2544:	1e052101 	.inst	0x1e052101 ; undefined
    2548:	3d090530 	str	b16, [x9, #577]
    254c:	3d2f0305 	str	b5, [x24, #3008]
    2550:	3d01052f 	str	b15, [x9, #65]
    2554:	01000302 	.inst	0x01000302 ; undefined
    2558:	00005701 	udf	#22273
    255c:	08000500 	stxrb	w0, w0, [x8]
    2560:	00002a00 	udf	#10752
    2564:	01010400 	.inst	0x01010400 ; undefined
    2568:	000d0efb 	.inst	0x000d0efb ; undefined
    256c:	01010101 	.inst	0x01010101 ; undefined
    2570:	01000000 	.inst	0x01000000 ; undefined
    2574:	01010000 	.inst	0x01010000 ; undefined
    2578:	0e011f01 	.inst	0x0e011f01 ; undefined
    257c:	02000000 	.inst	0x02000000 ; undefined
    2580:	0f021f01 	.inst	0x0f021f01 ; undefined
    2584:	0001dc02 	.inst	0x0001dc02 ; undefined
    2588:	01dc0000 	.inst	0x01dc0000 ; undefined
    258c:	00000000 	udf	#0
    2590:	00000209 	udf	#521
    2594:	00000008 	udf	#8
    2598:	21190000 	.inst	0x21190000 ; undefined
    259c:	21232221 	.inst	0x21232221 ; undefined
    25a0:	21232124 	.inst	0x21232124 ; undefined
    25a4:	23242121 	.inst	0x23242121 ; undefined
    25a8:	22212321 	.inst	0x22212321 ; undefined
    25ac:	02212221 	.inst	0x02212221 ; undefined
    25b0:	01010006 	.inst	0x01010006 ; undefined
    25b4:	00000084 	udf	#132
    25b8:	00080005 	.inst	0x00080005 ; undefined
    25bc:	0000002e 	udf	#46
    25c0:	fb010104 	.inst	0xfb010104 ; undefined
    25c4:	01000d0e 	.inst	0x01000d0e ; undefined
    25c8:	00010101 	.inst	0x00010101 ; undefined
    25cc:	00010000 	.inst	0x00010000 ; undefined
    25d0:	01010100 	.inst	0x01010100 ; undefined
    25d4:	000e021f 	.inst	0x000e021f ; undefined
    25d8:	002e0000 	.inst	0x002e0000 ; NYI
    25dc:	01020000 	.inst	0x01020000 ; undefined
    25e0:	020f021f 	.inst	0x020f021f ; undefined
    25e4:	000001e4 	udf	#484
    25e8:	0001e401 	.inst	0x0001e401 ; undefined
    25ec:	09000100 	.inst	0x09000100 ; undefined
    25f0:	08680002 	.inst	0x08680002 ; undefined
    25f4:	00000000 	udf	#0
    25f8:	e6081600 	.inst	0xe6081600 ; undefined
    25fc:	e608e608 	.inst	0xe608e608 ; undefined
    2600:	e608e708 	.inst	0xe608e708 ; undefined
    2604:	e608e608 	.inst	0xe608e608 ; undefined
    2608:	e608e708 	.inst	0xe608e708 ; undefined
    260c:	e608e608 	.inst	0xe608e608 ; undefined
    2610:	e608e708 	.inst	0xe608e708 ; undefined
    2614:	e608e608 	.inst	0xe608e608 ; undefined
    2618:	2121e908 	.inst	0x2121e908 ; undefined
    261c:	08203503 	.inst	0x08203503 ; undefined
    2620:	4b08214b 	sub	w11, w10, w8, lsl #8
    2624:	214b0823 	.inst	0x214b0823 ; undefined
    2628:	08234b08 	.inst	0x08234b08 ; undefined
    262c:	0821214b 	.inst	0x0821214b ; undefined
    2630:	4b08234b 	sub	w11, w26, w8, lsl #8
    2634:	024b0821 	.inst	0x024b0821 ; undefined
    2638:	01010001 	.inst	0x01010001 ; undefined
    263c:	0000005a 	udf	#90
    2640:	00080005 	.inst	0x00080005 ; undefined
    2644:	0000002e 	udf	#46
    2648:	fb010104 	.inst	0xfb010104 ; undefined
    264c:	01000d0e 	.inst	0x01000d0e ; undefined
    2650:	00010101 	.inst	0x00010101 ; undefined
    2654:	00010000 	.inst	0x00010000 ; undefined
    2658:	01010100 	.inst	0x01010100 ; undefined
    265c:	000e021f 	.inst	0x000e021f ; undefined
    2660:	002e0000 	.inst	0x002e0000 ; NYI
    2664:	01020000 	.inst	0x01020000 ; undefined
    2668:	020f021f 	.inst	0x020f021f ; undefined
    266c:	000001f6 	udf	#502
    2670:	0001f601 	.inst	0x0001f601 ; undefined
    2674:	09000100 	.inst	0x09000100 ; undefined
    2678:	0872d002 	.inst	0x0872d002 ; undefined
    267c:	00000000 	udf	#0
    2680:	21211400 	.inst	0x21211400 ; undefined
    2684:	21212121 	.inst	0x21212121 ; undefined
    2688:	21212221 	.inst	0x21212221 ; undefined
    268c:	21212121 	.inst	0x21212121 ; undefined
    2690:	24212121 	cmplo	p1.b, p0/z, z9.b, #4
    2694:	00010221 	.inst	0x00010221 ; undefined
    2698:	Address 0x0000000000002698 is out of bounds.


Disassembly of section .debug_str:

0000000000000000 <.debug_str>:
   0:	68676972 	.inst	0x68676972 ; undefined
   4:	746f5274 	.inst	0x746f5274 ; undefined
   8:	00657461 	.inst	0x00657461 ; undefined
   c:	4f657270 	sqdmlsl2	v16.4s, v19.8h, v5.h[2]
  10:	72656472 	.inst	0x72656472 ; undefined
  14:	72617500 	.inst	0x72617500 ; undefined
  18:	65735f74 	fnmla	z20.h, p7/m, z27.h, z19.h
  1c:	0069646e 	.inst	0x0069646e ; undefined
  20:	706d6574 	adr	x20, daccf <bss_end+0x51f1f>
  24:	6f6f7200 	fcmla	v0.8h, v16.8h, v15.h[1], #270
  28:	61750074 	.inst	0x61750074 ; undefined
  2c:	735f7472 	.inst	0x735f7472 ; undefined
  30:	73646e65 	.inst	0x73646e65 ; undefined
  34:	6c616200 	ldnp	d0, d24, [x16, #-496]
  38:	65636e61 	fnmls	z1.h, p3/m, z19.h, z3.h
  3c:	66656c00 	.inst	0x66656c00 ; undefined
  40:	69725f74 	ldpsw	x20, x23, [x27, #-112]
  44:	00746867 	.inst	0x00746867 ; undefined
  48:	65736e69 	fnmls	z9.h, p3/m, z19.h, z19.h
  4c:	47007472 	.inst	0x47007472 ; undefined
  50:	4320554e 	.inst	0x4320554e ; undefined
  54:	31203731 	adds	w17, w25, #0x80d
  58:	2e342e31 	uqsub	v17.8b, v17.8b, v20.8b
  5c:	6d2d2030 	stp	d16, d8, [x1, #-304]
  60:	7474696c 	.inst	0x7474696c ; undefined
  64:	652d656c 	.inst	0x652d656c ; undefined
  68:	6169646e 	.inst	0x6169646e ; undefined
  6c:	6d2d206e 	stp	d14, d8, [x3, #-304]
  70:	3d696261 	ldr	b1, [x19, #2648]
  74:	3436706c 	cbz	w12, 6ce80 <bss_size+0x6ce1f>
  78:	20672d20 	.inst	0x20672d20 ; undefined
  7c:	7266662d 	.inst	0x7266662d ; undefined
  80:	74736565 	.inst	0x74736565 ; undefined
  84:	69646e61 	ldpsw	x1, x27, [x19, #-224]
  88:	2d20676e 	stp	s14, s25, [x27, #-256]
  8c:	79736166 	ldrh	w6, [x11, #6576]
  90:	7268636e 	.inst	0x7268636e ; undefined
  94:	756f6e6f 	.inst	0x756f6e6f ; undefined
  98:	6e752d73 	uqsub	v19.8h, v11.8h, v21.8h
  9c:	646e6977 	.inst	0x646e6977 ; undefined
  a0:	6261742d 	.inst	0x6261742d ; undefined
  a4:	2073656c 	.inst	0x2073656c ; undefined
  a8:	7473662d 	.inst	0x7473662d ; undefined
  ac:	2d6b6361 	ldp	s1, s24, [x27, #-168]
  b0:	73616c63 	.inst	0x73616c63 ; undefined
  b4:	72702d68 	.inst	0x72702d68 ; undefined
  b8:	6365746f 	.inst	0x6365746f ; undefined
  bc:	6e6f6974 	.inst	0x6e6f6974 ; undefined
  c0:	69656800 	ldpsw	x0, x26, [x0, #-216]
  c4:	00746867 	.inst	0x00746867 ; undefined
  c8:	706d6973 	adr	x19, dadf7 <bss_end+0x52047>
  cc:	6d5f656c 	ldp	d12, d25, [x11, #496]
  d0:	6f6c6c61 	.inst	0x6f6c6c61 ; undefined
  d4:	6f6e0063 	mla	v3.8h, v3.8h, v14.h[2]
  d8:	41006564 	.inst	0x41006564 ; undefined
  dc:	6f4e4c56 	.inst	0x6f4e4c56 ; undefined
  e0:	6c006564 	stnp	d4, d25, [x11]
  e4:	52746665 	.inst	0x52746665 ; undefined
  e8:	7461746f 	.inst	0x7461746f ; undefined
  ec:	65640065 	fmla	z5.h, p0/m, z3.h, z4.h
  f0:	6574656c 	fnmls	z12.h, p1/m, z11.h, z20.h
  f4:	74656700 	.inst	0x74656700 ; undefined
  f8:	616c6142 	.inst	0x616c6142 ; undefined
  fc:	0065636e 	.inst	0x0065636e ; undefined
 100:	68676972 	.inst	0x68676972 ; undefined
 104:	656c5f74 	fnmla	z20.h, p7/m, z27.h, z12.h
 108:	69007466 	stgp	x6, x29, [x3]
 10c:	64724f6e 	.inst	0x64724f6e ; undefined
 110:	6d007265 	stp	d5, d28, [x19]
 114:	6d696e69 	ldp	d9, d27, [x19, #-368]
 118:	73006d75 	.inst	0x73006d75 ; undefined
 11c:	69547465 	ldpsw	x5, x29, [x3, #160]
 120:	756f656d 	.inst	0x756f656d ; undefined
 124:	65660074 	fmla	z20.h, p0/m, z3.h, z6.h
 128:	5f686374 	.inst	0x5f686374 ; undefined
 12c:	63657865 	.inst	0x63657865 ; undefined
 130:	61747300 	.inst	0x61747300 ; undefined
 134:	75006574 	.inst	0x75006574 ; undefined
 138:	36746e69 	tbz	w9, #14, ffffffffffff8f04 <bss_end+0xfffffffffff70154>
 13c:	00745f34 	.inst	0x00745f34 ; undefined
 140:	63736564 	.inst	0x63736564 ; undefined
 144:	74706972 	.inst	0x74706972 ; undefined
 148:	006e6f69 	.inst	0x006e6f69 ; undefined
 14c:	726f6873 	.inst	0x726f6873 ; undefined
 150:	6e692074 	usubl2	v20.4s, v3.8h, v9.8h
 154:	656b0074 	fmla	z20.h, p0/m, z3.h, z11.h
 158:	6c656e72 	ldnp	d18, d27, [x19, #-432]
 15c:	6174735f 	.inst	0x6174735f ; undefined
 160:	72006b63 	ands	w3, w27, #0x7ffffff
 164:	6f6f6265 	umlsl2	v5.4s, v19.8h, v15.h[2]
 168:	69660074 	ldpsw	x20, x0, [x3, #-208]
 16c:	616e656c 	.inst	0x616e656c ; undefined
 170:	6900656d 	stgp	x13, x25, [x11]
 174:	7274696e 	.inst	0x7274696e ; undefined
 178:	61635f64 	.inst	0x61635f64 ; undefined
 17c:	65670074 	fmla	z20.h, p0/m, z3.h, z7.h
 180:	6f625f74 	.inst	0x6f625f74 ; undefined
 184:	5f647261 	sqdmlsl	s1, h19, v4.h[2]
 188:	69766572 	ldpsw	x18, x25, [x11, #-80]
 18c:	6e6f6973 	.inst	0x6e6f6973 ; undefined
 190:	6c656800 	ldnp	d0, d26, [x0, #-432]
 194:	68740070 	.inst	0x68740070 ; undefined
 198:	64616572 	.inst	0x64616572 ; undefined
 19c:	6572635f 	fnmls	z31.h, p0/m, z26.h, z18.h
 1a0:	00657461 	.inst	0x00657461 ; undefined
 1a4:	6c6c6163 	ldnp	d3, d24, [x11, #-320]
 1a8:	725f6565 	.inst	0x725f6565 ; undefined
 1ac:	69006765 	stgp	x5, x25, [x27]
 1b0:	7274696e 	.inst	0x7274696e ; undefined
 1b4:	696c5f64 	ldpsw	x4, x23, [x27, #-160]
 1b8:	66007473 	.inst	0x66007473 ; undefined
 1bc:	00636e75 	.inst	0x00636e75 ; undefined
 1c0:	676e6f6c 	.inst	0x676e6f6c ; undefined
 1c4:	6e6f6c20 	umin	v0.8h, v1.8h, v15.8h
 1c8:	6e692067 	usubl2	v7.4s, v3.8h, v9.8h
 1cc:	72610074 	.inst	0x72610074 ; undefined
 1d0:	61007367 	.inst	0x61007367 ; undefined
 1d4:	00696f74 	.inst	0x00696f74 ; undefined
 1d8:	5f746567 	.inst	0x5f746567 ; undefined
 1dc:	63657865 	.inst	0x63657865 ; undefined
 1e0:	7a69735f 	.inst	0x7a69735f ; undefined
 1e4:	6f630065 	mla	v5.8h, v3.8h, v3.h[2]
 1e8:	6e616d6d 	umin	v13.8h, v11.8h, v1.8h
 1ec:	68007364 	.inst	0x68007364 ; undefined
 1f0:	6f6c6c65 	.inst	0x6f6c6c65 ; undefined
 1f4:	6e6f6c00 	umin	v0.8h, v0.8h, v15.8h
 1f8:	6f642067 	umlal2	v7.4s, v3.8h, v4.h[2]
 1fc:	656c6275 	fnmls	z21.h, p0/m, z19.h, z12.h
 200:	736e7500 	.inst	0x736e7500 ; undefined
 204:	656e6769 	fnmls	z9.h, p1/m, z27.h, z14.h
 208:	68632064 	.inst	0x68632064 ; undefined
 20c:	75007261 	.inst	0x75007261 ; undefined
 210:	5f747261 	sqdmlsl	s1, h19, v4.h[3]
 214:	646e6573 	.inst	0x646e6573 ; undefined
 218:	736c0063 	.inst	0x736c0063 ; undefined
 21c:	73007768 	.inst	0x73007768 ; undefined
 220:	74726f68 	.inst	0x74726f68 ; undefined
 224:	736e7520 	.inst	0x736e7520 ; undefined
 228:	656e6769 	fnmls	z9.h, p1/m, z27.h, z14.h
 22c:	6e692064 	usubl2	v4.4s, v3.8h, v9.8h
 230:	6f430074 	mla	v20.8h, v3.8h, v3.h[0]
 234:	6e616d6d 	umin	v13.8h, v11.8h, v1.8h
 238:	64610064 	fmla	z4.h, z3.h, z1.h[4]
 23c:	63735f64 	.inst	0x63735f64 ; undefined
 240:	75646568 	.inst	0x75646568 ; undefined
 244:	0072656c 	.inst	0x0072656c ; undefined
 248:	63727473 	.inst	0x63727473 ; undefined
 24c:	75007970 	.inst	0x75007970 ; undefined
 250:	5f747261 	sqdmlsl	s1, h19, v4.h[3]
 254:	6e797361 	uabdl2	v1.4s, v27.8h, v25.8h
 258:	65745f63 	fnmla	z3.h, p7/m, z27.h, z20.h
 25c:	73007473 	.inst	0x73007473 ; undefined
 260:	665f7379 	.inst	0x665f7379 ; undefined
 264:	5f6b726f 	sqdmlsl	s15, h19, v11.h[2]
 268:	74736574 	.inst	0x74736574 ; undefined
 26c:	72687400 	.inst	0x72687400 ; undefined
 270:	5f646165 	.inst	0x5f646165 ; undefined
 274:	74736574 	.inst	0x74736574 ; undefined
 278:	616d6b00 	.inst	0x616d6b00 ; undefined
 27c:	636f6c6c 	.inst	0x636f6c6c ; undefined
 280:	74656700 	.inst	0x74656700 ; undefined
 284:	6d72615f 	ldp	d31, d24, [x10, #-224]
 288:	6d656d5f 	ldp	d31, d27, [x10, #-432]
 28c:	0079726f 	.inst	0x0079726f ; undefined
 290:	5f746573 	.inst	0x5f746573 ; undefined
 294:	656d6974 	fnmls	z20.h, p2/m, z11.h, z13.h
 298:	0074756f 	.inst	0x0074756f ; undefined
 29c:	76657270 	.inst	0x76657270 ; undefined
 2a0:	65786500 	fnmls	z0.h, p1/m, z8.h, z24.h
 2a4:	61645f63 	.inst	0x61645f63 ; undefined
 2a8:	6e006174 	ext	v20.16b, v11.16b, v0.16b, #12
 2ac:	00747865 	.inst	0x00747865 ; undefined
 2b0:	73676572 	.inst	0x73676572 ; undefined
 2b4:	72747300 	.inst	0x72747300 ; undefined
 2b8:	5f676e69 	.inst	0x5f676e69 ; undefined
 2bc:	636f6c62 	.inst	0x636f6c62 ; undefined
 2c0:	656d006b 	fmla	z11.h, p0/m, z3.h, z13.h
 2c4:	706d636d 	adr	x13, daf33 <bss_end+0x52183>
 2c8:	6e697500 	uabd	v0.8h, v8.8h, v9.8h
 2cc:	72747074 	.inst	0x72747074 ; undefined
 2d0:	6e00745f 	.inst	0x6e00745f ; undefined
 2d4:	5f656d61 	.inst	0x5f656d61 ; undefined
 2d8:	006e656c 	.inst	0x006e656c ; undefined
 2dc:	72706d74 	.inst	0x72706d74 ; undefined
 2e0:	6f00706f 	.inst	0x6f00706f ; undefined
 2e4:	645f6666 	fcmla	z6.h, p1/m, z19.h, z31.h, #270
 2e8:	74735f74 	.inst	0x74735f74 ; undefined
 2ec:	74637572 	.inst	0x74637572 ; undefined
 2f0:	61777300 	.inst	0x61777300 ; undefined
 2f4:	00323370 	.inst	0x00323370 ; NYI
 2f8:	5f746466 	.inst	0x5f746466 ; undefined
 2fc:	64616568 	.inst	0x64616568 ; undefined
 300:	625f7265 	.inst	0x625f7265 ; undefined
 304:	66006c32 	.inst	0x66006c32 ; undefined
 308:	745f7464 	.inst	0x745f7464 ; undefined
 30c:	65766172 	fnmls	z18.h, p0/m, z11.h, z22.h
 310:	00657372 	.inst	0x00657372 ; undefined
 314:	6c727473 	ldnp	d19, d29, [x3, #-224]
 318:	6f006e65 	.inst	0x6f006e65 ; undefined
 31c:	6d5f6666 	ldp	d6, d25, [x19, #496]
 320:	725f6d65 	.inst	0x725f6d65 ; undefined
 324:	616d7673 	.inst	0x616d7673 ; undefined
 328:	69730070 	ldpsw	x16, x0, [x3, #-104]
 32c:	645f657a 	fcmla	z26.h, p1/m, z11.h, z31.h, #270
 330:	74735f74 	.inst	0x74735f74 ; undefined
 334:	74637572 	.inst	0x74637572 ; undefined
 338:	74646600 	.inst	0x74646600 ; undefined
 33c:	6165685f 	.inst	0x6165685f ; undefined
 340:	00726564 	.inst	0x00726564 ; undefined
 344:	656b6f74 	fnmls	z20.h, p3/m, z27.h, z11.h
 348:	6466006e 	fmla	z14.h, z3.h, z6.h[4]
 34c:	72705f74 	.inst	0x72705f74 ; undefined
 350:	6e00706f 	ext	v15.16b, v3.16b, v0.16b, #14
 354:	6f656d61 	.inst	0x6f656d61 ; undefined
 358:	73006666 	.inst	0x73006666 ; undefined
 35c:	63757274 	.inst	0x63757274 ; undefined
 360:	6c625f74 	ldnp	d20, d23, [x27, #-480]
 364:	006b636f 	.inst	0x006b636f ; undefined
 368:	657a6973 	fnmls	z19.h, p2/m, z11.h, z26.h
 36c:	5f74645f 	.inst	0x5f74645f ; undefined
 370:	69727473 	ldpsw	x19, x29, [x3, #-112]
 374:	0073676e 	.inst	0x0073676e ; undefined
 378:	7473616c 	.inst	0x7473616c ; undefined
 37c:	6d6f635f 	ldp	d31, d24, [x26, #-272]
 380:	65765f70 	fnmla	z16.h, p7/m, z27.h, z22.h
 384:	6f697372 	fcmla	v18.8h, v27.8h, v9.h[1], #270
 388:	666f006e 	.inst	0x666f006e ; undefined
 38c:	74645f66 	.inst	0x74645f66 ; undefined
 390:	7274735f 	.inst	0x7274735f ; undefined
 394:	73676e69 	.inst	0x73676e69 ; undefined
 398:	6e697500 	uabd	v0.8h, v8.8h, v9.8h
 39c:	5f323374 	.inst	0x5f323374 ; undefined
 3a0:	65670074 	fmla	z20.h, p0/m, z3.h, z7.h
 3a4:	74645f74 	.inst	0x74645f74 ; undefined
 3a8:	6e655f62 	uqrshl	v2.8h, v27.8h, v5.8h
 3ac:	61700064 	.inst	0x61700064 ; undefined
 3b0:	5f657372 	sqdmlsl	s18, h27, v5.h[2]
 3b4:	00627464 	.inst	0x00627464 ; undefined
 3b8:	61746f74 	.inst	0x61746f74 ; undefined
 3bc:	7a69736c 	.inst	0x7a69736c ; undefined
 3c0:	6f620065 	mla	v5.8h, v3.8h, v2.h[2]
 3c4:	635f746f 	.inst	0x635f746f ; undefined
 3c8:	64697570 	.inst	0x64697570 ; undefined
 3cc:	7968705f 	ldrh	wzr, [x2, #5176]
 3d0:	6c650073 	ldnp	d19, d0, [x3, #-432]
 3d4:	6c655f72 	ldnp	d18, d23, [x27, #-432]
 3d8:	79730031 	ldrh	w17, [x1, #6528]
 3dc:	78655f73 	.inst	0x78655f73 ; undefined
 3e0:	73006365 	.inst	0x73006365 ; undefined
 3e4:	675f7379 	.inst	0x675f7379 ; undefined
 3e8:	69707465 	ldpsw	x5, x29, [x3, #-128]
 3ec:	79730064 	ldrh	w4, [x3, #6528]
 3f0:	61755f73 	.inst	0x61755f73 ; undefined
 3f4:	72777472 	.inst	0x72777472 ; undefined
 3f8:	00657469 	.inst	0x00657469 ; undefined
 3fc:	657a6973 	fnmls	z19.h, p2/m, z11.h, z26.h
 400:	7300745f 	.inst	0x7300745f ; undefined
 404:	655f7379 	fcmne	p9.h, p4/z, z27.h, z31.h
 408:	00746978 	.inst	0x00746978 ; undefined
 40c:	5f737973 	sqdmlsl	s19, h11, v3.h[7]
 410:	6c6c696b 	ldnp	d11, d26, [x11, #-320]
 414:	61727400 	.inst	0x61727400 ; undefined
 418:	61726670 	.inst	0x61726670 ; undefined
 41c:	6500656d 	.inst	0x6500656d ; undefined
 420:	655f7273 	fcmne	p3.h, p4/z, z19.h, z31.h
 424:	7300316c 	.inst	0x7300316c ; undefined
 428:	6d5f7379 	ldp	d25, d28, [x27, #496]
 42c:	5f786f62 	.inst	0x5f786f62 ; undefined
 430:	6c6c6163 	ldnp	d3, d24, [x11, #-320]
 434:	73797300 	.inst	0x73797300 ; undefined
 438:	7261755f 	.inst	0x7261755f ; undefined
 43c:	61657274 	.inst	0x61657274 ; undefined
 440:	6f6c0064 	mla	v4.8h, v3.8h, v12.h[2]
 444:	6c20676e 	stnp	d14, d25, [x27, #-512]
 448:	20676e6f 	.inst	0x20676e6f ; undefined
 44c:	69736e75 	ldpsw	x21, x27, [x19, #-104]
 450:	64656e67 	.inst	0x64656e67 ; undefined
 454:	746e6920 	.inst	0x746e6920 ; undefined
 458:	72617500 	.inst	0x72617500 ; undefined
 45c:	65735f74 	fnmla	z20.h, p7/m, z27.h, z19.h
 460:	0068646e 	.inst	0x0068646e ; undefined
 464:	72737073 	.inst	0x72737073 ; undefined
 468:	316c655f 	cmn	w10, #0xb19, lsl #12
 46c:	5f707300 	sqdmlsl	s0, h24, v0.h[3]
 470:	00306c65 	.inst	0x00306c65 ; NYI
 474:	5f737973 	sqdmlsl	s19, h11, v3.h[7]
 478:	6b726f66 	.inst	0x6b726f66 ; undefined
 47c:	776f6c00 	.inst	0x776f6c00 ; undefined
 480:	655f7265 	fcmeq	p5.h, p4/z, z19.h, z31.h
 484:	70656378 	adr	x24, cb0f3 <bss_end+0x42343>
 488:	6e6f6974 	.inst	0x6e6f6974 ; undefined
 48c:	746e655f 	.inst	0x746e655f ; undefined
 490:	62007972 	.inst	0x62007972 ; undefined
 494:	655f7373 	fcmne	p3.h, p4/z, z27.h, z31.h
 498:	6800646e 	.inst	0x6800646e ; undefined
 49c:	5f706165 	.inst	0x5f706165 ; undefined
 4a0:	00727470 	.inst	0x00727470 ; undefined
 4a4:	70616568 	adr	x8, c3153 <bss_end+0x3a3a3>
 4a8:	696e695f 	ldpsw	xzr, x26, [x10, #-144]
 4ac:	6c610074 	ldnp	d20, d0, [x3, #-496]
 4b0:	61636f6c 	.inst	0x61636f6c ; undefined
 4b4:	5f646574 	.inst	0x5f646574 ; undefined
 4b8:	6f6d656d 	sqshlu	v13.2d, v11.2d, #45
 4bc:	68007972 	.inst	0x68007972 ; undefined
 4c0:	5f706165 	.inst	0x5f706165 ; undefined
 4c4:	657a6973 	fnmls	z19.h, p2/m, z11.h, z26.h
 4c8:	61656800 	.inst	0x61656800 ; undefined
 4cc:	6e655f70 	uqrshl	v16.8h, v27.8h, v5.8h
 4d0:	5f630064 	.inst	0x5f630064 ; undefined
 4d4:	006f6e69 	.inst	0x006f6e69 ; undefined
 4d8:	68637261 	.inst	0x68637261 ; undefined
 4dc:	5f657669 	sqshl	d9, d19, #37
 4e0:	00646e65 	.inst	0x00646e65 ; undefined
 4e4:	61705f66 	.inst	0x61705f66 ; undefined
 4e8:	6e696464 	umax	v4.8h, v3.8h, v9.8h
 4ec:	72610067 	.inst	0x72610067 ; undefined
 4f0:	76696863 	.inst	0x76696863 ; undefined
 4f4:	74735f65 	.inst	0x74735f65 ; undefined
 4f8:	00747261 	.inst	0x00747261 ; undefined
 4fc:	746d5f63 	.inst	0x746d5f63 ; undefined
 500:	00656d69 	.inst	0x00656d69 ; undefined
 504:	6f697063 	fcmla	v3.8h, v3.8h, v9.h[1], #270
 508:	6165685f 	.inst	0x6165685f ; undefined
 50c:	00726564 	.inst	0x00726564 ; undefined
 510:	69665f63 	ldpsw	x3, x23, [x27, #-208]
 514:	6973656c 	ldpsw	x12, x25, [x11, #-104]
 518:	6300657a 	.inst	0x6300657a ; undefined
 51c:	6469755f 	.inst	0x6469755f ; undefined
 520:	6f727000 	fcmla	v0.8h, v0.8h, v18.h[1], #270
 524:	6d616e70 	ldp	d16, d27, [x19, #-496]
 528:	5f630065 	.inst	0x5f630065 ; undefined
 52c:	76656472 	.inst	0x76656472 ; undefined
 530:	6f6a616d 	umlsl2	v13.4s, v11.8h, v10.h[2]
 534:	5f630072 	.inst	0x5f630072 ; undefined
 538:	63656863 	.inst	0x63656863 ; undefined
 53c:	5f6e006b 	.inst	0x5f6e006b ; undefined
 540:	64646170 	.inst	0x64646170 ; undefined
 544:	00676e69 	.inst	0x00676e69 ; undefined
 548:	616d5f63 	.inst	0x616d5f63 ; undefined
 54c:	00636967 	.inst	0x00636967 ; undefined
 550:	65645f63 	fnmla	z3.h, p7/m, z27.h, z4.h
 554:	6e696d76 	umin	v22.8h, v11.8h, v9.8h
 558:	6300726f 	.inst	0x6300726f ; undefined
 55c:	6d616e5f 	ldp	d31, d27, [x18, #-496]
 560:	7a697365 	.inst	0x7a697365 ; undefined
 564:	65670065 	fmla	z5.h, p0/m, z3.h, z7.h
 568:	6e695f74 	uqrshl	v20.8h, v27.8h, v9.8h
 56c:	64727469 	.inst	0x64727469 ; undefined
 570:	6174735f 	.inst	0x6174735f ; undefined
 574:	63007472 	.inst	0x63007472 ; undefined
 578:	696c6e5f 	ldpsw	xzr, x27, [x18, #-160]
 57c:	73006b6e 	.inst	0x73006b6e ; undefined
 580:	6d637274 	ldp	d20, d28, [x19, #-464]
 584:	5f630070 	.inst	0x5f630070 ; undefined
 588:	00646967 	.inst	0x00646967 ; undefined
 58c:	65645f63 	fnmla	z3.h, p7/m, z27.h, z4.h
 590:	6a616d76 	bics	w22, w11, w1, lsr #27
 594:	6700726f 	.inst	0x6700726f ; undefined
 598:	695f7465 	ldpsw	x5, x29, [x3, #248]
 59c:	7274696e 	.inst	0x7274696e ; undefined
 5a0:	6e655f64 	uqrshl	v4.8h, v27.8h, v5.8h
 5a4:	5f630064 	.inst	0x5f630064 ; undefined
 5a8:	65646f6d 	fnmls	z13.h, p3/m, z27.h, z4.h
 5ac:	74736800 	.inst	0x74736800 ; undefined
 5b0:	6e693272 	usubw2	v18.4s, v19.4s, v9.8h
 5b4:	6e690074 	uaddl2	v20.4s, v3.8h, v9.8h
 5b8:	61727469 	.inst	0x61727469 ; undefined
 5bc:	5f73666d 	.inst	0x5f73666d ; undefined
 5c0:	6c6c6163 	ldnp	d3, d24, [x11, #-320]
 5c4:	6b636162 	.inst	0x6b636162 ; undefined
 5c8:	725f6300 	.inst	0x725f6300 ; undefined
 5cc:	6d766564 	ldp	d4, d25, [x11, #-160]
 5d0:	726f6e69 	.inst	0x726f6e69 ; undefined
 5d4:	69727000 	ldpsw	x0, x28, [x0, #-112]
 5d8:	7469726f 	.inst	0x7469726f ; undefined
 5dc:	75630079 	.inst	0x75630079 ; undefined
 5e0:	6e657272 	uabdl2	v18.4s, v19.8h, v5.8h
 5e4:	69745f74 	ldpsw	x20, x23, [x27, #-96]
 5e8:	6b00656d 	subs	w13, w11, w0, lsl #25
 5ec:	65657266 	fnmls	z6.h, p4/m, z19.h, z5.h
 5f0:	72617500 	.inst	0x72617500 ; undefined
 5f4:	78745f74 	.inst	0x78745f74 ; undefined
 5f8:	646e695f 	.inst	0x646e695f ; undefined
 5fc:	6e007865 	ext	v5.16b, v3.16b, v0.16b, #15
 600:	745f7765 	.inst	0x745f7765 ; undefined
 604:	006b7361 	.inst	0x006b7361 ; undefined
 608:	696e696d 	ldpsw	x13, x26, [x11, #-144]
 60c:	7261755f 	.inst	0x7261755f ; undefined
 610:	72695f74 	.inst	0x72695f74 ; undefined
 614:	69645f71 	ldpsw	x17, x23, [x27, #-224]
 618:	6c626173 	ldnp	d19, d24, [x11, #-480]
 61c:	6e650065 	uaddl2	v5.4s, v3.8h, v5.8h
 620:	656c6261 	fnmls	z1.h, p0/m, z19.h, z12.h
 624:	7172695f 	cmp	w10, #0xc9a, lsl #12
 628:	6e696d00 	umin	v0.8h, v8.8h, v9.8h
 62c:	61755f69 	.inst	0x61755f69 ; undefined
 630:	695f7472 	ldpsw	x18, x29, [x3, #248]
 634:	655f7172 	fcmne	p2.h, p4/z, z11.h, z31.h
 638:	6c62616e 	ldnp	d14, d24, [x11, #-480]
 63c:	72690065 	.inst	0x72690065 ; undefined
 640:	61745f71 	.inst	0x61745f71 ; undefined
 644:	745f6b73 	.inst	0x745f6b73 ; undefined
 648:	72617500 	.inst	0x72617500 ; undefined
 64c:	78745f74 	.inst	0x78745f74 ; undefined
 650:	6e61685f 	fcvtxn2	v31.4s, v2.2d
 654:	72656c64 	.inst	0x72656c64 ; undefined
 658:	6d697400 	ldp	d0, d29, [x0, #-368]
 65c:	695f7265 	ldpsw	x5, x28, [x19, #248]
 660:	685f7172 	.inst	0x685f7172 ; undefined
 664:	6c646e61 	ldnp	d1, d27, [x19, #-448]
 668:	6c007265 	stnp	d5, d28, [x19]
 66c:	7265776f 	.inst	0x7265776f ; undefined
 670:	7172695f 	cmp	w10, #0xc9a, lsl #12
 674:	746e655f 	.inst	0x746e655f ; undefined
 678:	6d007972 	stp	d18, d30, [x11]
 67c:	5f696e69 	.inst	0x5f696e69 ; undefined
 680:	74726175 	.inst	0x74726175 ; undefined
 684:	7172695f 	cmp	w10, #0xc9a, lsl #12
 688:	6e61685f 	fcvtxn2	v31.4s, v2.2d
 68c:	72656c64 	.inst	0x72656c64 ; undefined
 690:	726f6300 	.inst	0x726f6300 ; undefined
 694:	69745f65 	ldpsw	x5, x23, [x27, #-96]
 698:	5f72656d 	.inst	0x5f72656d ; undefined
 69c:	62616e65 	.inst	0x62616e65 ; undefined
 6a0:	7500656c 	.inst	0x7500656c ; undefined
 6a4:	5f747261 	sqdmlsl	s1, h19, v4.h[3]
 6a8:	625f7872 	.inst	0x625f7872 ; undefined
 6ac:	65666675 	fnmls	z21.h, p1/m, z19.h, z6.h
 6b0:	61750072 	.inst	0x61750072 ; undefined
 6b4:	745f7472 	.inst	0x745f7472 ; undefined
 6b8:	75625f78 	.inst	0x75625f78 ; undefined
 6bc:	72656666 	.inst	0x72656666 ; undefined
 6c0:	71726900 	subs	w0, w8, #0xc9a, lsl #12
 6c4:	7365745f 	.inst	0x7365745f ; undefined
 6c8:	72690074 	.inst	0x72690074 ; undefined
 6cc:	75725f71 	.inst	0x75725f71 ; undefined
 6d0:	6e696e6e 	umin	v14.8h, v19.8h, v9.8h
 6d4:	69740067 	ldpsw	x7, x0, [x3, #-96]
 6d8:	5f72656d 	.inst	0x5f72656d ; undefined
 6dc:	65670074 	fmla	z20.h, p0/m, z3.h, z7.h
 6e0:	69745f74 	ldpsw	x20, x23, [x27, #-96]
 6e4:	6900656d 	stgp	x13, x25, [x11]
 6e8:	745f7172 	.inst	0x745f7172 ; undefined
 6ec:	5f6b7361 	sqdmlsl	s1, h27, v11.h[2]
 6f0:	64616568 	.inst	0x64616568 ; undefined
 6f4:	726f6300 	.inst	0x726f6300 ; undefined
 6f8:	69745f65 	ldpsw	x5, x23, [x27, #-96]
 6fc:	5f72656d 	.inst	0x5f72656d ; undefined
 700:	61736964 	.inst	0x61736964 ; undefined
 704:	00656c62 	.inst	0x00656c62 ; undefined
 708:	61736964 	.inst	0x61736964 ; undefined
 70c:	5f656c62 	.inst	0x5f656c62 ; undefined
 710:	00717269 	.inst	0x00717269 ; undefined
 714:	63657865 	.inst	0x63657865 ; undefined
 718:	7361745f 	.inst	0x7361745f ; undefined
 71c:	6c66006b 	ldnp	d11, d0, [x3, #-416]
 720:	75006761 	.inst	0x75006761 ; undefined
 724:	5f747261 	sqdmlsl	s1, h19, v4.h[3]
 728:	685f7872 	.inst	0x685f7872 ; undefined
 72c:	6c646e61 	ldnp	d1, d27, [x19, #-448]
 730:	74007265 	.inst	0x74007265 ; undefined
 734:	72656d69 	.inst	0x72656d69 ; undefined
 738:	6165685f 	.inst	0x6165685f ; undefined
 73c:	64610064 	fmla	z4.h, z3.h, z1.h[4]
 740:	72695f64 	.inst	0x72695f64 ; undefined
 744:	61745f71 	.inst	0x61745f71 ; undefined
 748:	75006b73 	.inst	0x75006b73 ; undefined
 74c:	5f747261 	sqdmlsl	s1, h19, v4.h[3]
 750:	6d5f7874 	ldp	d20, d30, [x3, #496]
 754:	75007861 	.inst	0x75007861 ; undefined
 758:	5f747261 	sqdmlsl	s1, h19, v4.h[3]
 75c:	6d5f7872 	ldp	d18, d30, [x3, #496]
 760:	6d007861 	stp	d1, d30, [x3]
 764:	626c6961 	.inst	0x626c6961 ; undefined
 768:	635f786f 	.inst	0x635f786f ; undefined
 76c:	006c6c61 	.inst	0x006c6c61 ; undefined
 770:	6c69616d 	ldnp	d13, d24, [x11, #-368]
 774:	00786f62 	.inst	0x00786f62 ; undefined
 778:	74726175 	.inst	0x74726175 ; undefined
 77c:	696e695f 	ldpsw	xzr, x26, [x10, #-144]
 780:	656b0074 	fmla	z20.h, p0/m, z3.h, z11.h
 784:	6c656e72 	ldnp	d18, d27, [x19, #-432]
 788:	646e655f 	.inst	0x646e655f ; undefined
 78c:	72656b00 	.inst	0x72656b00 ; undefined
 790:	5f6c656e 	.inst	0x5f6c656e ; undefined
 794:	72617473 	.inst	0x72617473 ; undefined
 798:	616d0074 	.inst	0x616d0074 ; undefined
 79c:	74006e69 	.inst	0x74006e69 ; undefined
 7a0:	61657268 	.inst	0x61657268 ; undefined
 7a4:	6e695f64 	uqrshl	v4.8h, v27.8h, v9.8h
 7a8:	72007469 	ands	w9, w3, #0x3fffffff
 7ac:	72657365 	.inst	0x72657365 ; undefined
 7b0:	64006576 	.inst	0x64006576 ; undefined
 7b4:	705f6274 	adr	x20, bf403 <bss_end+0x36653>
 7b8:	6b007274 	subs	w20, w19, w0, lsl #28
 7bc:	5f6d656d 	.inst	0x5f6d656d ; undefined
 7c0:	68636163 	.inst	0x68636163 ; undefined
 7c4:	6e695f65 	uqrshl	v5.8h, v27.8h, v9.8h
 7c8:	73007469 	.inst	0x73007469 ; undefined
 7cc:	6c6c6568 	ldnp	d8, d25, [x11, #-320]
 7d0:	6578655f 	fnmls	z31.h, p1/m, z10.h, z24.h
 7d4:	65730063 	fmla	z3.h, p0/m, z3.h, z19.h
 7d8:	78655f74 	.inst	0x78655f74 ; undefined
 7dc:	74706563 	.inst	0x74706563 ; undefined
 7e0:	5f6e6f69 	.inst	0x5f6e6f69 ; undefined
 7e4:	74636576 	.inst	0x74636576 ; undefined
 7e8:	745f726f 	.inst	0x745f726f ; undefined
 7ec:	656c6261 	fnmls	z1.h, p0/m, z19.h, z12.h
 7f0:	64756200 	.inst	0x64756200 ; undefined
 7f4:	695f7964 	ldpsw	x4, x30, [x11, #248]
 7f8:	0074696e 	.inst	0x0074696e ; undefined
 7fc:	656a626f 	fnmls	z15.h, p0/m, z19.h, z10.h
 800:	6c5f7463 	ldnp	d3, d29, [x3, #496]
 804:	5f747369 	sqdmlsl	s9, h27, v4.h[3]
 808:	00706f70 	.inst	0x00706f70 ; undefined
 80c:	6d617266 	ldp	d6, d28, [x19, #-496]
 810:	00745f65 	.inst	0x00745f65 ; undefined
 814:	68636163 	.inst	0x68636163 ; undefined
 818:	726f5f65 	.inst	0x726f5f65 ; undefined
 81c:	00726564 	.inst	0x00726564 ; undefined
 820:	6772656d 	.inst	0x6772656d ; undefined
 824:	6e695f65 	uqrshl	v5.8h, v27.8h, v9.8h
 828:	00786564 	.inst	0x00786564 ; undefined
 82c:	70657473 	adr	x19, cb6bb <bss_end+0x4290b>
 830:	656d6b00 	fnmls	z0.h, p2/m, z24.h, z13.h
 834:	61635f6d 	.inst	0x61635f6d ; undefined
 838:	5f656863 	.inst	0x5f656863 ; undefined
 83c:	646e6966 	.inst	0x646e6966 ; undefined
 840:	656d6b00 	fnmls	z0.h, p2/m, z24.h, z13.h
 844:	72665f6d 	.inst	0x72665f6d ; undefined
 848:	696c6565 	ldpsw	x5, x25, [x11, #-160]
 84c:	6b007473 	subs	w19, w3, w0, lsl #29
 850:	5f6d656d 	.inst	0x5f6d656d ; undefined
 854:	68636163 	.inst	0x68636163 ; undefined
 858:	74730065 	.inst	0x74730065 ; undefined
 85c:	73757461 	.inst	0x73757461 ; undefined
 860:	65726600 	fnmls	z0.h, p1/m, z16.h, z18.h
 864:	61705f65 	.inst	0x61705f65 ; undefined
 868:	00736567 	.inst	0x00736567 ; undefined
 86c:	6d656d6b 	ldp	d11, d27, [x11, #-432]
 870:	6361635f 	.inst	0x6361635f ; undefined
 874:	635f6568 	.inst	0x635f6568 ; undefined
 878:	74616572 	.inst	0x74616572 ; undefined
 87c:	61630065 	.inst	0x61630065 ; undefined
 880:	5f656863 	.inst	0x5f656863 ; undefined
 884:	7473696c 	.inst	0x7473696c ; undefined
 888:	6464615f 	.inst	0x6464615f ; undefined
 88c:	67617000 	.inst	0x67617000 ; undefined
 890:	72705f65 	.inst	0x72705f65 ; undefined
 894:	78696665 	.inst	0x78696665 ; undefined
 898:	6c707300 	ldnp	d0, d28, [x24, #-256]
 89c:	6d007469 	stp	d9, d29, [x3]
 8a0:	65677265 	fnmls	z5.h, p4/m, z19.h, z7.h
 8a4:	64726f5f 	.inst	0x64726f5f ; undefined
 8a8:	6c007265 	stnp	d5, d28, [x19]
 8ac:	5f747369 	sqdmlsl	s9, h27, v4.h[3]
 8b0:	776f6873 	.inst	0x776f6873 ; undefined
 8b4:	61726600 	.inst	0x61726600 ; undefined
 8b8:	615f656d 	.inst	0x615f656d ; undefined
 8bc:	79617272 	ldrh	w18, [x19, #4280]
 8c0:	656d6b00 	fnmls	z0.h, p2/m, z24.h, z13.h
 8c4:	61635f6d 	.inst	0x61635f6d ; undefined
 8c8:	5f656863 	.inst	0x5f656863 ; undefined
 8cc:	65657266 	fnmls	z6.h, p4/m, z19.h, z5.h
 8d0:	64646100 	.inst	0x64646100 ; undefined
 8d4:	73736572 	.inst	0x73736572 ; undefined
 8d8:	65726600 	fnmls	z0.h, p1/m, z16.h, z18.h
 8dc:	696c5f65 	ldpsw	x5, x23, [x27, #-160]
 8e0:	63007473 	.inst	0x63007473 ; undefined
 8e4:	65686361 	fnmls	z1.h, p0/m, z27.h, z8.h
 8e8:	73696c5f 	.inst	0x73696c5f ; undefined
 8ec:	6e650074 	uaddl2	v20.4s, v3.8h, v5.8h
 8f0:	6e695f64 	uqrshl	v4.8h, v27.8h, v9.8h
 8f4:	00786564 	.inst	0x00786564 ; undefined
 8f8:	656a626f 	fnmls	z15.h, p0/m, z19.h, z10.h
 8fc:	61007463 	.inst	0x61007463 ; undefined
 900:	636f6c6c 	.inst	0x636f6c6c ; undefined
 904:	6761705f 	.inst	0x6761705f ; undefined
 908:	6b007365 	subs	w5, w27, w0, lsl #28
 90c:	5f6d656d 	.inst	0x5f6d656d ; undefined
 910:	68636163 	.inst	0x68636163 ; undefined
 914:	6c615f65 	ldnp	d5, d23, [x27, #-496]
 918:	00636f6c 	.inst	0x00636f6c ; undefined
 91c:	656a626f 	fnmls	z15.h, p0/m, z19.h, z10.h
 920:	6c5f7463 	ldnp	d3, d29, [x3, #496]
 924:	5f747369 	sqdmlsl	s9, h27, v4.h[3]
 928:	00646461 	.inst	0x00646461 ; undefined
 92c:	6c696174 	ldnp	d20, d24, [x11, #-368]
 930:	616f6300 	.inst	0x616f6300 ; undefined
 934:	6373656c 	.inst	0x6373656c ; undefined
 938:	64610065 	fmla	z5.h, z3.h, z1.h[4]
 93c:	73657264 	.inst	0x73657264 ; undefined
 940:	6f745f73 	.inst	0x6f745f73 ; undefined
 944:	6361635f 	.inst	0x6361635f ; undefined
 948:	62006568 	.inst	0x62006568 ; undefined
 94c:	79646475 	ldrh	w21, [x3, #4658]
 950:	646e695f 	.inst	0x646e695f ; undefined
 954:	73007865 	.inst	0x73007865 ; undefined
 958:	74726174 	.inst	0x74726174 ; undefined
 95c:	646e695f 	.inst	0x646e695f ; undefined
 960:	6c007865 	stnp	d5, d30, [x3]
 964:	5f747369 	sqdmlsl	s9, h27, v4.h[3]
 968:	006c6564 	.inst	0x006c6564 ; undefined
 96c:	65676170 	fnmls	z16.h, p0/m, z11.h, z7.h
 970:	6172665f 	.inst	0x6172665f ; undefined
 974:	7500656d 	.inst	0x7500656d ; undefined
 978:	5f747261 	sqdmlsl	s1, h19, v4.h[3]
 97c:	6e797361 	uabdl2	v1.4s, v27.8h, v25.8h
 980:	65735f63 	fnmla	z3.h, p7/m, z27.h, z19.h
 984:	0073646e 	.inst	0x0073646e ; undefined
 988:	74726175 	.inst	0x74726175 ; undefined
 98c:	7973615f 	ldrh	wzr, [x10, #6576]
 990:	735f636e 	.inst	0x735f636e ; undefined
 994:	00646e65 	.inst	0x00646e65 ; undefined
 998:	72657375 	.inst	0x72657375 ; undefined
 99c:	706e695f 	adr	xzr, dd6c7 <bss_end+0x54917>
 9a0:	75007475 	.inst	0x75007475 ; undefined
 9a4:	5f747261 	sqdmlsl	s1, h19, v4.h[3]
 9a8:	6e797361 	uabdl2	v1.4s, v27.8h, v25.8h
 9ac:	65725f63 	fnmla	z3.h, p7/m, z27.h, z18.h
 9b0:	73007663 	.inst	0x73007663 ; undefined
 9b4:	63656c65 	.inst	0x63656c65 ; undefined
 9b8:	00726f74 	.inst	0x00726f74 ; undefined
 9bc:	616c6564 	.inst	0x616c6564 ; undefined
 9c0:	61750079 	.inst	0x61750079 ; undefined
 9c4:	725f7472 	.inst	0x725f7472 ; undefined
 9c8:	6e695f78 	uqrshl	v24.8h, v27.8h, v9.8h
 9cc:	00786564 	.inst	0x00786564 ; undefined
 9d0:	74726175 	.inst	0x74726175 ; undefined
 9d4:	6365725f 	.inst	0x6365725f ; undefined
 9d8:	61750076 	.inst	0x61750076 ; undefined
 9dc:	735f7472 	.inst	0x735f7472 ; undefined
 9e0:	6c646e65 	ldnp	d5, d27, [x19, #-448]
 9e4:	72617500 	.inst	0x72617500 ; undefined
 9e8:	73615f74 	.inst	0x73615f74 ; undefined
 9ec:	5f636e79 	.inst	0x5f636e79 ; undefined
 9f0:	73746567 	.inst	0x73746567 ; undefined
 9f4:	4e736900 	.inst	0x4e736900 ; undefined
 9f8:	74616765 	.inst	0x74616765 ; undefined
 9fc:	00657669 	.inst	0x00657669 ; undefined
 a00:	6c637963 	ldnp	d3, d30, [x11, #-464]
 a04:	75007365 	.inst	0x75007365 ; undefined
 a08:	5f747261 	sqdmlsl	s1, h19, v4.h[3]
 a0c:	646e6573 	.inst	0x646e6573 ; undefined
 a10:	6d656d00 	ldp	d0, d27, [x8, #-432]
 a14:	00746573 	.inst	0x00746573 ; undefined
 a18:	6d6d6f63 	ldp	d3, d27, [x27, #-304]
 a1c:	5f646e61 	.inst	0x5f646e61 ; undefined
 a20:	63657865 	.inst	0x63657865 ; undefined
 a24:	72747300 	.inst	0x72747300 ; undefined
 a28:	006b6f74 	.inst	0x006b6f74 ; undefined
 a2c:	63677261 	.inst	0x63677261 ; undefined
 a30:	64736900 	.inst	0x64736900 ; undefined
 a34:	6d696c65 	ldp	d5, d27, [x3, #-368]
 a38:	72747300 	.inst	0x72747300 ; undefined
 a3c:	00707564 	.inst	0x00707564 ; undefined
 a40:	31727473 	adds	w19, w3, #0xc9d, lsl #12
 a44:	72747300 	.inst	0x72747300 ; undefined
 a48:	65640032 	fmla	z18.h, p0/m, z1.h, z4.h
 a4c:	656d696c 	fnmls	z12.h, p2/m, z11.h, z13.h
 a50:	00726574 	.inst	0x00726574 ; undefined
 a54:	7473616c 	.inst	0x7473616c ; undefined
 a58:	6c617600 	ldnp	d0, d29, [x16, #-496]
 a5c:	74006575 	.inst	0x74006575 ; undefined
 a60:	61657268 	.inst	0x61657268 ; undefined
 a64:	78655f64 	.inst	0x78655f64 ; undefined
 a68:	74007469 	.inst	0x74007469 ; undefined
 a6c:	61657268 	.inst	0x61657268 ; undefined
 a70:	696b5f64 	ldpsw	x4, x23, [x27, #-168]
 a74:	6a006c6c 	ands	w12, w3, w0, lsl #27
 a78:	5f706d75 	.inst	0x5f706d75 ; undefined
 a7c:	655f6f74 	fcmne	p4.h, p3/z, z27.h, z31.h
 a80:	6900306c 	stgp	x12, x12, [x3]
 a84:	00656c64 	.inst	0x00656c64 ; undefined
 a88:	6c696863 	ldnp	d3, d26, [x3, #-368]
 a8c:	66745f64 	.inst	0x66745f64 ; undefined
 a90:	67726100 	.inst	0x67726100 ; undefined
 a94:	65670076 	fmla	z22.h, p0/m, z3.h, z7.h
 a98:	75635f74 	.inst	0x75635f74 ; undefined
 a9c:	6e657272 	uabdl2	v18.4s, v19.8h, v5.8h
 aa0:	626d0074 	.inst	0x626d0074 ; undefined
 aa4:	7300786f 	.inst	0x7300786f ; undefined
 aa8:	635f7465 	.inst	0x635f7465 ; undefined
 aac:	646c6968 	.inst	0x646c6968 ; undefined
 ab0:	00726c5f 	.inst	0x00726c5f ; undefined
 ab4:	6c696863 	ldnp	d3, d26, [x3, #-368]
 ab8:	68630064 	.inst	0x68630064 ; undefined
 abc:	5f646c69 	.inst	0x5f646c69 ; undefined
 ac0:	00646974 	.inst	0x00646974 ; undefined
 ac4:	5f727563 	sqshl	d3, d11, #50
 ac8:	70007073 	adr	x19, 18d7 <bss_size+0x1876>
 acc:	72676f72 	.inst	0x72676f72 ; undefined
 ad0:	735f6d61 	.inst	0x735f6d61 ; undefined
 ad4:	00657a69 	.inst	0x00657a69 ; undefined
 ad8:	5f746567 	.inst	0x5f746567 ; undefined
 adc:	71657266 	subs	w6, w19, #0x95c, lsl #12
 ae0:	78616d00 	.inst	0x78616d00 ; undefined
 ae4:	6469745f 	.inst	0x6469745f ; undefined
 ae8:	68637300 	.inst	0x68637300 ; undefined
 aec:	6c756465 	ldnp	d5, d25, [x3, #-176]
 af0:	64610065 	fmla	z5.h, z3.h, z1.h[4]
 af4:	69745f64 	ldpsw	x4, x23, [x27, #-96]
 af8:	0072656d 	.inst	0x0072656d ; undefined
 afc:	75716564 	.inst	0x75716564 ; undefined
 b00:	5f657565 	sqshl	d5, d11, #37
 b04:	75720074 	.inst	0x75720074 ; undefined
 b08:	6e696e6e 	umin	v14.8h, v19.8h, v9.8h
 b0c:	75715f67 	.inst	0x75715f67 ; undefined
 b10:	00657565 	.inst	0x00657565 ; undefined
 b14:	735f6f64 	.inst	0x735f6f64 ; undefined
 b18:	64656863 	.inst	0x64656863 ; undefined
 b1c:	72656c75 	.inst	0x72656c75 ; undefined
 b20:	69777300 	ldpsw	x0, x28, [x24, #-72]
 b24:	5f686374 	.inst	0x5f686374 ; undefined
 b28:	65006f74 	.inst	0x65006f74 ; undefined
 b2c:	6575716e 	fnmls	z14.h, p4/m, z11.h, z21.h
 b30:	74006575 	.inst	0x74006575 ; undefined
 b34:	696d7265 	ldpsw	x5, x28, [x19, #-152]
 b38:	6574616e 	fnmls	z14.h, p0/m, z11.h, z20.h
 b3c:	75715f64 	.inst	0x75715f64 ; undefined
 b40:	00657565 	.inst	0x00657565 ; undefined
 b44:	6c6c696b 	ldnp	d11, d26, [x11, #-320]
 b48:	6d6f7a5f 	ldp	d31, d30, [x18, #-272]
 b4c:	73656962 	.inst	0x73656962 ; undefined
 b50:	6f687300 	fcmla	v0.8h, v24.8h, v8.h[1], #270
 b54:	75715f77 	.inst	0x75715f77 ; undefined
 b58:	00657565 	.inst	0x00657565 ; undefined
 b5c:	6e6f7266 	uabdl2	v6.4s, v19.8h, v15.8h
 b60:	64690074 	fmla	z20.h, z3.h, z1.h[5]
 b64:	745f656c 	.inst	0x745f656c ; undefined
 b68:	61657268 	.inst	0x61657268 ; undefined
 b6c:	65640064 	fmla	z4.h, p0/m, z3.h, z4.h
 b70:	75657571 	.inst	0x75657571 ; undefined
 b74:	72700065 	.inst	0x72700065 ; undefined
 b78:	5f746e69 	.inst	0x5f746e69 ; undefined
 b7c:	7373656d 	.inst	0x7373656d ; undefined
 b80:	00656761 	.inst	0x00656761 ; undefined
 b84:	61727564 	.inst	0x61727564 ; undefined
 b88:	6e6f6974 	.inst	0x6e6f6974 ; undefined
 b8c:	74656700 	.inst	0x74656700 ; undefined
 b90:	6d69745f 	ldp	d31, d29, [x2, #-368]
 b94:	00735f65 	.inst	0x00735f65 ; undefined
 b98:	5f77656e 	.inst	0x5f77656e ; undefined
 b9c:	656d6974 	fnmls	z20.h, p2/m, z11.h, z13.h
 ba0:	74730072 	.inst	0x74730072 ; undefined
 ba4:	2e747261 	uabdl	v1.4s, v19.4h, v20.4h
 ba8:	682f0053 	.inst	0x682f0053 ; undefined
 bac:	2f656d6f 	.inst	0x2f656d6f ; undefined
 bb0:	6a696577 	bics	w23, w11, w9, lsr #25
 bb4:	722f6569 	ands	w9, w11, #0xfffe07ff
 bb8:	736f7065 	.inst	0x736f7065 ; undefined
 bbc:	63736f2f 	.inst	0x63736f2f ; undefined
 bc0:	34323032 	cbz	w18, 651c4 <bss_size+0x65163>
 bc4:	62614c2f 	.inst	0x62614c2f ; undefined
 bc8:	4e470035 	.inst	0x4e470035 ; undefined
 bcc:	53412055 	.inst	0x53412055 ; undefined
 bd0:	332e3220 	.inst	0x332e3220 ; undefined
 bd4:	72730038 	.inst	0x72730038 ; undefined
 bd8:	78652f63 	.inst	0x78652f63 ; undefined
 bdc:	74706563 	.inst	0x74706563 ; undefined
 be0:	5f6e6f69 	.inst	0x5f6e6f69 ; undefined
 be4:	6c626174 	ldnp	d20, d24, [x11, #-480]
 be8:	00532e65 	.inst	0x00532e65 ; undefined
 bec:	2f637273 	fcmla	v19.4h, v19.4h, v3.h[1], #270
 bf0:	74697773 	.inst	0x74697773 ; undefined
 bf4:	532e6863 	.inst	0x532e6863 ; undefined
	...

Disassembly of section .debug_line_str:

0000000000000000 <.debug_line_str>:
   0:	2f637273 	fcmla	v19.4h, v19.4h, v3.h[1], #270
   4:	746c7661 	.inst	0x746c7661 ; undefined
   8:	2e656572 	umax	v18.4h, v11.4h, v5.4h
   c:	682f0063 	.inst	0x682f0063 ; undefined
  10:	2f656d6f 	.inst	0x2f656d6f ; undefined
  14:	6a696577 	bics	w23, w11, w9, lsr #25
  18:	722f6569 	ands	w9, w11, #0xfffe07ff
  1c:	736f7065 	.inst	0x736f7065 ; undefined
  20:	63736f2f 	.inst	0x63736f2f ; undefined
  24:	34323032 	cbz	w18, 64628 <bss_size+0x645c7>
  28:	62614c2f 	.inst	0x62614c2f ; undefined
  2c:	72730035 	.inst	0x72730035 ; undefined
  30:	72730063 	.inst	0x72730063 ; undefined
  34:	6f632f63 	.inst	0x6f632f63 ; undefined
  38:	6e616d6d 	umin	v13.8h, v11.8h, v1.8h
  3c:	00632e64 	.inst	0x00632e64 ; undefined
  40:	7273752f 	.inst	0x7273752f ; undefined
  44:	62696c2f 	.inst	0x62696c2f ; undefined
  48:	6363672f 	.inst	0x6363672f ; undefined
  4c:	6f72632d 	umlsl2	v13.4s, v25.8h, v2.h[3]
  50:	612f7373 	.inst	0x612f7373 ; undefined
  54:	68637261 	.inst	0x68637261 ; undefined
  58:	6c2d3436 	stnp	d22, d13, [x1, #-304]
  5c:	78756e69 	.inst	0x78756e69 ; undefined
  60:	756e672d 	.inst	0x756e672d ; undefined
  64:	2f31312f 	.inst	0x2f31312f ; undefined
  68:	6c636e69 	ldnp	d9, d27, [x19, #-464]
  6c:	00656475 	.inst	0x00656475 ; undefined
  70:	6d6d6f63 	ldp	d3, d27, [x27, #-304]
  74:	2e646e61 	umin	v1.4h, v19.4h, v4.4h
  78:	74730068 	.inst	0x74730068 ; undefined
  7c:	746e6964 	.inst	0x746e6964 ; undefined
  80:	6363672d 	.inst	0x6363672d ; undefined
  84:	7400682e 	.inst	0x7400682e ; undefined
  88:	61657268 	.inst	0x61657268 ; undefined
  8c:	00682e64 	.inst	0x00682e64 ; undefined
  90:	63737973 	.inst	0x63737973 ; undefined
  94:	2e6c6c61 	umin	v1.4h, v3.4h, v12.4h
  98:	696d0068 	ldpsw	x8, x0, [x3, #-152]
  9c:	755f696e 	.inst	0x755f696e ; undefined
  a0:	2e747261 	uabdl	v1.4s, v19.4h, v20.4h
  a4:	74730068 	.inst	0x74730068 ; undefined
  a8:	676e6972 	.inst	0x676e6972 ; undefined
  ac:	7400682e 	.inst	0x7400682e ; undefined
  b0:	72656d69 	.inst	0x72656d69 ; undefined
  b4:	6900682e 	stgp	x14, x26, [x1]
  b8:	7274696e 	.inst	0x7274696e ; undefined
  bc:	00682e64 	.inst	0x00682e64 ; undefined
  c0:	6c69616d 	ldnp	d13, d24, [x11, #-368]
  c4:	2e786f62 	umin	v2.4h, v27.4h, v24.4h
  c8:	72730068 	.inst	0x72730068 ; undefined
  cc:	65642f63 	fmls	z3.h, p3/m, z27.h, z4.h
  d0:	65636976 	fnmls	z22.h, p2/m, z11.h, z3.h
  d4:	65657274 	fnmls	z20.h, p4/m, z19.h, z5.h
  d8:	6400632e 	.inst	0x6400632e ; undefined
  dc:	63697665 	.inst	0x63697665 ; undefined
  e0:	65727465 	fnmls	z5.h, p5/m, z3.h, z18.h
  e4:	00682e65 	.inst	0x00682e65 ; undefined
  e8:	2f637273 	fcmla	v19.4h, v19.4h, v3.h[1], #270
  ec:	65637865 	fnmls	z5.h, p6/m, z3.h, z3.h
  f0:	6f697470 	uqshl	v16.2d, v3.2d, #41
  f4:	00632e6e 	.inst	0x00632e6e ; undefined
  f8:	65637865 	fnmls	z5.h, p6/m, z3.h, z3.h
  fc:	6f697470 	uqshl	v16.2d, v3.2d, #41
 100:	00682e6e 	.inst	0x00682e6e ; undefined
 104:	64647473 	.inst	0x64647473 ; undefined
 108:	682e6665 	.inst	0x682e6665 ; undefined
 10c:	63727300 	.inst	0x63727300 ; undefined
 110:	6165682f 	.inst	0x6165682f ; undefined
 114:	00632e70 	.inst	0x00632e70 ; undefined
 118:	70616568 	adr	x8, c2dc7 <bss_end+0x3a017>
 11c:	7300682e 	.inst	0x7300682e ; undefined
 120:	692f6372 	stgp	x18, x24, [x27, #-544]
 124:	7274696e 	.inst	0x7274696e ; undefined
 128:	00632e64 	.inst	0x00632e64 ; undefined
 12c:	2f637273 	fcmla	v19.4h, v19.4h, v3.h[1], #270
 130:	65746e69 	fnmls	z9.h, p3/m, z19.h, z20.h
 134:	70757272 	adr	x18, eaf83 <bss_end+0x621d3>
 138:	00632e74 	.inst	0x00632e74 ; undefined
 13c:	65746e69 	fnmls	z9.h, p3/m, z19.h, z20.h
 140:	70757272 	adr	x18, eaf8f <bss_end+0x621df>
 144:	00682e74 	.inst	0x00682e74 ; undefined
 148:	6f6d656d 	sqshlu	v13.2d, v11.2d, #45
 14c:	682e7972 	.inst	0x682e7972 ; undefined
 150:	63727300 	.inst	0x63727300 ; undefined
 154:	69616d2f 	ldpsw	x15, x27, [x9, #-248]
 158:	786f626c 	ldumaxlh	w15, w12, [x19]
 15c:	7300632e 	.inst	0x7300632e ; undefined
 160:	6d2f6372 	stp	d18, d24, [x27, #-272]
 164:	2e6e6961 	.inst	0x2e6e6961 ; undefined
 168:	68730063 	.inst	0x68730063 ; undefined
 16c:	2e6c6c65 	umin	v5.4h, v3.4h, v12.4h
 170:	72730068 	.inst	0x72730068 ; undefined
 174:	656d2f63 	fmls	z3.h, p3/m, z27.h, z13.h
 178:	79726f6d 	ldrh	w13, [x27, #6454]
 17c:	7300632e 	.inst	0x7300632e ; undefined
 180:	6d2f6372 	stp	d18, d24, [x27, #-272]
 184:	5f696e69 	.inst	0x5f696e69 ; undefined
 188:	74726175 	.inst	0x74726175 ; undefined
 18c:	7300632e 	.inst	0x7300632e ; undefined
 190:	732f6372 	.inst	0x732f6372 ; undefined
 194:	6c6c6568 	ldnp	d8, d25, [x11, #-320]
 198:	7300632e 	.inst	0x7300632e ; undefined
 19c:	732f6372 	.inst	0x732f6372 ; undefined
 1a0:	616e6769 	.inst	0x616e6769 ; undefined
 1a4:	00632e6c 	.inst	0x00632e6c ; undefined
 1a8:	2f637273 	fcmla	v19.4h, v19.4h, v3.h[1], #270
 1ac:	69727473 	ldpsw	x19, x29, [x3, #-112]
 1b0:	632e676e 	.inst	0x632e676e ; undefined
 1b4:	63727300 	.inst	0x63727300 ; undefined
 1b8:	7379732f 	.inst	0x7379732f ; undefined
 1bc:	6c6c6163 	ldnp	d3, d24, [x11, #-320]
 1c0:	7300632e 	.inst	0x7300632e ; undefined
 1c4:	742f6372 	.inst	0x742f6372 ; undefined
 1c8:	61657268 	.inst	0x61657268 ; undefined
 1cc:	00632e64 	.inst	0x00632e64 ; undefined
 1d0:	2f637273 	fcmla	v19.4h, v19.4h, v3.h[1], #270
 1d4:	656d6974 	fnmls	z20.h, p2/m, z11.h, z13.h
 1d8:	00632e72 	.inst	0x00632e72 ; undefined
 1dc:	72617473 	.inst	0x72617473 ; undefined
 1e0:	00532e74 	.inst	0x00532e74 ; undefined
 1e4:	65637865 	fnmls	z5.h, p6/m, z3.h, z3.h
 1e8:	6f697470 	uqshl	v16.2d, v3.2d, #41
 1ec:	61745f6e 	.inst	0x61745f6e ; undefined
 1f0:	2e656c62 	umin	v2.4h, v3.4h, v5.4h
 1f4:	77730053 	.inst	0x77730053 ; undefined
 1f8:	68637469 	.inst	0x68637469 ; undefined
 1fc:	Address 0x00000000000001fc is out of bounds.


Disassembly of section .comment:

0000000000000000 <.comment>:
   0:	3a434347 	ccmn	w26, w3, #0x7, mi  // mi = first
   4:	62552820 	.inst	0x62552820 ; undefined
   8:	75746e75 	.inst	0x75746e75 ; undefined
   c:	2e313120 	usubw	v0.8h, v9.8h, v17.8b
  10:	2d302e34 	stp	s20, s11, [x17, #-128]
  14:	75627531 	.inst	0x75627531 ; undefined
  18:	3175746e 	adds	w14, w3, #0xd5d, lsl #12
  1c:	2e32327e 	usubw	v30.8h, v19.8h, v18.8b
  20:	20293430 	.inst	0x20293430 ; undefined
  24:	342e3131 	cbz	w17, 5c648 <bss_size+0x5c5e7>
  28:	Address 0x0000000000000028 is out of bounds.

